
../bin/lab2-rtos.elf:     file format elf32-littlenios2
../bin/lab2-rtos.elf
architecture: nios2, flags 0x00000112:
EXEC_P, HAS_SYMS, D_PAGED
start address 0x00100124

Program Header:
    LOAD off    0x00001020 vaddr 0x01000020 paddr 0x00100000 align 2**12
         filesz 0x00000124 memsz 0x00000124 flags r-x
    LOAD off    0x00002124 vaddr 0x00100124 paddr 0x00100124 align 2**12
         filesz 0x0000b9b4 memsz 0x0000b9b4 flags r-x
    LOAD off    0x0000dad8 vaddr 0x0010bad8 paddr 0x0010d5d4 align 2**12
         filesz 0x00001afc memsz 0x00001afc flags rw-
    LOAD off    0x000100d0 vaddr 0x0010f0d0 paddr 0x0010f0d0 align 2**12
         filesz 0x00000000 memsz 0x0000a0e0 flags rw-
    LOAD off    0x00010000 vaddr 0x01000000 paddr 0x01000000 align 2**12
         filesz 0x00000020 memsz 0x00000020 flags r-x

Sections:
Idx Name          Size      VMA       LMA       File off  Algn
  0 .entry        00000020  01000000  01000000  00010000  2**5
                  CONTENTS, ALLOC, LOAD, READONLY, CODE
  1 .exceptions   00000124  01000020  00100000  00001020  2**2
                  CONTENTS, ALLOC, LOAD, READONLY, CODE
  2 .text         0000b6b4  00100124  00100124  00002124  2**2
                  CONTENTS, ALLOC, LOAD, READONLY, CODE
  3 .rodata       00000300  0010b7d8  0010b7d8  0000d7d8  2**2
                  CONTENTS, ALLOC, LOAD, READONLY, DATA
  4 .rwdata       00001afc  0010bad8  0010d5d4  0000dad8  2**2
                  CONTENTS, ALLOC, LOAD, DATA, SMALL_DATA
  5 .bss          0000a0e0  0010f0d0  0010f0d0  000100d0  2**2
                  ALLOC, SMALL_DATA
  6 .comment      00000026  00000000  00000000  00010020  2**0
                  CONTENTS, READONLY
  7 .debug_aranges 00000c98  00000000  00000000  00010048  2**3
                  CONTENTS, READONLY, DEBUGGING
  8 .debug_pubnames 00002011  00000000  00000000  00010ce0  2**0
                  CONTENTS, READONLY, DEBUGGING
  9 .debug_info   00025c68  00000000  00000000  00012cf1  2**0
                  CONTENTS, READONLY, DEBUGGING
 10 .debug_abbrev 00008ab7  00000000  00000000  00038959  2**0
                  CONTENTS, READONLY, DEBUGGING
 11 .debug_line   000170a6  00000000  00000000  00041410  2**0
                  CONTENTS, READONLY, DEBUGGING
 12 .debug_frame  00001df4  00000000  00000000  000584b8  2**2
                  CONTENTS, READONLY, DEBUGGING
 13 .debug_str    00003a5d  00000000  00000000  0005a2ac  2**0
                  CONTENTS, READONLY, DEBUGGING
 14 .debug_loc    0000a20f  00000000  00000000  0005dd09  2**0
                  CONTENTS, READONLY, DEBUGGING
 15 .debug_alt_sim_info 00000010  00000000  00000000  00067f18  2**2
                  CONTENTS, READONLY, DEBUGGING
 16 .debug_ranges 00000aa8  00000000  00000000  00067f28  2**3
                  CONTENTS, READONLY, DEBUGGING
 17 .thread_model 00000006  00000000  00000000  0006ceda  2**0
                  CONTENTS, READONLY
 18 .cpu          00000005  00000000  00000000  0006cee0  2**0
                  CONTENTS, READONLY
 19 .qsys         00000001  00000000  00000000  0006cee5  2**0
                  CONTENTS, READONLY
 20 .simulation_enabled 00000001  00000000  00000000  0006cee6  2**0
                  CONTENTS, READONLY
 21 .stderr_dev   0000000b  00000000  00000000  0006cee7  2**0
                  CONTENTS, READONLY
 22 .stdin_dev    0000000b  00000000  00000000  0006cef2  2**0
                  CONTENTS, READONLY
 23 .stdout_dev   0000000b  00000000  00000000  0006cefd  2**0
                  CONTENTS, READONLY
 24 .sopc_system_name 0000000f  00000000  00000000  0006cf08  2**0
                  CONTENTS, READONLY
 25 .jdi          0000509f  00000000  00000000  0006cf17  2**0
                  CONTENTS, READONLY
 26 .sopcinfo     0007119e  00000000  00000000  00071fb6  2**0
                  CONTENTS, READONLY
SYMBOL TABLE:
01000000 l    d  .entry	00000000 .entry
01000020 l    d  .exceptions	00000000 .exceptions
00100124 l    d  .text	00000000 .text
0010b7d8 l    d  .rodata	00000000 .rodata
0010bad8 l    d  .rwdata	00000000 .rwdata
0010f0d0 l    d  .bss	00000000 .bss
00000000 l    d  .comment	00000000 .comment
00000000 l    d  .debug_aranges	00000000 .debug_aranges
00000000 l    d  .debug_pubnames	00000000 .debug_pubnames
00000000 l    d  .debug_info	00000000 .debug_info
00000000 l    d  .debug_abbrev	00000000 .debug_abbrev
00000000 l    d  .debug_line	00000000 .debug_line
00000000 l    d  .debug_frame	00000000 .debug_frame
00000000 l    d  .debug_str	00000000 .debug_str
00000000 l    d  .debug_loc	00000000 .debug_loc
00000000 l    d  .debug_alt_sim_info	00000000 .debug_alt_sim_info
00000000 l    d  .debug_ranges	00000000 .debug_ranges
0010015c l       .text	00000000 alt_after_alt_main
00000000 l    df *ABS*	00000000 alt_irq_handler.c
00000000 l    df *ABS*	00000000 main.c
00000000 l    df *ABS*	00000000 impure.c
0010bad8 l     O .rwdata	00000400 impure_data
00000000 l    df *ABS*	00000000 memcpy.c
00000000 l    df *ABS*	00000000 putc.c
00000000 l    df *ABS*	00000000 puts.c
00000000 l    df *ABS*	00000000 strlen.c
00000000 l    df *ABS*	00000000 wbuf.c
00000000 l    df *ABS*	00000000 wsetup.c
00000000 l    df *ABS*	00000000 fflush.c
00000000 l    df *ABS*	00000000 findfp.c
00100c94 l     F .text	00000058 std
00100da0 l     F .text	00000008 __fp_lock
00100da8 l     F .text	00000008 __fp_unlock
00000000 l    df *ABS*	00000000 mallocr.c
00000000 l    df *ABS*	00000000 fvwrite.c
00000000 l    df *ABS*	00000000 fwalk.c
00000000 l    df *ABS*	00000000 makebuf.c
00000000 l    df *ABS*	00000000 mallocr.c
00000000 l    df *ABS*	00000000 memchr.c
00000000 l    df *ABS*	00000000 memmove.c
00000000 l    df *ABS*	00000000 memset.c
00000000 l    df *ABS*	00000000 mallocr.c
00000000 l    df *ABS*	00000000 sbrkr.c
00000000 l    df *ABS*	00000000 stdio.c
00000000 l    df *ABS*	00000000 writer.c
00000000 l    df *ABS*	00000000 closer.c
00000000 l    df *ABS*	00000000 fclose.c
00000000 l    df *ABS*	00000000 fstatr.c
00000000 l    df *ABS*	00000000 int_errno.c
00000000 l    df *ABS*	00000000 isattyr.c
00000000 l    df *ABS*	00000000 lseekr.c
00000000 l    df *ABS*	00000000 readr.c
00000000 l    df *ABS*	00000000 lib2-mul.c
00000000 l    df *ABS*	00000000 alt_close.c
001030dc l     F .text	00000020 alt_get_errno
00000000 l    df *ABS*	00000000 alt_dev.c
00103198 l     F .text	00000008 alt_dev_null_write
00000000 l    df *ABS*	00000000 alt_errno.c
00000000 l    df *ABS*	00000000 alt_fstat.c
00000000 l    df *ABS*	00000000 alt_isatty.c
00000000 l    df *ABS*	00000000 alt_load.c
001032d0 l     F .text	00000020 alt_load_section
00000000 l    df *ABS*	00000000 alt_lseek.c
00000000 l    df *ABS*	00000000 alt_main.c
00000000 l    df *ABS*	00000000 alt_read.c
001034bc l     F .text	00000020 alt_get_errno
00000000 l    df *ABS*	00000000 alt_release_fd.c
00000000 l    df *ABS*	00000000 alt_sbrk.c
0010d548 l     O .rwdata	00000004 heap_end
00000000 l    df *ABS*	00000000 alt_write.c
00103640 l     F .text	00000020 alt_get_errno
00000000 l    df *ABS*	00000000 alt_env_lock.c
0010f0fc l     O .bss	00000004 locks
0010d54c l     O .rwdata	00000004 lockid
00000000 l    df *ABS*	00000000 alt_malloc_lock.c
0010f104 l     O .bss	00000004 locks
0010d550 l     O .rwdata	00000004 lockid
00000000 l    df *ABS*	00000000 os_core.c
00000000 l    df *ABS*	00000000 os_dbg.c
00000000 l    df *ABS*	00000000 os_flag.c
001049e8 l     F .text	000000b8 OS_FlagBlock
00104adc l     F .text	00000090 OS_FlagTaskRdy
00000000 l    df *ABS*	00000000 os_mem.c
00000000 l    df *ABS*	00000000 os_q.c
00000000 l    df *ABS*	00000000 os_sem.c
00000000 l    df *ABS*	00000000 os_task.c
00000000 l    df *ABS*	00000000 os_time.c
00000000 l    df *ABS*	00000000 os_tmr.c
00107b8c l     F .text	00000068 OSTmr_Free
00107bf4 l     F .text	000000a0 OSTmr_Link
00107c94 l     F .text	00000064 OSTmr_Unlink
00107e94 l     F .text	000000c0 OSTmr_Task
00107e58 l     F .text	0000002c OSTmr_Lock
00107e84 l     F .text	00000010 OSTmr_Unlock
00000000 l    df *ABS*	00000000 alt_sys_init.c
00108720 l     F .text	0000000c alt_dev_reg
0010c488 l     O .rwdata	0000106c jtag_uart_0
0010d4f4 l     O .rwdata	0000002c DE2_LCD
00000000 l    df *ABS*	00000000 altera_avalon_jtag_uart_fd.c
00000000 l    df *ABS*	00000000 altera_avalon_jtag_uart_init.c
00108830 l     F .text	00000088 altera_avalon_jtag_uart_timeout
00108980 l     F .text	0000016c altera_avalon_jtag_uart_irq
00000000 l    df *ABS*	00000000 altera_avalon_jtag_uart_ioctl.c
00000000 l    df *ABS*	00000000 altera_avalon_jtag_uart_read.c
00000000 l    df *ABS*	00000000 altera_avalon_jtag_uart_write.c
00000000 l    df *ABS*	00000000 altera_avalon_timer_sc.c
00108f1c l     F .text	0000003c alt_avalon_timer_sc_irq
00000000 l    df *ABS*	00000000 altera_up_avalon_character_lcd.c
00000000 l    df *ABS*	00000000 alt_alarm_start.c
00000000 l    df *ABS*	00000000 alt_dcache_flush_all.c
00000000 l    df *ABS*	00000000 alt_dev_llist_insert.c
00000000 l    df *ABS*	00000000 alt_do_ctors.c
00000000 l    df *ABS*	00000000 alt_do_dtors.c
00000000 l    df *ABS*	00000000 alt_find_dev.c
00000000 l    df *ABS*	00000000 alt_icache_flush_all.c
00000000 l    df *ABS*	00000000 alt_iic.c
00000000 l    df *ABS*	00000000 alt_iic_isr_register.c
00000000 l    df *ABS*	00000000 alt_io_redirect.c
001094a8 l     F .text	00000088 alt_open_fd
00000000 l    df *ABS*	00000000 alt_irq_vars.c
00000000 l    df *ABS*	00000000 alt_open.c
00000000 l    df *ABS*	00000000 alt_tick.c
00000000 l    df *ABS*	00000000 altera_nios2_qsys_irq.c
00000040 l       *ABS*	00000000 OSCtxSw_SWITCH_PC
00000000 l    df *ABS*	00000000 os_cpu_c.c
0010f180 l     O .bss	00000002 OSTmrCtr
00000014 l       *ABS*	00000000 OSTCBNext_OFFSET
00000032 l       *ABS*	00000000 OSTCBPrio_OFFSET
00000000 l       *ABS*	00000000 OSTCBStkPtr_OFFSET
00000000 l    df *ABS*	00000000 alt_find_file.c
00000000 l    df *ABS*	00000000 alt_get_fd.c
00000000 l    df *ABS*	00000000 atexit.c
00000000 l    df *ABS*	00000000 exit.c
00000000 l    df *ABS*	00000000 memcmp.c
00000000 l    df *ABS*	00000000 __atexit.c
00000000 l    df *ABS*	00000000 __call_atexit.c
00109e4c l     F .text	00000004 register_fini
00000000 l    df *ABS*	00000000 libgcc2.c
00000000 l    df *ABS*	00000000 dp-bit.c
0010a0a4 l     F .text	00000410 _fpadd_parts
00000000 l    df *ABS*	00000000 dp-bit.c
00000000 l    df *ABS*	00000000 dp-bit.c
00000000 l    df *ABS*	00000000 dp-bit.c
00000000 l    df *ABS*	00000000 dp-bit.c
00000000 l    df *ABS*	00000000 dp-bit.c
00000000 l    df *ABS*	00000000 dp-bit.c
00000000 l    df *ABS*	00000000 dp-bit.c
00000000 l    df *ABS*	00000000 lib2-divmod.c
0010afb0 l     F .text	0000007c udivmodsi4
00000000 l    df *ABS*	00000000 libgcc2.c
00000000 l    df *ABS*	00000000 libgcc2.c
00000000 l    df *ABS*	00000000 dp-bit.c
00000000 l    df *ABS*	00000000 dp-bit.c
00000000 l    df *ABS*	00000000 dp-bit.c
00000000 l    df *ABS*	00000000 libgcc2.c
00000000 l    df *ABS*	00000000 alt_exit.c
0010d59e g     O .rwdata	00000002 OSTaskNameSize
00102f44 g     F .text	00000070 _isatty_r
00103414 g     F .text	000000a8 alt_main
001006b4 g     F .text	000000a0 _puts_r
0010f10c g     O .bss	00000004 OSTmrFreeList
00118f20 g     O .bss	00000100 alt_irq
00102fb4 g     F .text	00000078 _lseek_r
00105644 g     F .text	00000068 OS_MemInit
0010d5d4 g       *ABS*	00000000 __flash_rwdata_start
00107814 g     F .text	00000024 OSTimeSet
00108fe0 g     F .text	00000010 alt_up_character_lcd_send_cmd
001151ac g     O .bss	00000010 OSTmrWheelTbl
00104080 g     F .text	00000358 OSEventPendMulti
001191b0 g       *ABS*	00000000 __alt_heap_start
001098f0 g     F .text	00000004 OSTaskCreateHook
0010f1ac g     O .bss	00002000 task1_stk
0010f0d0 g     O .bss	00000004 sem_task1
0010d576 g     O .rwdata	00000002 OSMboxEn
001043d8 g     F .text	0000003c OSIntEnter
00100000 g       *ABS*	00000000 __alt_mem_sram
00102b80 g     F .text	00000068 __sseek
00100cfc g     F .text	000000a4 __sinit
001007dc g     F .text	00000130 __swbuf_r
0010d586 g     O .rwdata	00000002 OSQEn
00100dfc g     F .text	0000009c __sfmoreglue
001037bc g     F .text	0000005c __malloc_unlock
001098fc g     F .text	00000004 OSTaskStatHook
0010f110 g     O .bss	00000001 OSLockNesting
0010f114 g     O .bss	00000004 OSTmrSemSignal
0010d5c4 g     O .rwdata	00000002 OSDataSize
0010f118 g     O .bss	00000001 OSRunning
0010239c g     F .text	000000e0 memmove
00109900 g     F .text	00000008 OSInitHookBegin
0010d5bc g     O .rwdata	00000002 OSTmrSize
00100dec g     F .text	00000010 _cleanup
0010f11c g     O .bss	00000004 OSIdleCtr
001098cc g       .text	00000000 OSStartTsk
00000000  w      *UND*	00000000 __errno
00108f58 g     F .text	00000018 get_DDRAM_addr
001046d0 g     F .text	00000184 OS_TCBInit
01000000 g     F .entry	0000000c __reset
0010f120 g     O .bss	00000002 OSTmrUsed
0010d5c2 g     O .rwdata	00000002 OSTmrWheelTblSize
00100000 g       *ABS*	00000000 __flash_exceptions_start
0010d562 g     O .rwdata	00000002 OSEventSize
0010f122 g     O .bss	00000001 OSPrioHighRdy
00102ed0 g     F .text	00000074 _fstat_r
001098f4 g     F .text	00000004 OSTaskDelHook
0010f0e8 g     O .bss	00000004 errno
001098ac g       .text	00000000 OSStartHighRdy
00106e40 g     F .text	00000178 OSTaskCreateExt
00105424 g     F .text	0000002c OSFlagPendGetFlagsRdy
0010d5a2 g     O .rwdata	00000002 OSTaskStatStkSize
00104c38 g     F .text	00000170 OSFlagAccept
00105e04 g     F .text	00000050 OSQFlush
00105ae4 g     F .text	0000009c OSQAccept
0010f0f4 g     O .bss	00000004 alt_argv
00115520 g       *ABS*	00000000 _gp
00106d34 g     F .text	0000010c OSTaskCreate
00106a98 g     F .text	0000029c OSTaskChangePrio
0010f108 g     O .bss	00000004 alt_heapsem
001049e4 g     F .text	00000004 OSDebugInit
00106fb8 g     F .text	0000024c OSTaskDel
0010c308 g     O .rwdata	00000180 alt_fd_list
001151bc g     O .bss	00000370 OSFlagTbl
001039fc g     F .text	0000004c OS_EventTaskRemove
0010932c g     F .text	00000070 alt_find_dev
00100428 g     F .text	000000a0 memcpy
0010d58c g     O .rwdata	00000002 OSRdyTblSize
00108fb0 g     F .text	00000020 alt_up_character_lcd_write_fd
0011552c g     O .bss	00000340 OSTmrTbl
00100de0 g     F .text	0000000c _cleanup_r
0010ac4c g     F .text	000000f8 __floatsidf
00109530 g     F .text	0000008c alt_io_redirect
0010b7d8 g       *ABS*	00000000 __DTOR_END__
00100754 g     F .text	00000014 puts
00103fc8 g     F .text	000000b8 OSEventNameGet
0010d570 g     O .rwdata	00000002 OSFlagMax
00104854 g     F .text	000000d4 OSIntExit
0010d5aa g     O .rwdata	00000002 OSTCBSize
0010f123 g     O .bss	00000001 OSPrioCur
00108b68 g     F .text	000001ac altera_avalon_jtag_uart_read
00000000  w      *UND*	00000000 malloc
0010b0ec g     F .text	00000008 __udivsi3
0010323c g     F .text	00000094 isatty
0010d590 g     O .rwdata	00000002 OSStkWidth
0010d584 g     O .rwdata	00000002 OSPtrSize
0010d564 g     O .rwdata	00000002 OSEventTblSize
0010a000 g     F .text	000000a4 __fixunsdfsi
00109820 g       .text	00000000 OSCtxSw
0010f0dc g     O .bss	00000004 __malloc_top_pad
0010f124 g     O .bss	00000004 OSTCBList
00108470 g     F .text	00000028 OSTmrSignal
0010f0ec g     O .bss	00000004 alt_fd_list_lock
001013c8 g     F .text	0000049c __sfvwrite_r
0011586c g     O .bss	00000c30 OSMemTbl
0010f128 g     O .bss	00000001 OSTickStepState
00102b08 g     F .text	00000070 _sbrk_r
0010d588 g     O .rwdata	00000002 OSQMax
0011649c g     O .bss	00000800 OSTaskStatStk
0010584c g     F .text	0000009c OSMemNameGet
0010d568 g     O .rwdata	00000002 OSFlagEn
0010302c g     F .text	00000078 _read_r
0010d5ae g     O .rwdata	00000002 OSTimeTickHookEn
001060fc g     F .text	000000bc OSQPost
00104aa0 g     F .text	0000003c OS_FlagUnlink
0010d540 g     O .rwdata	00000004 alt_max_fd
00103bd0 g     F .text	00000024 OS_MemCopy
0010b5b4 g     F .text	00000138 __unpack_d
00103cc4 g     F .text	000000b8 OS_Sched
00102dac g     F .text	00000110 _fclose_r
001057e0 g     F .text	0000006c OSMemGet
001073c0 g     F .text	0000011c OSTaskNameSet
00100c60 g     F .text	00000034 fflush
0010f0e0 g     O .bss	00000004 __malloc_max_sbrked_mem
0010f12c g     O .bss	00000004 OSCtxSwCtr
00109914 g     F .text	00000058 OSTimeTickHook
0010d572 g     O .rwdata	00000002 OSFlagNameSize
00103a48 g     F .text	0000005c OS_EventTaskRemoveMulti
0010a534 g     F .text	00000074 __adddf3
0010395c g     F .text	000000a0 OS_EventTaskWaitMulti
0010d58a g     O .rwdata	00000002 OSQSize
0010335c g     F .text	000000b8 lseek
00106648 g     F .text	00000168 OSSemPend
0010d524 g     O .rwdata	00000004 _global_impure_ptr
00102514 g     F .text	000005f4 _realloc_r
0010d574 g     O .rwdata	00000002 OSLowestPrio
001191b0 g       *ABS*	00000000 __bss_end
0010943c g     F .text	0000006c alt_iic_isr_register
00109910 g     F .text	00000004 OSTCBInitHook
0010d5ba g     O .rwdata	00000002 OSTmrCfgTicksPerSec
0010976c g     F .text	000000ac alt_tick
0010d55c g     O .rwdata	00000002 OSEventEn
0010d5b6 g     O .rwdata	00000002 OSTmrCfgNameSize
0010ae1c g     F .text	00000194 __floatunsidf
00100dc8 g     F .text	00000018 __fp_lock_all
001093a0 g     F .text	00000018 alt_ic_irq_enabled
0010f130 g     O .bss	00000002 OSTmrFree
00104b6c g     F .text	00000070 OS_FlagInit
00109738 g     F .text	00000034 alt_alarm_stop
00108374 g     F .text	000000fc OSTmrDel
0010d598 g     O .rwdata	00000002 OSTaskIdleStkSize
00100308 g     F .text	00000048 statisticTask
0010f174 g     O .bss	00000004 alt_irq_active
00106424 g     F .text	00000044 OSSemAccept
001059a4 g     F .text	00000058 OSMemPut
00105710 g     F .text	000000d0 OSMemCreate
0010f134 g     O .bss	00000004 OSIdleCtrMax
010000ec g     F .exceptions	00000058 alt_irq_handler
0010c2e0 g     O .rwdata	00000028 alt_dev_null
0010d5ac g     O .rwdata	00000002 OSTicksPerSec
00108ff0 g     F .text	00000008 alt_up_character_lcd_cursor_blink_on
00109820 g       .text	00000000 OSIntCtxSw
00109238 g     F .text	00000004 alt_dcache_flush_all
0010ad44 g     F .text	000000d8 __fixdfsi
001111ac g     O .bss	00002000 stat_stk
0010f138 g     O .bss	00000004 OSTCBFreeList
0010d5d4 g       *ABS*	00000000 __ram_rwdata_end
001067b0 g     F .text	000000ec OSSemPendAbort
00000000 g       *ABS*	00000000 __alt_mem_onchip_memory
0010d538 g     O .rwdata	00000008 alt_dev_list
00103660 g     F .text	000000b4 write
001005cc g     F .text	000000e8 _putc_r
0010d5b0 g     O .rwdata	00000002 OSVersionNbr
0010bad8 g       *ABS*	00000000 __ram_rodata_end
001031a0 g     F .text	0000009c fstat
0010825c g     F .text	00000118 OSTmrRemainGet
0010d558 g     O .rwdata	00000004 OSEndiannessTest
0010b0f4 g     F .text	00000008 __umodsi3
0010d56a g     O .rwdata	00000002 OSFlagGrpSize
001081b4 g     F .text	000000a8 OSTmrStateGet
001191b0 g       *ABS*	00000000 end
001088b8 g     F .text	000000c8 altera_avalon_jtag_uart_init
0010464c g     F .text	00000084 OS_TaskStat
0010b7d4 g       *ABS*	00000000 __CTOR_LIST__
00180000 g       *ABS*	00000000 __alt_stack_pointer
00108ecc g     F .text	00000050 alt_avalon_timer_sc_init
0010b220 g     F .text	00000080 __clzsi2
00108d14 g     F .text	000001b8 altera_avalon_jtag_uart_write
00107cf8 g     F .text	00000160 OSTmr_Init
00100cec g     F .text	00000004 __sfp_lock_acquire
001022b8 g     F .text	000000e4 memchr
00103bb4 g     F .text	0000001c OS_MemClr
00108f8c g     F .text	00000024 alt_up_character_lcd_write
0010996c g     F .text	000001ac OSTaskStkInit
0010019c g     F .text	000000a8 task1
001010b4 g     F .text	00000314 _free_r
00103aa4 g     F .text	000000f4 OS_EventTaskRdy
00109e50 g     F .text	000001b0 __call_exitprocs
0010f13c g     O .bss	00000001 OSCPUUsage
0010d52c g     O .rwdata	00000004 __malloc_sbrk_base
00100124 g     F .text	0000003c _start
00100244 g     F .text	000000c4 task2
0010f178 g     O .bss	00000004 _alt_tick_rate
00105e54 g     F .text	000001c0 OSQPend
00107838 g     F .text	00000098 OSTimeDly
0010f17c g     O .bss	00000004 _alt_nticks
001034dc g     F .text	000000b8 read
0010872c g     F .text	00000070 alt_sys_init
00109064 g     F .text	00000070 alt_up_character_lcd_shift_display
00109d18 g     F .text	00000134 __register_exitproc
0010f13d g     O .bss	00000001 OSTaskCtr
001078d0 g     F .text	000001a0 OSTimeDlyHMSM
00109000 g     F .text	00000064 alt_up_character_lcd_erase_pos
001087f8 g     F .text	00000038 altera_avalon_jtag_uart_close
001030a4 g     F .text	00000038 __mulsi3
0010bad8 g       *ABS*	00000000 __ram_rwdata_start
0010b7d8 g       *ABS*	00000000 __ram_rodata_start
0010f184 g     O .bss	00000028 __malloc_current_mallinfo
0010d55e g     O .rwdata	00000002 OSEventMax
0010689c g     F .text	0000009c OSSemPost
00104458 g     F .text	00000054 OSSchedUnlock
001087e8 g     F .text	00000010 altera_avalon_jtag_uart_read_fd
00109bb4 g     F .text	000000a4 alt_get_fd
0010f140 g     O .bss	00000004 OSMemFreeList
001044ac g     F .text	00000064 OSStatInit
00104bdc g     F .text	0000005c OSFlagQuery
0010b6ec g     F .text	000000c8 __fpcmp_parts_d
0010d594 g     O .rwdata	00000002 OSTaskCreateExtEn
00102d3c g     F .text	00000070 _close_r
00109ca4 g     F .text	00000074 memcmp
001038d4 g     F .text	00000004 OS_Dummy
001087c8 g     F .text	00000010 altera_avalon_jtag_uart_close_fd
001191b0 g       *ABS*	00000000 __alt_stack_base
001087bc g     F .text	0000000c altera_avalon_jtag_uart_ioctl_fd
00100928 g     F .text	0000013c __swsetup_r
00116c9c g     O .bss	000001e0 OSQTbl
0010a96c g     F .text	00000258 __divdf3
00100e98 g     F .text	000000f0 __sfp
0010bed8 g     O .rwdata	00000408 __malloc_av_
00100cf8 g     F .text	00000004 __sinit_lock_release
0010a5a8 g     F .text	000003c4 __muldf3
0010f144 g     O .bss	00000004 OSTCBHighRdy
00102c64 g     F .text	00000060 __sread
0010f148 g     O .bss	00000004 OSQFreeList
00109b18 g     F .text	0000009c alt_find_file
0010923c g     F .text	00000070 alt_dev_llist_insert
00103818 g     F .text	000000b4 __malloc_lock
001035f0 g     F .text	00000050 sbrk
00104928 g     F .text	000000bc OSEventNameSet
00100a64 g     F .text	000001fc _fflush_r
0010f14c g     O .bss	00000001 OSRdyGrp
001080b0 g     F .text	00000104 OSTmrStart
0010f0d0 g       *ABS*	00000000 __bss_start
0010247c g     F .text	00000098 memset
0010f0d4 g     O .bss	00000001 err
00100350 g     F .text	000000d8 main
0010f0f8 g     O .bss	00000004 alt_envp
0010f0e4 g     O .bss	00000004 __malloc_max_total_mem
001087d8 g     F .text	00000010 altera_avalon_jtag_uart_write_fd
0010090c g     F .text	0000001c __swbuf
0010b87a g     O .rodata	00000100 OSUnMapTbl
0010d58e g     O .rwdata	00000002 OSSemEn
001090d4 g     F .text	00000070 alt_up_character_lcd_shift_cursor
00105450 g     F .text	000001f4 OSFlagPost
00102b78 g     F .text	00000008 __sclose
00180000 g       *ABS*	00000000 __alt_heap_limit
00102ebc g     F .text	00000014 fclose
001038d8 g     F .text	00000084 OS_EventTaskWait
001131ac g     O .bss	00002000 task2_stk
00103c40 g     F .text	00000084 OS_TaskStatStkChk
00119020 g     O .bss	00000190 _atexit0
00107204 g     F .text	000000b4 OSTaskDelReq
00101b78 g     F .text	00000740 _malloc_r
0010d544 g     O .rwdata	00000004 alt_errno
00103d7c g     F .text	0000006c OSStart
00103714 g     F .text	00000028 __env_unlock
0010f0d8 g     O .bss	00000004 sem_task0
0010192c g     F .text	000000b8 _fwalk
001074dc g     F .text	00000104 OSTaskResume
001056ac g     F .text	00000064 OSMemQuery
0010d5a0 g     O .rwdata	00000002 OSTaskStatEn
0010d57a g     O .rwdata	00000002 OSMemMax
001061b8 g     F .text	000000c4 OSQPostFront
001004c8 g     F .text	00000104 putc
0010b02c g     F .text	00000060 __divsi3
0010f14d g     O .bss	00000003 OSRdyTbl
0010d554 g     O .rwdata	00000002 OSDebugEn
0010b9c4 g     O .rodata	00000014 __thenan_df
0010919c g     F .text	0000000c alt_up_character_lcd_open_dev
00100f88 g     F .text	0000012c _malloc_trim_r
0010b7d8 g       *ABS*	00000000 __CTOR_END__
0010d56c g     O .rwdata	00000002 OSFlagNodeSize
0010d5b4 g     O .rwdata	00000002 OSTmrCfgMax
00108fd0 g     F .text	00000010 alt_up_character_lcd_init
00105b80 g     F .text	00000100 OSQCreate
001072b8 g     F .text	00000108 OSTaskNameGet
0010b7d8 g       *ABS*	00000000 __flash_rodata_start
0010627c g     F .text	00000144 OSQPostOpt
00104510 g     F .text	0000010c OSTimeTick
0010d59c g     O .rwdata	00000002 OSTaskMax
0010b7d8 g       *ABS*	00000000 __DTOR_LIST__
00106468 g     F .text	0000008c OSSemCreate
0010d5c0 g     O .rwdata	00000002 OSTmrWheelSize
0010d596 g     O .rwdata	00000002 OSTaskDelEn
00106938 g     F .text	00000068 OSSemQuery
00105c80 g     F .text	00000184 OSQDel
00106014 g     F .text	000000e8 OSQPendAbort
0010879c g     F .text	00000020 alt_irq_init
00103594 g     F .text	0000005c alt_release_fd
00108ff8 g     F .text	00000008 alt_up_character_lcd_cursor_off
0010b9d8 g     O .rodata	00000100 __clz_tab
00107f54 g     F .text	0000015c OSTmrStop
00109c58 g     F .text	00000014 atexit
00102cc4 g     F .text	00000078 _write_r
00104414 g     F .text	00000044 OSSchedLock
00116e7c g     O .bss	00000800 OSTmrTaskStk
00104da8 g     F .text	00000088 OSFlagCreate
0010d520 g     O .rwdata	00000004 _impure_ptr
0010f0f0 g     O .bss	00000004 alt_argc
001092ec g     F .text	00000040 _do_dtors
0010d566 g     O .rwdata	00000002 OSEventMultiEn
00108584 g     F .text	0000019c OSTmrCreate
00104e30 g     F .text	00000160 OSFlagDel
0010f150 g     O .bss	00000004 OSEventFreeList
01000020 g       .exceptions	00000000 alt_irq_entry
00105124 g     F .text	00000300 OSFlagPend
0010d5b2 g     O .rwdata	00000002 OSTmrEn
00100db0 g     F .text	00000018 __fp_unlock_all
0010d530 g     O .rwdata	00000008 alt_fs_list
00108498 g     F .text	000000ec OSTmrNameGet
00103bf4 g     F .text	0000002c OS_StrCopy
00100160 g     F .text	0000003c printStackSize
0010d57c g     O .rwdata	00000002 OSMemNameSize
00109908 g     F .text	00000004 OSInitHookEnd
01000020 g       *ABS*	00000000 __ram_exceptions_start
0010d5a8 g     O .rwdata	00000002 OSTCBPrioTblMax
0010d5a4 g     O .rwdata	00000002 OSTaskStatStkChkEn
00109438 g     F .text	00000004 alt_ic_isr_register
0010d578 g     O .rwdata	00000002 OSMemEn
0010d582 g     O .rwdata	00000002 OSMutexEn
0010d5d4 g       *ABS*	00000000 _edata
001191b0 g       *ABS*	00000000 _end
0010f154 g     O .bss	00000001 OSIntNesting
01000144 g       *ABS*	00000000 __ram_exceptions_end
00108aec g     F .text	0000007c altera_avalon_jtag_uart_ioctl
00107a70 g     F .text	000000f8 OSTimeDlyResume
00105050 g     F .text	000000d4 OSFlagNameSet
001075e0 g     F .text	000000f0 OSTaskStkChk
001093f8 g     F .text	00000040 alt_ic_irq_disable
0010d57e g     O .rwdata	00000002 OSMemSize
00102be8 g     F .text	0000007c __swrite
0010d528 g     O .rwdata	00000004 __malloc_trim_threshold
00109818 g     F .text	00000008 altera_nios2_qsys_irq_init
0010f158 g     O .bss	00000004 OSTCBCur
00109c6c g     F .text	00000038 exit
0010d580 g     O .rwdata	00000002 OSMemTblSize
00101864 g     F .text	000000c8 _fwalk_reent
0010b08c g     F .text	00000060 __modsi3
00180000 g       *ABS*	00000000 __alt_data_end
01000020 g     F .exceptions	00000000 alt_exception
00100cf0 g     F .text	00000004 __sfp_lock_release
00103de8 g     F .text	000001e0 OSInit
0010f15c g     O .bss	00000004 OSTmrTime
01000000 g       *ABS*	00000000 __alt_mem_sdram
001069d0 g     F .text	000000c8 OSTaskQuery
00108f70 g     F .text	0000001c alt_up_character_lcd_string
001059fc g     F .text	00000050 OS_QInit
00103c20 g     F .text	00000020 OS_StrLen
001058e8 g     F .text	000000bc OSMemNameSet
0010d59a g     O .rwdata	00000002 OSTaskProfileEn
0010f160 g     O .bss	00000004 OSTime
0010f164 g     O .bss	00000004 OSTmrSem
0011767c g     O .bss	00000800 OSTaskIdleStk
0010b7b4 g     F .text	00000020 _exit
001091a8 g     F .text	00000090 alt_alarm_start
00104f90 g     F .text	000000c0 OSFlagNameGet
00107b68 g     F .text	00000024 OSTimeGet
0010b0fc g     F .text	00000124 __muldi3
001019e4 g     F .text	00000194 __smakebuf_r
00100768 g     F .text	00000074 strlen
001098f8 g     F .text	00000004 OSTaskSwHook
001095bc g     F .text	0000017c open
00117e7c g     O .bss	00000b40 OSEventTbl
0010abc4 g     F .text	00000088 __gedf2
001189bc g     O .bss	00000510 OSTCBTbl
001063c0 g     F .text	00000064 OSSemSet
0010939c g     F .text	00000004 alt_icache_flush_all
00109144 g     F .text	00000058 alt_up_character_lcd_set_cursor_pos
0010d5c8 g     O .rwdata	00000004 alt_priority_mask
001064f4 g     F .text	00000154 OSSemDel
0010f168 g     O .bss	00000004 OSFlagFreeList
001093b8 g     F .text	00000040 alt_ic_irq_enable
0010d560 g     O .rwdata	00000002 OSEventNameSize
0010f16c g     O .bss	00000001 OSStatRdy
00118ecc g     O .bss	00000054 OSTCBPrioTbl
0010373c g     F .text	00000080 __env_lock
0010d5a6 g     O .rwdata	00000002 OSTaskSwHookEn
0010a4b4 g     F .text	00000080 __subdf3
0010d5cc g     O .rwdata	00000008 alt_alarm_list
0010d56e g     O .rwdata	00000002 OSFlagWidth
001092ac g     F .text	00000040 _do_ctors
001030fc g     F .text	0000009c close
0010f100 g     O .bss	00000004 alt_envsem
0010f170 g     O .bss	00000004 OSIdleCtrRun
001038cc g     F .text	00000008 OSVersion
0010d5b8 g     O .rwdata	00000002 OSTmrCfgWheelSize
001032f0 g     F .text	0000006c alt_load
001069a0 g     F .text	00000030 OS_TaskStkClr
0010b2a0 g     F .text	00000314 __pack_d
0010d592 g     O .rwdata	00000002 OSTaskCreateEn
00103b98 g     F .text	0000001c OS_EventWaitListInit
0010990c g     F .text	00000004 OSTaskIdleHook
00000000  w      *UND*	00000000 free
00100cf4 g     F .text	00000004 __sinit_lock_acquire
001076d0 g     F .text	00000144 OSTaskSuspend
0010461c g     F .text	00000030 OS_TaskIdle
0010d5be g     O .rwdata	00000002 OSTmrTblSize
00105a4c g     F .text	00000098 OSQQuery



Disassembly of section .entry:

01000000 <__reset>:
 1000000:	00400434 	movhi	at,16
 1000004:	08404914 	ori	at,at,292
 1000008:	0800683a 	jmp	at
	...

Disassembly of section .exceptions:

01000020 <alt_exception>:
 1000020:	deffed04 	addi	sp,sp,-76
 1000024:	dfc00015 	stw	ra,0(sp)
 1000028:	d8400215 	stw	at,8(sp)
 100002c:	d8800315 	stw	r2,12(sp)
 1000030:	d8c00415 	stw	r3,16(sp)
 1000034:	d9000515 	stw	r4,20(sp)
 1000038:	d9400615 	stw	r5,24(sp)
 100003c:	d9800715 	stw	r6,28(sp)
 1000040:	d9c00815 	stw	r7,32(sp)
 1000044:	000b307a 	rdctl	r5,estatus
 1000048:	da000915 	stw	r8,36(sp)
 100004c:	da400a15 	stw	r9,40(sp)
 1000050:	da800b15 	stw	r10,44(sp)
 1000054:	dac00c15 	stw	r11,48(sp)
 1000058:	db000d15 	stw	r12,52(sp)
 100005c:	db400e15 	stw	r13,56(sp)
 1000060:	db800f15 	stw	r14,60(sp)
 1000064:	dbc01015 	stw	r15,64(sp)
 1000068:	d9401115 	stw	r5,68(sp)
 100006c:	ebffff04 	addi	r15,ea,-4
 1000070:	dbc01215 	stw	r15,72(sp)
 1000074:	0009313a 	rdctl	r4,ipending
 1000078:	2880004c 	andi	r2,r5,1
 100007c:	10000326 	beq	r2,zero,100008c <alt_exception+0x6c>
 1000080:	20000226 	beq	r4,zero,100008c <alt_exception+0x6c>
 1000084:	10000ec0 	call	10000ec <alt_irq_handler>
 1000088:	00000306 	br	1000098 <alt_exception+0x78>
 100008c:	df401215 	stw	ea,72(sp)
 1000090:	e8bfff17 	ldw	r2,-4(ea)
 1000094:	003da03a 	break	0
 1000098:	d9401117 	ldw	r5,68(sp)
 100009c:	df401217 	ldw	ea,72(sp)
 10000a0:	dfc00017 	ldw	ra,0(sp)
 10000a4:	2801707a 	wrctl	estatus,r5
 10000a8:	d8400217 	ldw	at,8(sp)
 10000ac:	d8800317 	ldw	r2,12(sp)
 10000b0:	d8c00417 	ldw	r3,16(sp)
 10000b4:	d9000517 	ldw	r4,20(sp)
 10000b8:	d9400617 	ldw	r5,24(sp)
 10000bc:	d9800717 	ldw	r6,28(sp)
 10000c0:	d9c00817 	ldw	r7,32(sp)
 10000c4:	da000917 	ldw	r8,36(sp)
 10000c8:	da400a17 	ldw	r9,40(sp)
 10000cc:	da800b17 	ldw	r10,44(sp)
 10000d0:	dac00c17 	ldw	r11,48(sp)
 10000d4:	db000d17 	ldw	r12,52(sp)
 10000d8:	db400e17 	ldw	r13,56(sp)
 10000dc:	db800f17 	ldw	r14,60(sp)
 10000e0:	dbc01017 	ldw	r15,64(sp)
 10000e4:	dec01304 	addi	sp,sp,76
 10000e8:	ef80083a 	eret

010000ec <alt_irq_handler>:
 10000ec:	deffff04 	addi	sp,sp,-4
 10000f0:	dfc00015 	stw	ra,0(sp)
 10000f4:	01043d80 	call	1043d8 <OSIntEnter>
 10000f8:	0009313a 	rdctl	r4,ipending
 10000fc:	00c00044 	movi	r3,1
 1000100:	014004b4 	movhi	r5,18
 1000104:	2963c804 	addi	r5,r5,-28896
 1000108:	20c4703a 	and	r2,r4,r3
 100010c:	18c7883a 	add	r3,r3,r3
 1000110:	10000726 	beq	r2,zero,1000130 <alt_irq_handler+0x44>
 1000114:	29000117 	ldw	r4,4(r5)
 1000118:	28800017 	ldw	r2,0(r5)
 100011c:	103ee83a 	callr	r2
 1000120:	0005313a 	rdctl	r2,ipending
 1000124:	10000426 	beq	r2,zero,1000138 <alt_irq_handler+0x4c>
 1000128:	1009883a 	mov	r4,r2
 100012c:	003ff306 	br	10000fc <alt_irq_handler+0x10>
 1000130:	29400204 	addi	r5,r5,8
 1000134:	003ff406 	br	1000108 <alt_irq_handler+0x1c>
 1000138:	dfc00017 	ldw	ra,0(sp)
 100013c:	dec00104 	addi	sp,sp,4
 1000140:	01048541 	jmpi	104854 <OSIntExit>

Disassembly of section .text:

00100124 <_start>:
  100124:	06c00634 	movhi	sp,24
  100128:	dec00014 	ori	sp,sp,0
  10012c:	06800474 	movhi	gp,17
  100130:	d6954814 	ori	gp,gp,21792
  100134:	00800434 	movhi	r2,16
  100138:	10bc3414 	ori	r2,r2,61648
  10013c:	00c00474 	movhi	r3,17
  100140:	18e46c14 	ori	r3,r3,37296
  100144:	10c00326 	beq	r2,r3,100154 <_start+0x30>
  100148:	10000015 	stw	zero,0(r2)
  10014c:	10800104 	addi	r2,r2,4
  100150:	10fffd36 	bltu	r2,r3,100148 <_start+0x24>
  100154:	01032f00 	call	1032f0 <alt_load>
  100158:	01034140 	call	103414 <alt_main>

0010015c <alt_after_alt_main>:
  10015c:	003fff06 	br	10015c <alt_after_alt_main>

00100160 <printStackSize>:
  100160:	defff904 	addi	sp,sp,-28
  100164:	dfc00615 	stw	ra,24(sp)
  100168:	df000515 	stw	fp,20(sp)
  10016c:	df000504 	addi	fp,sp,20
  100170:	e13ffe15 	stw	r4,-8(fp)
  100174:	e17fff05 	stb	r5,-4(fp)
  100178:	e13fff03 	ldbu	r4,-4(fp)
  10017c:	e17ffc04 	addi	r5,fp,-16
  100180:	01075e00 	call	1075e0 <OSTaskStkChk>
  100184:	e0bffb05 	stb	r2,-20(fp)
  100188:	e037883a 	mov	sp,fp
  10018c:	dfc00117 	ldw	ra,4(sp)
  100190:	df000017 	ldw	fp,0(sp)
  100194:	dec00204 	addi	sp,sp,8
  100198:	f800283a 	ret

0010019c <task1>:
  10019c:	defff604 	addi	sp,sp,-40
  1001a0:	dfc00915 	stw	ra,36(sp)
  1001a4:	df000815 	stw	fp,32(sp)
  1001a8:	dc000715 	stw	r16,28(sp)
  1001ac:	df000704 	addi	fp,sp,28
  1001b0:	e13fff15 	stw	r4,-4(fp)
  1001b4:	e03ffa05 	stb	zero,-24(fp)
  1001b8:	d126ee17 	ldw	r4,-25672(gp)
  1001bc:	000b883a 	mov	r5,zero
  1001c0:	d1a6ed04 	addi	r6,gp,-25676
  1001c4:	01066480 	call	106648 <OSSemPend>
  1001c8:	00800474 	movhi	r2,17
  1001cc:	10adf604 	addi	r2,r2,-18472
  1001d0:	e13ffa44 	addi	r4,fp,-23
  1001d4:	100b883a 	mov	r5,r2
  1001d8:	01800484 	movi	r6,18
  1001dc:	01004280 	call	100428 <memcpy>
  1001e0:	e0bffa03 	ldbu	r2,-24(fp)
  1001e4:	10800c04 	addi	r2,r2,48
  1001e8:	e0bffe05 	stb	r2,-8(fp)
  1001ec:	e03ff915 	stw	zero,-28(fp)
  1001f0:	00000f06 	br	100230 <task1+0x94>
  1001f4:	e0fff917 	ldw	r3,-28(fp)
  1001f8:	e0bffa44 	addi	r2,fp,-23
  1001fc:	10c5883a 	add	r2,r2,r3
  100200:	10800003 	ldbu	r2,0(r2)
  100204:	11003fcc 	andi	r4,r2,255
  100208:	2100201c 	xori	r4,r4,128
  10020c:	213fe004 	addi	r4,r4,-128
  100210:	00800474 	movhi	r2,17
  100214:	10b54804 	addi	r2,r2,-10976
  100218:	10800017 	ldw	r2,0(r2)
  10021c:	11400217 	ldw	r5,8(r2)
  100220:	01004c80 	call	1004c8 <putc>
  100224:	e0bff917 	ldw	r2,-28(fp)
  100228:	10800044 	addi	r2,r2,1
  10022c:	e0bff915 	stw	r2,-28(fp)
  100230:	e43ff917 	ldw	r16,-28(fp)
  100234:	e13ffa44 	addi	r4,fp,-23
  100238:	01007680 	call	100768 <strlen>
  10023c:	80bfed36 	bltu	r16,r2,1001f4 <task1+0x58>
  100240:	003fdd06 	br	1001b8 <task1+0x1c>

00100244 <task2>:
  100244:	defff504 	addi	sp,sp,-44
  100248:	dfc00a15 	stw	ra,40(sp)
  10024c:	df000915 	stw	fp,36(sp)
  100250:	dc000815 	stw	r16,32(sp)
  100254:	df000804 	addi	fp,sp,32
  100258:	e13fff15 	stw	r4,-4(fp)
  10025c:	e03ff915 	stw	zero,-28(fp)
  100260:	d126ec17 	ldw	r4,-25680(gp)
  100264:	000b883a 	mov	r5,zero
  100268:	d1a6ed04 	addi	r6,gp,-25676
  10026c:	01066480 	call	106648 <OSSemPend>
  100270:	00800044 	movi	r2,1
  100274:	e0bff915 	stw	r2,-28(fp)
  100278:	00c00474 	movhi	r3,17
  10027c:	18edfb04 	addi	r3,r3,-18452
  100280:	18800017 	ldw	r2,0(r3)
  100284:	e0bffa15 	stw	r2,-24(fp)
  100288:	18800117 	ldw	r2,4(r3)
  10028c:	e0bffb15 	stw	r2,-20(fp)
  100290:	18800217 	ldw	r2,8(r3)
  100294:	e0bffc15 	stw	r2,-16(fp)
  100298:	18800317 	ldw	r2,12(r3)
  10029c:	e0bffd15 	stw	r2,-12(fp)
  1002a0:	1880040b 	ldhu	r2,16(r3)
  1002a4:	e0bffe0d 	sth	r2,-8(fp)
  1002a8:	00800c04 	movi	r2,48
  1002ac:	e0bffdc5 	stb	r2,-9(fp)
  1002b0:	e03ff815 	stw	zero,-32(fp)
  1002b4:	00000f06 	br	1002f4 <task2+0xb0>
  1002b8:	e0fff817 	ldw	r3,-32(fp)
  1002bc:	e0bffa04 	addi	r2,fp,-24
  1002c0:	10c5883a 	add	r2,r2,r3
  1002c4:	10800003 	ldbu	r2,0(r2)
  1002c8:	11003fcc 	andi	r4,r2,255
  1002cc:	2100201c 	xori	r4,r4,128
  1002d0:	213fe004 	addi	r4,r4,-128
  1002d4:	00800474 	movhi	r2,17
  1002d8:	10b54804 	addi	r2,r2,-10976
  1002dc:	10800017 	ldw	r2,0(r2)
  1002e0:	11400217 	ldw	r5,8(r2)
  1002e4:	01004c80 	call	1004c8 <putc>
  1002e8:	e0bff817 	ldw	r2,-32(fp)
  1002ec:	10800044 	addi	r2,r2,1
  1002f0:	e0bff815 	stw	r2,-32(fp)
  1002f4:	e43ff817 	ldw	r16,-32(fp)
  1002f8:	e13ffa04 	addi	r4,fp,-24
  1002fc:	01007680 	call	100768 <strlen>
  100300:	80bfed36 	bltu	r16,r2,1002b8 <task2+0x74>
  100304:	003fdc06 	br	100278 <task2+0x34>

00100308 <statisticTask>:
  100308:	defffd04 	addi	sp,sp,-12
  10030c:	dfc00215 	stw	ra,8(sp)
  100310:	df000115 	stw	fp,4(sp)
  100314:	df000104 	addi	fp,sp,4
  100318:	e13fff15 	stw	r4,-4(fp)
  10031c:	01000474 	movhi	r4,17
  100320:	212e0004 	addi	r4,r4,-18432
  100324:	01400184 	movi	r5,6
  100328:	01001600 	call	100160 <printStackSize>
  10032c:	01000474 	movhi	r4,17
  100330:	212e0204 	addi	r4,r4,-18424
  100334:	014001c4 	movi	r5,7
  100338:	01001600 	call	100160 <printStackSize>
  10033c:	01000474 	movhi	r4,17
  100340:	212e0404 	addi	r4,r4,-18416
  100344:	01400304 	movi	r5,12
  100348:	01001600 	call	100160 <printStackSize>
  10034c:	003ff306 	br	10031c <statisticTask+0x14>

00100350 <main>:
  100350:	defff904 	addi	sp,sp,-28
  100354:	dfc00615 	stw	ra,24(sp)
  100358:	df000515 	stw	fp,20(sp)
  10035c:	df000504 	addi	fp,sp,20
  100360:	01000474 	movhi	r4,17
  100364:	212e0804 	addi	r4,r4,-18400
  100368:	01007540 	call	100754 <puts>
  10036c:	01000044 	movi	r4,1
  100370:	01064680 	call	106468 <OSSemCreate>
  100374:	d0a6ee15 	stw	r2,-25672(gp)
  100378:	01000044 	movi	r4,1
  10037c:	01064680 	call	106468 <OSSemCreate>
  100380:	d0a6ec15 	stw	r2,-25680(gp)
  100384:	01800474 	movhi	r6,17
  100388:	31846a04 	addi	r6,r6,4520
  10038c:	00800184 	movi	r2,6
  100390:	d8800015 	stw	r2,0(sp)
  100394:	00800474 	movhi	r2,17
  100398:	10bc6b04 	addi	r2,r2,-3668
  10039c:	d8800115 	stw	r2,4(sp)
  1003a0:	00820004 	movi	r2,2048
  1003a4:	d8800215 	stw	r2,8(sp)
  1003a8:	d8000315 	stw	zero,12(sp)
  1003ac:	008000c4 	movi	r2,3
  1003b0:	d8800415 	stw	r2,16(sp)
  1003b4:	01000434 	movhi	r4,16
  1003b8:	21006704 	addi	r4,r4,412
  1003bc:	000b883a 	mov	r5,zero
  1003c0:	01c00184 	movi	r7,6
  1003c4:	0106e400 	call	106e40 <OSTaskCreateExt>
  1003c8:	01800474 	movhi	r6,17
  1003cc:	31946a04 	addi	r6,r6,20904
  1003d0:	008001c4 	movi	r2,7
  1003d4:	d8800015 	stw	r2,0(sp)
  1003d8:	00800474 	movhi	r2,17
  1003dc:	108c6b04 	addi	r2,r2,12716
  1003e0:	d8800115 	stw	r2,4(sp)
  1003e4:	00820004 	movi	r2,2048
  1003e8:	d8800215 	stw	r2,8(sp)
  1003ec:	d8000315 	stw	zero,12(sp)
  1003f0:	008000c4 	movi	r2,3
  1003f4:	d8800415 	stw	r2,16(sp)
  1003f8:	01000434 	movhi	r4,16
  1003fc:	21009104 	addi	r4,r4,580
  100400:	000b883a 	mov	r5,zero
  100404:	01c001c4 	movi	r7,7
  100408:	0106e400 	call	106e40 <OSTaskCreateExt>
  10040c:	0103d7c0 	call	103d7c <OSStart>
  100410:	0005883a 	mov	r2,zero
  100414:	e037883a 	mov	sp,fp
  100418:	dfc00117 	ldw	ra,4(sp)
  10041c:	df000017 	ldw	fp,0(sp)
  100420:	dec00204 	addi	sp,sp,8
  100424:	f800283a 	ret

00100428 <memcpy>:
  100428:	01c003c4 	movi	r7,15
  10042c:	2007883a 	mov	r3,r4
  100430:	3980032e 	bgeu	r7,r6,100440 <memcpy+0x18>
  100434:	2904b03a 	or	r2,r5,r4
  100438:	108000cc 	andi	r2,r2,3
  10043c:	10000926 	beq	r2,zero,100464 <memcpy+0x3c>
  100440:	30000626 	beq	r6,zero,10045c <memcpy+0x34>
  100444:	30cd883a 	add	r6,r6,r3
  100448:	28800003 	ldbu	r2,0(r5)
  10044c:	29400044 	addi	r5,r5,1
  100450:	18800005 	stb	r2,0(r3)
  100454:	18c00044 	addi	r3,r3,1
  100458:	30fffb1e 	bne	r6,r3,100448 <memcpy+0x20>
  10045c:	2005883a 	mov	r2,r4
  100460:	f800283a 	ret
  100464:	3811883a 	mov	r8,r7
  100468:	200f883a 	mov	r7,r4
  10046c:	28c00017 	ldw	r3,0(r5)
  100470:	31bffc04 	addi	r6,r6,-16
  100474:	38c00015 	stw	r3,0(r7)
  100478:	28800117 	ldw	r2,4(r5)
  10047c:	38800115 	stw	r2,4(r7)
  100480:	28c00217 	ldw	r3,8(r5)
  100484:	38c00215 	stw	r3,8(r7)
  100488:	28800317 	ldw	r2,12(r5)
  10048c:	29400404 	addi	r5,r5,16
  100490:	38800315 	stw	r2,12(r7)
  100494:	39c00404 	addi	r7,r7,16
  100498:	41bff436 	bltu	r8,r6,10046c <memcpy+0x44>
  10049c:	008000c4 	movi	r2,3
  1004a0:	1180072e 	bgeu	r2,r6,1004c0 <memcpy+0x98>
  1004a4:	1007883a 	mov	r3,r2
  1004a8:	28800017 	ldw	r2,0(r5)
  1004ac:	31bfff04 	addi	r6,r6,-4
  1004b0:	29400104 	addi	r5,r5,4
  1004b4:	38800015 	stw	r2,0(r7)
  1004b8:	39c00104 	addi	r7,r7,4
  1004bc:	19bffa36 	bltu	r3,r6,1004a8 <memcpy+0x80>
  1004c0:	3807883a 	mov	r3,r7
  1004c4:	003fde06 	br	100440 <memcpy+0x18>

001004c8 <putc>:
  1004c8:	defffc04 	addi	sp,sp,-16
  1004cc:	dc800215 	stw	r18,8(sp)
  1004d0:	04800474 	movhi	r18,17
  1004d4:	94b54804 	addi	r18,r18,-10976
  1004d8:	90c00017 	ldw	r3,0(r18)
  1004dc:	dc400115 	stw	r17,4(sp)
  1004e0:	dc000015 	stw	r16,0(sp)
  1004e4:	dfc00315 	stw	ra,12(sp)
  1004e8:	2023883a 	mov	r17,r4
  1004ec:	2821883a 	mov	r16,r5
  1004f0:	18000226 	beq	r3,zero,1004fc <putc+0x34>
  1004f4:	18800e17 	ldw	r2,56(r3)
  1004f8:	10001126 	beq	r2,zero,100540 <putc+0x78>
  1004fc:	80800217 	ldw	r2,8(r16)
  100500:	10ffffc4 	addi	r3,r2,-1
  100504:	80c00215 	stw	r3,8(r16)
  100508:	18001316 	blt	r3,zero,100558 <putc+0x90>
  10050c:	80800017 	ldw	r2,0(r16)
  100510:	14400005 	stb	r17,0(r2)
  100514:	80c00017 	ldw	r3,0(r16)
  100518:	18800044 	addi	r2,r3,1
  10051c:	18c00003 	ldbu	r3,0(r3)
  100520:	80800015 	stw	r2,0(r16)
  100524:	1805883a 	mov	r2,r3
  100528:	dfc00317 	ldw	ra,12(sp)
  10052c:	dc800217 	ldw	r18,8(sp)
  100530:	dc400117 	ldw	r17,4(sp)
  100534:	dc000017 	ldw	r16,0(sp)
  100538:	dec00404 	addi	sp,sp,16
  10053c:	f800283a 	ret
  100540:	1809883a 	mov	r4,r3
  100544:	0100cfc0 	call	100cfc <__sinit>
  100548:	80800217 	ldw	r2,8(r16)
  10054c:	10ffffc4 	addi	r3,r2,-1
  100550:	80c00215 	stw	r3,8(r16)
  100554:	183fed0e 	bge	r3,zero,10050c <putc+0x44>
  100558:	80800617 	ldw	r2,24(r16)
  10055c:	18800f16 	blt	r3,r2,10059c <putc+0xd4>
  100560:	80800017 	ldw	r2,0(r16)
  100564:	14400005 	stb	r17,0(r2)
  100568:	81000017 	ldw	r4,0(r16)
  10056c:	00800284 	movi	r2,10
  100570:	20c00003 	ldbu	r3,0(r4)
  100574:	18801226 	beq	r3,r2,1005c0 <putc+0xf8>
  100578:	20800044 	addi	r2,r4,1
  10057c:	80800015 	stw	r2,0(r16)
  100580:	1805883a 	mov	r2,r3
  100584:	dfc00317 	ldw	ra,12(sp)
  100588:	dc800217 	ldw	r18,8(sp)
  10058c:	dc400117 	ldw	r17,4(sp)
  100590:	dc000017 	ldw	r16,0(sp)
  100594:	dec00404 	addi	sp,sp,16
  100598:	f800283a 	ret
  10059c:	91000017 	ldw	r4,0(r18)
  1005a0:	880b883a 	mov	r5,r17
  1005a4:	800d883a 	mov	r6,r16
  1005a8:	dfc00317 	ldw	ra,12(sp)
  1005ac:	dc800217 	ldw	r18,8(sp)
  1005b0:	dc400117 	ldw	r17,4(sp)
  1005b4:	dc000017 	ldw	r16,0(sp)
  1005b8:	dec00404 	addi	sp,sp,16
  1005bc:	01007dc1 	jmpi	1007dc <__swbuf_r>
  1005c0:	91000017 	ldw	r4,0(r18)
  1005c4:	180b883a 	mov	r5,r3
  1005c8:	003ff606 	br	1005a4 <putc+0xdc>

001005cc <_putc_r>:
  1005cc:	defffc04 	addi	sp,sp,-16
  1005d0:	dc400215 	stw	r17,8(sp)
  1005d4:	dc000115 	stw	r16,4(sp)
  1005d8:	dfc00315 	stw	ra,12(sp)
  1005dc:	2021883a 	mov	r16,r4
  1005e0:	2823883a 	mov	r17,r5
  1005e4:	20000226 	beq	r4,zero,1005f0 <_putc_r+0x24>
  1005e8:	20800e17 	ldw	r2,56(r4)
  1005ec:	10001026 	beq	r2,zero,100630 <_putc_r+0x64>
  1005f0:	30800217 	ldw	r2,8(r6)
  1005f4:	10ffffc4 	addi	r3,r2,-1
  1005f8:	30c00215 	stw	r3,8(r6)
  1005fc:	18001316 	blt	r3,zero,10064c <_putc_r+0x80>
  100600:	30800017 	ldw	r2,0(r6)
  100604:	14400005 	stb	r17,0(r2)
  100608:	30c00017 	ldw	r3,0(r6)
  10060c:	18800044 	addi	r2,r3,1
  100610:	18c00003 	ldbu	r3,0(r3)
  100614:	30800015 	stw	r2,0(r6)
  100618:	1805883a 	mov	r2,r3
  10061c:	dfc00317 	ldw	ra,12(sp)
  100620:	dc400217 	ldw	r17,8(sp)
  100624:	dc000117 	ldw	r16,4(sp)
  100628:	dec00404 	addi	sp,sp,16
  10062c:	f800283a 	ret
  100630:	d9800015 	stw	r6,0(sp)
  100634:	0100cfc0 	call	100cfc <__sinit>
  100638:	d9800017 	ldw	r6,0(sp)
  10063c:	30800217 	ldw	r2,8(r6)
  100640:	10ffffc4 	addi	r3,r2,-1
  100644:	30c00215 	stw	r3,8(r6)
  100648:	183fed0e 	bge	r3,zero,100600 <_putc_r+0x34>
  10064c:	30800617 	ldw	r2,24(r6)
  100650:	18800e16 	blt	r3,r2,10068c <_putc_r+0xc0>
  100654:	30800017 	ldw	r2,0(r6)
  100658:	14400005 	stb	r17,0(r2)
  10065c:	31000017 	ldw	r4,0(r6)
  100660:	00800284 	movi	r2,10
  100664:	20c00003 	ldbu	r3,0(r4)
  100668:	18800f26 	beq	r3,r2,1006a8 <_putc_r+0xdc>
  10066c:	20800044 	addi	r2,r4,1
  100670:	30800015 	stw	r2,0(r6)
  100674:	1805883a 	mov	r2,r3
  100678:	dfc00317 	ldw	ra,12(sp)
  10067c:	dc400217 	ldw	r17,8(sp)
  100680:	dc000117 	ldw	r16,4(sp)
  100684:	dec00404 	addi	sp,sp,16
  100688:	f800283a 	ret
  10068c:	8009883a 	mov	r4,r16
  100690:	880b883a 	mov	r5,r17
  100694:	dfc00317 	ldw	ra,12(sp)
  100698:	dc400217 	ldw	r17,8(sp)
  10069c:	dc000117 	ldw	r16,4(sp)
  1006a0:	dec00404 	addi	sp,sp,16
  1006a4:	01007dc1 	jmpi	1007dc <__swbuf_r>
  1006a8:	8009883a 	mov	r4,r16
  1006ac:	180b883a 	mov	r5,r3
  1006b0:	003ff806 	br	100694 <_putc_r+0xc8>

001006b4 <_puts_r>:
  1006b4:	defff604 	addi	sp,sp,-40
  1006b8:	dc400715 	stw	r17,28(sp)
  1006bc:	2023883a 	mov	r17,r4
  1006c0:	2809883a 	mov	r4,r5
  1006c4:	dfc00915 	stw	ra,36(sp)
  1006c8:	dcc00815 	stw	r19,32(sp)
  1006cc:	2827883a 	mov	r19,r5
  1006d0:	01007680 	call	100768 <strlen>
  1006d4:	89400217 	ldw	r5,8(r17)
  1006d8:	00c00474 	movhi	r3,17
  1006dc:	18ee0e04 	addi	r3,r3,-18376
  1006e0:	01c00044 	movi	r7,1
  1006e4:	12000044 	addi	r8,r2,1
  1006e8:	d8c00515 	stw	r3,20(sp)
  1006ec:	d9c00615 	stw	r7,24(sp)
  1006f0:	d8c00304 	addi	r3,sp,12
  1006f4:	01c00084 	movi	r7,2
  1006f8:	8809883a 	mov	r4,r17
  1006fc:	d80d883a 	mov	r6,sp
  100700:	d8c00015 	stw	r3,0(sp)
  100704:	dcc00315 	stw	r19,12(sp)
  100708:	da000215 	stw	r8,8(sp)
  10070c:	d9c00115 	stw	r7,4(sp)
  100710:	d8800415 	stw	r2,16(sp)
  100714:	01013c80 	call	1013c8 <__sfvwrite_r>
  100718:	00ffffc4 	movi	r3,-1
  10071c:	10000626 	beq	r2,zero,100738 <_puts_r+0x84>
  100720:	1805883a 	mov	r2,r3
  100724:	dfc00917 	ldw	ra,36(sp)
  100728:	dcc00817 	ldw	r19,32(sp)
  10072c:	dc400717 	ldw	r17,28(sp)
  100730:	dec00a04 	addi	sp,sp,40
  100734:	f800283a 	ret
  100738:	00c00284 	movi	r3,10
  10073c:	1805883a 	mov	r2,r3
  100740:	dfc00917 	ldw	ra,36(sp)
  100744:	dcc00817 	ldw	r19,32(sp)
  100748:	dc400717 	ldw	r17,28(sp)
  10074c:	dec00a04 	addi	sp,sp,40
  100750:	f800283a 	ret

00100754 <puts>:
  100754:	00800474 	movhi	r2,17
  100758:	10b54804 	addi	r2,r2,-10976
  10075c:	200b883a 	mov	r5,r4
  100760:	11000017 	ldw	r4,0(r2)
  100764:	01006b41 	jmpi	1006b4 <_puts_r>

00100768 <strlen>:
  100768:	208000cc 	andi	r2,r4,3
  10076c:	2011883a 	mov	r8,r4
  100770:	1000161e 	bne	r2,zero,1007cc <strlen+0x64>
  100774:	20c00017 	ldw	r3,0(r4)
  100778:	017fbff4 	movhi	r5,65279
  10077c:	297fbfc4 	addi	r5,r5,-257
  100780:	01e02074 	movhi	r7,32897
  100784:	39e02004 	addi	r7,r7,-32640
  100788:	1945883a 	add	r2,r3,r5
  10078c:	11c4703a 	and	r2,r2,r7
  100790:	00c6303a 	nor	r3,zero,r3
  100794:	1886703a 	and	r3,r3,r2
  100798:	18000c1e 	bne	r3,zero,1007cc <strlen+0x64>
  10079c:	280d883a 	mov	r6,r5
  1007a0:	380b883a 	mov	r5,r7
  1007a4:	21000104 	addi	r4,r4,4
  1007a8:	20800017 	ldw	r2,0(r4)
  1007ac:	1187883a 	add	r3,r2,r6
  1007b0:	1946703a 	and	r3,r3,r5
  1007b4:	0084303a 	nor	r2,zero,r2
  1007b8:	10c4703a 	and	r2,r2,r3
  1007bc:	103ff926 	beq	r2,zero,1007a4 <strlen+0x3c>
  1007c0:	20800007 	ldb	r2,0(r4)
  1007c4:	10000326 	beq	r2,zero,1007d4 <strlen+0x6c>
  1007c8:	21000044 	addi	r4,r4,1
  1007cc:	20800007 	ldb	r2,0(r4)
  1007d0:	103ffd1e 	bne	r2,zero,1007c8 <strlen+0x60>
  1007d4:	2205c83a 	sub	r2,r4,r8
  1007d8:	f800283a 	ret

001007dc <__swbuf_r>:
  1007dc:	defffc04 	addi	sp,sp,-16
  1007e0:	dc400215 	stw	r17,8(sp)
  1007e4:	dc000115 	stw	r16,4(sp)
  1007e8:	dfc00315 	stw	ra,12(sp)
  1007ec:	2023883a 	mov	r17,r4
  1007f0:	2821883a 	mov	r16,r5
  1007f4:	20000226 	beq	r4,zero,100800 <__swbuf_r+0x24>
  1007f8:	20800e17 	ldw	r2,56(r4)
  1007fc:	10002f26 	beq	r2,zero,1008bc <__swbuf_r+0xe0>
  100800:	3080030b 	ldhu	r2,12(r6)
  100804:	30c00617 	ldw	r3,24(r6)
  100808:	1080020c 	andi	r2,r2,8
  10080c:	30c00215 	stw	r3,8(r6)
  100810:	10002226 	beq	r2,zero,10089c <__swbuf_r+0xc0>
  100814:	30c00417 	ldw	r3,16(r6)
  100818:	18002026 	beq	r3,zero,10089c <__swbuf_r+0xc0>
  10081c:	31000017 	ldw	r4,0(r6)
  100820:	30800517 	ldw	r2,20(r6)
  100824:	20c7c83a 	sub	r3,r4,r3
  100828:	18802f0e 	bge	r3,r2,1008e8 <__swbuf_r+0x10c>
  10082c:	19400044 	addi	r5,r3,1
  100830:	30800217 	ldw	r2,8(r6)
  100834:	84003fcc 	andi	r16,r16,255
  100838:	20c00044 	addi	r3,r4,1
  10083c:	10bfffc4 	addi	r2,r2,-1
  100840:	30800215 	stw	r2,8(r6)
  100844:	24000005 	stb	r16,0(r4)
  100848:	30800517 	ldw	r2,20(r6)
  10084c:	30c00015 	stw	r3,0(r6)
  100850:	11400c26 	beq	r2,r5,100884 <__swbuf_r+0xa8>
  100854:	3080030b 	ldhu	r2,12(r6)
  100858:	1080004c 	andi	r2,r2,1
  10085c:	1005003a 	cmpeq	r2,r2,zero
  100860:	10000626 	beq	r2,zero,10087c <__swbuf_r+0xa0>
  100864:	8005883a 	mov	r2,r16
  100868:	dfc00317 	ldw	ra,12(sp)
  10086c:	dc400217 	ldw	r17,8(sp)
  100870:	dc000117 	ldw	r16,4(sp)
  100874:	dec00404 	addi	sp,sp,16
  100878:	f800283a 	ret
  10087c:	00800284 	movi	r2,10
  100880:	80bff81e 	bne	r16,r2,100864 <__swbuf_r+0x88>
  100884:	8809883a 	mov	r4,r17
  100888:	300b883a 	mov	r5,r6
  10088c:	0100a640 	call	100a64 <_fflush_r>
  100890:	103ff426 	beq	r2,zero,100864 <__swbuf_r+0x88>
  100894:	043fffc4 	movi	r16,-1
  100898:	003ff206 	br	100864 <__swbuf_r+0x88>
  10089c:	300b883a 	mov	r5,r6
  1008a0:	8809883a 	mov	r4,r17
  1008a4:	d9800015 	stw	r6,0(sp)
  1008a8:	01009280 	call	100928 <__swsetup_r>
  1008ac:	d9800017 	ldw	r6,0(sp)
  1008b0:	1000061e 	bne	r2,zero,1008cc <__swbuf_r+0xf0>
  1008b4:	30c00417 	ldw	r3,16(r6)
  1008b8:	003fd806 	br	10081c <__swbuf_r+0x40>
  1008bc:	d9800015 	stw	r6,0(sp)
  1008c0:	0100cfc0 	call	100cfc <__sinit>
  1008c4:	d9800017 	ldw	r6,0(sp)
  1008c8:	003fcd06 	br	100800 <__swbuf_r+0x24>
  1008cc:	3080030b 	ldhu	r2,12(r6)
  1008d0:	00c00244 	movi	r3,9
  1008d4:	043fffc4 	movi	r16,-1
  1008d8:	10801014 	ori	r2,r2,64
  1008dc:	3080030d 	sth	r2,12(r6)
  1008e0:	88c00015 	stw	r3,0(r17)
  1008e4:	003fdf06 	br	100864 <__swbuf_r+0x88>
  1008e8:	300b883a 	mov	r5,r6
  1008ec:	8809883a 	mov	r4,r17
  1008f0:	d9800015 	stw	r6,0(sp)
  1008f4:	0100a640 	call	100a64 <_fflush_r>
  1008f8:	d9800017 	ldw	r6,0(sp)
  1008fc:	103fe51e 	bne	r2,zero,100894 <__swbuf_r+0xb8>
  100900:	31000017 	ldw	r4,0(r6)
  100904:	01400044 	movi	r5,1
  100908:	003fc906 	br	100830 <__swbuf_r+0x54>

0010090c <__swbuf>:
  10090c:	01800474 	movhi	r6,17
  100910:	31b54804 	addi	r6,r6,-10976
  100914:	2007883a 	mov	r3,r4
  100918:	31000017 	ldw	r4,0(r6)
  10091c:	280d883a 	mov	r6,r5
  100920:	180b883a 	mov	r5,r3
  100924:	01007dc1 	jmpi	1007dc <__swbuf_r>

00100928 <__swsetup_r>:
  100928:	00800474 	movhi	r2,17
  10092c:	10b54804 	addi	r2,r2,-10976
  100930:	10c00017 	ldw	r3,0(r2)
  100934:	defffd04 	addi	sp,sp,-12
  100938:	dc400115 	stw	r17,4(sp)
  10093c:	dc000015 	stw	r16,0(sp)
  100940:	dfc00215 	stw	ra,8(sp)
  100944:	2023883a 	mov	r17,r4
  100948:	2821883a 	mov	r16,r5
  10094c:	18000226 	beq	r3,zero,100958 <__swsetup_r+0x30>
  100950:	18800e17 	ldw	r2,56(r3)
  100954:	10001f26 	beq	r2,zero,1009d4 <__swsetup_r+0xac>
  100958:	8100030b 	ldhu	r4,12(r16)
  10095c:	2080020c 	andi	r2,r4,8
  100960:	10002826 	beq	r2,zero,100a04 <__swsetup_r+0xdc>
  100964:	81400417 	ldw	r5,16(r16)
  100968:	28001d26 	beq	r5,zero,1009e0 <__swsetup_r+0xb8>
  10096c:	2080004c 	andi	r2,r4,1
  100970:	1005003a 	cmpeq	r2,r2,zero
  100974:	10000b26 	beq	r2,zero,1009a4 <__swsetup_r+0x7c>
  100978:	2080008c 	andi	r2,r4,2
  10097c:	10001226 	beq	r2,zero,1009c8 <__swsetup_r+0xa0>
  100980:	0005883a 	mov	r2,zero
  100984:	80800215 	stw	r2,8(r16)
  100988:	28000b26 	beq	r5,zero,1009b8 <__swsetup_r+0x90>
  10098c:	0005883a 	mov	r2,zero
  100990:	dfc00217 	ldw	ra,8(sp)
  100994:	dc400117 	ldw	r17,4(sp)
  100998:	dc000017 	ldw	r16,0(sp)
  10099c:	dec00304 	addi	sp,sp,12
  1009a0:	f800283a 	ret
  1009a4:	80800517 	ldw	r2,20(r16)
  1009a8:	80000215 	stw	zero,8(r16)
  1009ac:	0085c83a 	sub	r2,zero,r2
  1009b0:	80800615 	stw	r2,24(r16)
  1009b4:	283ff51e 	bne	r5,zero,10098c <__swsetup_r+0x64>
  1009b8:	2080200c 	andi	r2,r4,128
  1009bc:	103ff326 	beq	r2,zero,10098c <__swsetup_r+0x64>
  1009c0:	00bfffc4 	movi	r2,-1
  1009c4:	003ff206 	br	100990 <__swsetup_r+0x68>
  1009c8:	80800517 	ldw	r2,20(r16)
  1009cc:	80800215 	stw	r2,8(r16)
  1009d0:	003fed06 	br	100988 <__swsetup_r+0x60>
  1009d4:	1809883a 	mov	r4,r3
  1009d8:	0100cfc0 	call	100cfc <__sinit>
  1009dc:	003fde06 	br	100958 <__swsetup_r+0x30>
  1009e0:	20c0a00c 	andi	r3,r4,640
  1009e4:	00808004 	movi	r2,512
  1009e8:	18bfe026 	beq	r3,r2,10096c <__swsetup_r+0x44>
  1009ec:	8809883a 	mov	r4,r17
  1009f0:	800b883a 	mov	r5,r16
  1009f4:	01019e40 	call	1019e4 <__smakebuf_r>
  1009f8:	8100030b 	ldhu	r4,12(r16)
  1009fc:	81400417 	ldw	r5,16(r16)
  100a00:	003fda06 	br	10096c <__swsetup_r+0x44>
  100a04:	2080040c 	andi	r2,r4,16
  100a08:	103fed26 	beq	r2,zero,1009c0 <__swsetup_r+0x98>
  100a0c:	2080010c 	andi	r2,r4,4
  100a10:	10001226 	beq	r2,zero,100a5c <__swsetup_r+0x134>
  100a14:	81400c17 	ldw	r5,48(r16)
  100a18:	28000526 	beq	r5,zero,100a30 <__swsetup_r+0x108>
  100a1c:	80801004 	addi	r2,r16,64
  100a20:	28800226 	beq	r5,r2,100a2c <__swsetup_r+0x104>
  100a24:	8809883a 	mov	r4,r17
  100a28:	01010b40 	call	1010b4 <_free_r>
  100a2c:	80000c15 	stw	zero,48(r16)
  100a30:	8080030b 	ldhu	r2,12(r16)
  100a34:	81400417 	ldw	r5,16(r16)
  100a38:	80000115 	stw	zero,4(r16)
  100a3c:	10bff6cc 	andi	r2,r2,65499
  100a40:	8080030d 	sth	r2,12(r16)
  100a44:	81400015 	stw	r5,0(r16)
  100a48:	8080030b 	ldhu	r2,12(r16)
  100a4c:	10800214 	ori	r2,r2,8
  100a50:	113fffcc 	andi	r4,r2,65535
  100a54:	8080030d 	sth	r2,12(r16)
  100a58:	003fc306 	br	100968 <__swsetup_r+0x40>
  100a5c:	81400417 	ldw	r5,16(r16)
  100a60:	003ff906 	br	100a48 <__swsetup_r+0x120>

00100a64 <_fflush_r>:
  100a64:	defffb04 	addi	sp,sp,-20
  100a68:	dcc00315 	stw	r19,12(sp)
  100a6c:	dc800215 	stw	r18,8(sp)
  100a70:	dfc00415 	stw	ra,16(sp)
  100a74:	dc400115 	stw	r17,4(sp)
  100a78:	dc000015 	stw	r16,0(sp)
  100a7c:	2027883a 	mov	r19,r4
  100a80:	2825883a 	mov	r18,r5
  100a84:	20000226 	beq	r4,zero,100a90 <_fflush_r+0x2c>
  100a88:	20800e17 	ldw	r2,56(r4)
  100a8c:	10005626 	beq	r2,zero,100be8 <_fflush_r+0x184>
  100a90:	9100030b 	ldhu	r4,12(r18)
  100a94:	20ffffcc 	andi	r3,r4,65535
  100a98:	18e0001c 	xori	r3,r3,32768
  100a9c:	18e00004 	addi	r3,r3,-32768
  100aa0:	1880020c 	andi	r2,r3,8
  100aa4:	1000261e 	bne	r2,zero,100b40 <_fflush_r+0xdc>
  100aa8:	90c00117 	ldw	r3,4(r18)
  100aac:	20820014 	ori	r2,r4,2048
  100ab0:	9080030d 	sth	r2,12(r18)
  100ab4:	1009883a 	mov	r4,r2
  100ab8:	00c0400e 	bge	zero,r3,100bbc <_fflush_r+0x158>
  100abc:	92000a17 	ldw	r8,40(r18)
  100ac0:	40004026 	beq	r8,zero,100bc4 <_fflush_r+0x160>
  100ac4:	2084000c 	andi	r2,r4,4096
  100ac8:	10005326 	beq	r2,zero,100c18 <_fflush_r+0x1b4>
  100acc:	94001417 	ldw	r16,80(r18)
  100ad0:	9080030b 	ldhu	r2,12(r18)
  100ad4:	1080010c 	andi	r2,r2,4
  100ad8:	1000481e 	bne	r2,zero,100bfc <_fflush_r+0x198>
  100adc:	91400717 	ldw	r5,28(r18)
  100ae0:	9809883a 	mov	r4,r19
  100ae4:	800d883a 	mov	r6,r16
  100ae8:	000f883a 	mov	r7,zero
  100aec:	403ee83a 	callr	r8
  100af0:	8080261e 	bne	r16,r2,100b8c <_fflush_r+0x128>
  100af4:	9080030b 	ldhu	r2,12(r18)
  100af8:	91000417 	ldw	r4,16(r18)
  100afc:	90000115 	stw	zero,4(r18)
  100b00:	10bdffcc 	andi	r2,r2,63487
  100b04:	10ffffcc 	andi	r3,r2,65535
  100b08:	18c4000c 	andi	r3,r3,4096
  100b0c:	9080030d 	sth	r2,12(r18)
  100b10:	91000015 	stw	r4,0(r18)
  100b14:	18002b26 	beq	r3,zero,100bc4 <_fflush_r+0x160>
  100b18:	0007883a 	mov	r3,zero
  100b1c:	1805883a 	mov	r2,r3
  100b20:	94001415 	stw	r16,80(r18)
  100b24:	dfc00417 	ldw	ra,16(sp)
  100b28:	dcc00317 	ldw	r19,12(sp)
  100b2c:	dc800217 	ldw	r18,8(sp)
  100b30:	dc400117 	ldw	r17,4(sp)
  100b34:	dc000017 	ldw	r16,0(sp)
  100b38:	dec00504 	addi	sp,sp,20
  100b3c:	f800283a 	ret
  100b40:	94400417 	ldw	r17,16(r18)
  100b44:	88001f26 	beq	r17,zero,100bc4 <_fflush_r+0x160>
  100b48:	90800017 	ldw	r2,0(r18)
  100b4c:	18c000cc 	andi	r3,r3,3
  100b50:	94400015 	stw	r17,0(r18)
  100b54:	1461c83a 	sub	r16,r2,r17
  100b58:	18002526 	beq	r3,zero,100bf0 <_fflush_r+0x18c>
  100b5c:	0005883a 	mov	r2,zero
  100b60:	90800215 	stw	r2,8(r18)
  100b64:	0400170e 	bge	zero,r16,100bc4 <_fflush_r+0x160>
  100b68:	90c00917 	ldw	r3,36(r18)
  100b6c:	91400717 	ldw	r5,28(r18)
  100b70:	880d883a 	mov	r6,r17
  100b74:	800f883a 	mov	r7,r16
  100b78:	9809883a 	mov	r4,r19
  100b7c:	183ee83a 	callr	r3
  100b80:	88a3883a 	add	r17,r17,r2
  100b84:	80a1c83a 	sub	r16,r16,r2
  100b88:	00bff616 	blt	zero,r2,100b64 <_fflush_r+0x100>
  100b8c:	9080030b 	ldhu	r2,12(r18)
  100b90:	00ffffc4 	movi	r3,-1
  100b94:	10801014 	ori	r2,r2,64
  100b98:	9080030d 	sth	r2,12(r18)
  100b9c:	1805883a 	mov	r2,r3
  100ba0:	dfc00417 	ldw	ra,16(sp)
  100ba4:	dcc00317 	ldw	r19,12(sp)
  100ba8:	dc800217 	ldw	r18,8(sp)
  100bac:	dc400117 	ldw	r17,4(sp)
  100bb0:	dc000017 	ldw	r16,0(sp)
  100bb4:	dec00504 	addi	sp,sp,20
  100bb8:	f800283a 	ret
  100bbc:	90800f17 	ldw	r2,60(r18)
  100bc0:	00bfbe16 	blt	zero,r2,100abc <_fflush_r+0x58>
  100bc4:	0007883a 	mov	r3,zero
  100bc8:	1805883a 	mov	r2,r3
  100bcc:	dfc00417 	ldw	ra,16(sp)
  100bd0:	dcc00317 	ldw	r19,12(sp)
  100bd4:	dc800217 	ldw	r18,8(sp)
  100bd8:	dc400117 	ldw	r17,4(sp)
  100bdc:	dc000017 	ldw	r16,0(sp)
  100be0:	dec00504 	addi	sp,sp,20
  100be4:	f800283a 	ret
  100be8:	0100cfc0 	call	100cfc <__sinit>
  100bec:	003fa806 	br	100a90 <_fflush_r+0x2c>
  100bf0:	90800517 	ldw	r2,20(r18)
  100bf4:	90800215 	stw	r2,8(r18)
  100bf8:	003fda06 	br	100b64 <_fflush_r+0x100>
  100bfc:	90800117 	ldw	r2,4(r18)
  100c00:	90c00c17 	ldw	r3,48(r18)
  100c04:	80a1c83a 	sub	r16,r16,r2
  100c08:	183fb426 	beq	r3,zero,100adc <_fflush_r+0x78>
  100c0c:	90800f17 	ldw	r2,60(r18)
  100c10:	80a1c83a 	sub	r16,r16,r2
  100c14:	003fb106 	br	100adc <_fflush_r+0x78>
  100c18:	91400717 	ldw	r5,28(r18)
  100c1c:	9809883a 	mov	r4,r19
  100c20:	000d883a 	mov	r6,zero
  100c24:	01c00044 	movi	r7,1
  100c28:	403ee83a 	callr	r8
  100c2c:	1021883a 	mov	r16,r2
  100c30:	00bfffc4 	movi	r2,-1
  100c34:	80800226 	beq	r16,r2,100c40 <_fflush_r+0x1dc>
  100c38:	92000a17 	ldw	r8,40(r18)
  100c3c:	003fa406 	br	100ad0 <_fflush_r+0x6c>
  100c40:	98c00017 	ldw	r3,0(r19)
  100c44:	00800744 	movi	r2,29
  100c48:	18bfde26 	beq	r3,r2,100bc4 <_fflush_r+0x160>
  100c4c:	9080030b 	ldhu	r2,12(r18)
  100c50:	8007883a 	mov	r3,r16
  100c54:	10801014 	ori	r2,r2,64
  100c58:	9080030d 	sth	r2,12(r18)
  100c5c:	003fcf06 	br	100b9c <_fflush_r+0x138>

00100c60 <fflush>:
  100c60:	01400434 	movhi	r5,16
  100c64:	29429904 	addi	r5,r5,2660
  100c68:	2007883a 	mov	r3,r4
  100c6c:	20000526 	beq	r4,zero,100c84 <fflush+0x24>
  100c70:	00800474 	movhi	r2,17
  100c74:	10b54804 	addi	r2,r2,-10976
  100c78:	11000017 	ldw	r4,0(r2)
  100c7c:	180b883a 	mov	r5,r3
  100c80:	0100a641 	jmpi	100a64 <_fflush_r>
  100c84:	00800474 	movhi	r2,17
  100c88:	10b54904 	addi	r2,r2,-10972
  100c8c:	11000017 	ldw	r4,0(r2)
  100c90:	01018641 	jmpi	101864 <_fwalk_reent>

00100c94 <std>:
  100c94:	00800434 	movhi	r2,16
  100c98:	108ade04 	addi	r2,r2,11128
  100c9c:	20800b15 	stw	r2,44(r4)
  100ca0:	00800434 	movhi	r2,16
  100ca4:	108b1904 	addi	r2,r2,11364
  100ca8:	20800815 	stw	r2,32(r4)
  100cac:	00c00434 	movhi	r3,16
  100cb0:	18cafa04 	addi	r3,r3,11240
  100cb4:	00800434 	movhi	r2,16
  100cb8:	108ae004 	addi	r2,r2,11136
  100cbc:	2140030d 	sth	r5,12(r4)
  100cc0:	2180038d 	sth	r6,14(r4)
  100cc4:	20c00915 	stw	r3,36(r4)
  100cc8:	20800a15 	stw	r2,40(r4)
  100ccc:	20000015 	stw	zero,0(r4)
  100cd0:	20000115 	stw	zero,4(r4)
  100cd4:	20000215 	stw	zero,8(r4)
  100cd8:	20000415 	stw	zero,16(r4)
  100cdc:	20000515 	stw	zero,20(r4)
  100ce0:	20000615 	stw	zero,24(r4)
  100ce4:	21000715 	stw	r4,28(r4)
  100ce8:	f800283a 	ret

00100cec <__sfp_lock_acquire>:
  100cec:	f800283a 	ret

00100cf0 <__sfp_lock_release>:
  100cf0:	f800283a 	ret

00100cf4 <__sinit_lock_acquire>:
  100cf4:	f800283a 	ret

00100cf8 <__sinit_lock_release>:
  100cf8:	f800283a 	ret

00100cfc <__sinit>:
  100cfc:	20800e17 	ldw	r2,56(r4)
  100d00:	defffd04 	addi	sp,sp,-12
  100d04:	dc400115 	stw	r17,4(sp)
  100d08:	dc000015 	stw	r16,0(sp)
  100d0c:	dfc00215 	stw	ra,8(sp)
  100d10:	04400044 	movi	r17,1
  100d14:	01400104 	movi	r5,4
  100d18:	000d883a 	mov	r6,zero
  100d1c:	2021883a 	mov	r16,r4
  100d20:	2200bb04 	addi	r8,r4,748
  100d24:	200f883a 	mov	r7,r4
  100d28:	10000526 	beq	r2,zero,100d40 <__sinit+0x44>
  100d2c:	dfc00217 	ldw	ra,8(sp)
  100d30:	dc400117 	ldw	r17,4(sp)
  100d34:	dc000017 	ldw	r16,0(sp)
  100d38:	dec00304 	addi	sp,sp,12
  100d3c:	f800283a 	ret
  100d40:	21000117 	ldw	r4,4(r4)
  100d44:	00800434 	movhi	r2,16
  100d48:	10837804 	addi	r2,r2,3552
  100d4c:	00c000c4 	movi	r3,3
  100d50:	80800f15 	stw	r2,60(r16)
  100d54:	80c0b915 	stw	r3,740(r16)
  100d58:	8200ba15 	stw	r8,744(r16)
  100d5c:	84400e15 	stw	r17,56(r16)
  100d60:	8000b815 	stw	zero,736(r16)
  100d64:	0100c940 	call	100c94 <std>
  100d68:	81000217 	ldw	r4,8(r16)
  100d6c:	880d883a 	mov	r6,r17
  100d70:	800f883a 	mov	r7,r16
  100d74:	01400284 	movi	r5,10
  100d78:	0100c940 	call	100c94 <std>
  100d7c:	81000317 	ldw	r4,12(r16)
  100d80:	800f883a 	mov	r7,r16
  100d84:	01400484 	movi	r5,18
  100d88:	01800084 	movi	r6,2
  100d8c:	dfc00217 	ldw	ra,8(sp)
  100d90:	dc400117 	ldw	r17,4(sp)
  100d94:	dc000017 	ldw	r16,0(sp)
  100d98:	dec00304 	addi	sp,sp,12
  100d9c:	0100c941 	jmpi	100c94 <std>

00100da0 <__fp_lock>:
  100da0:	0005883a 	mov	r2,zero
  100da4:	f800283a 	ret

00100da8 <__fp_unlock>:
  100da8:	0005883a 	mov	r2,zero
  100dac:	f800283a 	ret

00100db0 <__fp_unlock_all>:
  100db0:	00800474 	movhi	r2,17
  100db4:	10b54804 	addi	r2,r2,-10976
  100db8:	11000017 	ldw	r4,0(r2)
  100dbc:	01400434 	movhi	r5,16
  100dc0:	29436a04 	addi	r5,r5,3496
  100dc4:	010192c1 	jmpi	10192c <_fwalk>

00100dc8 <__fp_lock_all>:
  100dc8:	00800474 	movhi	r2,17
  100dcc:	10b54804 	addi	r2,r2,-10976
  100dd0:	11000017 	ldw	r4,0(r2)
  100dd4:	01400434 	movhi	r5,16
  100dd8:	29436804 	addi	r5,r5,3488
  100ddc:	010192c1 	jmpi	10192c <_fwalk>

00100de0 <_cleanup_r>:
  100de0:	01400434 	movhi	r5,16
  100de4:	294baf04 	addi	r5,r5,11964
  100de8:	010192c1 	jmpi	10192c <_fwalk>

00100dec <_cleanup>:
  100dec:	00800474 	movhi	r2,17
  100df0:	10b54904 	addi	r2,r2,-10972
  100df4:	11000017 	ldw	r4,0(r2)
  100df8:	0100de01 	jmpi	100de0 <_cleanup_r>

00100dfc <__sfmoreglue>:
  100dfc:	defffc04 	addi	sp,sp,-16
  100e00:	dc000015 	stw	r16,0(sp)
  100e04:	2821883a 	mov	r16,r5
  100e08:	dc400115 	stw	r17,4(sp)
  100e0c:	01401704 	movi	r5,92
  100e10:	2023883a 	mov	r17,r4
  100e14:	8009883a 	mov	r4,r16
  100e18:	dfc00315 	stw	ra,12(sp)
  100e1c:	dcc00215 	stw	r19,8(sp)
  100e20:	01030a40 	call	1030a4 <__mulsi3>
  100e24:	11400304 	addi	r5,r2,12
  100e28:	8809883a 	mov	r4,r17
  100e2c:	1027883a 	mov	r19,r2
  100e30:	0101b780 	call	101b78 <_malloc_r>
  100e34:	10c00304 	addi	r3,r2,12
  100e38:	1023883a 	mov	r17,r2
  100e3c:	1809883a 	mov	r4,r3
  100e40:	980d883a 	mov	r6,r19
  100e44:	000b883a 	mov	r5,zero
  100e48:	10000b26 	beq	r2,zero,100e78 <__sfmoreglue+0x7c>
  100e4c:	14000115 	stw	r16,4(r2)
  100e50:	10c00215 	stw	r3,8(r2)
  100e54:	10000015 	stw	zero,0(r2)
  100e58:	010247c0 	call	10247c <memset>
  100e5c:	8805883a 	mov	r2,r17
  100e60:	dfc00317 	ldw	ra,12(sp)
  100e64:	dcc00217 	ldw	r19,8(sp)
  100e68:	dc400117 	ldw	r17,4(sp)
  100e6c:	dc000017 	ldw	r16,0(sp)
  100e70:	dec00404 	addi	sp,sp,16
  100e74:	f800283a 	ret
  100e78:	0023883a 	mov	r17,zero
  100e7c:	8805883a 	mov	r2,r17
  100e80:	dfc00317 	ldw	ra,12(sp)
  100e84:	dcc00217 	ldw	r19,8(sp)
  100e88:	dc400117 	ldw	r17,4(sp)
  100e8c:	dc000017 	ldw	r16,0(sp)
  100e90:	dec00404 	addi	sp,sp,16
  100e94:	f800283a 	ret

00100e98 <__sfp>:
  100e98:	defffd04 	addi	sp,sp,-12
  100e9c:	00800474 	movhi	r2,17
  100ea0:	10b54904 	addi	r2,r2,-10972
  100ea4:	dc000015 	stw	r16,0(sp)
  100ea8:	14000017 	ldw	r16,0(r2)
  100eac:	dc400115 	stw	r17,4(sp)
  100eb0:	dfc00215 	stw	ra,8(sp)
  100eb4:	80800e17 	ldw	r2,56(r16)
  100eb8:	2023883a 	mov	r17,r4
  100ebc:	10002626 	beq	r2,zero,100f58 <__sfp+0xc0>
  100ec0:	8400b804 	addi	r16,r16,736
  100ec4:	80800117 	ldw	r2,4(r16)
  100ec8:	81000217 	ldw	r4,8(r16)
  100ecc:	10ffffc4 	addi	r3,r2,-1
  100ed0:	18000916 	blt	r3,zero,100ef8 <__sfp+0x60>
  100ed4:	2080030f 	ldh	r2,12(r4)
  100ed8:	10000b26 	beq	r2,zero,100f08 <__sfp+0x70>
  100edc:	017fffc4 	movi	r5,-1
  100ee0:	00000206 	br	100eec <__sfp+0x54>
  100ee4:	2080030f 	ldh	r2,12(r4)
  100ee8:	10000726 	beq	r2,zero,100f08 <__sfp+0x70>
  100eec:	18ffffc4 	addi	r3,r3,-1
  100ef0:	21001704 	addi	r4,r4,92
  100ef4:	197ffb1e 	bne	r3,r5,100ee4 <__sfp+0x4c>
  100ef8:	80800017 	ldw	r2,0(r16)
  100efc:	10001926 	beq	r2,zero,100f64 <__sfp+0xcc>
  100f00:	1021883a 	mov	r16,r2
  100f04:	003fef06 	br	100ec4 <__sfp+0x2c>
  100f08:	00bfffc4 	movi	r2,-1
  100f0c:	00c00044 	movi	r3,1
  100f10:	2080038d 	sth	r2,14(r4)
  100f14:	20c0030d 	sth	r3,12(r4)
  100f18:	20000015 	stw	zero,0(r4)
  100f1c:	20000215 	stw	zero,8(r4)
  100f20:	20000115 	stw	zero,4(r4)
  100f24:	20000415 	stw	zero,16(r4)
  100f28:	20000515 	stw	zero,20(r4)
  100f2c:	20000615 	stw	zero,24(r4)
  100f30:	20000c15 	stw	zero,48(r4)
  100f34:	20000d15 	stw	zero,52(r4)
  100f38:	20001115 	stw	zero,68(r4)
  100f3c:	20001215 	stw	zero,72(r4)
  100f40:	2005883a 	mov	r2,r4
  100f44:	dfc00217 	ldw	ra,8(sp)
  100f48:	dc400117 	ldw	r17,4(sp)
  100f4c:	dc000017 	ldw	r16,0(sp)
  100f50:	dec00304 	addi	sp,sp,12
  100f54:	f800283a 	ret
  100f58:	8009883a 	mov	r4,r16
  100f5c:	0100cfc0 	call	100cfc <__sinit>
  100f60:	003fd706 	br	100ec0 <__sfp+0x28>
  100f64:	8809883a 	mov	r4,r17
  100f68:	01400104 	movi	r5,4
  100f6c:	0100dfc0 	call	100dfc <__sfmoreglue>
  100f70:	80800015 	stw	r2,0(r16)
  100f74:	103fe21e 	bne	r2,zero,100f00 <__sfp+0x68>
  100f78:	00800304 	movi	r2,12
  100f7c:	0009883a 	mov	r4,zero
  100f80:	88800015 	stw	r2,0(r17)
  100f84:	003fee06 	br	100f40 <__sfp+0xa8>

00100f88 <_malloc_trim_r>:
  100f88:	defffb04 	addi	sp,sp,-20
  100f8c:	dcc00315 	stw	r19,12(sp)
  100f90:	04c00474 	movhi	r19,17
  100f94:	9cefb604 	addi	r19,r19,-16680
  100f98:	dc800215 	stw	r18,8(sp)
  100f9c:	dc400115 	stw	r17,4(sp)
  100fa0:	dc000015 	stw	r16,0(sp)
  100fa4:	2823883a 	mov	r17,r5
  100fa8:	2025883a 	mov	r18,r4
  100fac:	dfc00415 	stw	ra,16(sp)
  100fb0:	01038180 	call	103818 <__malloc_lock>
  100fb4:	98800217 	ldw	r2,8(r19)
  100fb8:	9009883a 	mov	r4,r18
  100fbc:	000b883a 	mov	r5,zero
  100fc0:	10c00117 	ldw	r3,4(r2)
  100fc4:	00bfff04 	movi	r2,-4
  100fc8:	18a0703a 	and	r16,r3,r2
  100fcc:	8463c83a 	sub	r17,r16,r17
  100fd0:	8c43fbc4 	addi	r17,r17,4079
  100fd4:	8822d33a 	srli	r17,r17,12
  100fd8:	0083ffc4 	movi	r2,4095
  100fdc:	8c7fffc4 	addi	r17,r17,-1
  100fe0:	8822933a 	slli	r17,r17,12
  100fe4:	1440060e 	bge	r2,r17,101000 <_malloc_trim_r+0x78>
  100fe8:	0102b080 	call	102b08 <_sbrk_r>
  100fec:	98c00217 	ldw	r3,8(r19)
  100ff0:	9009883a 	mov	r4,r18
  100ff4:	044bc83a 	sub	r5,zero,r17
  100ff8:	80c7883a 	add	r3,r16,r3
  100ffc:	10c00926 	beq	r2,r3,101024 <_malloc_trim_r+0x9c>
  101000:	01037bc0 	call	1037bc <__malloc_unlock>
  101004:	0005883a 	mov	r2,zero
  101008:	dfc00417 	ldw	ra,16(sp)
  10100c:	dcc00317 	ldw	r19,12(sp)
  101010:	dc800217 	ldw	r18,8(sp)
  101014:	dc400117 	ldw	r17,4(sp)
  101018:	dc000017 	ldw	r16,0(sp)
  10101c:	dec00504 	addi	sp,sp,20
  101020:	f800283a 	ret
  101024:	9009883a 	mov	r4,r18
  101028:	0102b080 	call	102b08 <_sbrk_r>
  10102c:	844dc83a 	sub	r6,r16,r17
  101030:	00ffffc4 	movi	r3,-1
  101034:	9009883a 	mov	r4,r18
  101038:	000b883a 	mov	r5,zero
  10103c:	01c00474 	movhi	r7,17
  101040:	39fc6104 	addi	r7,r7,-3708
  101044:	31800054 	ori	r6,r6,1
  101048:	10c00926 	beq	r2,r3,101070 <_malloc_trim_r+0xe8>
  10104c:	38800017 	ldw	r2,0(r7)
  101050:	98c00217 	ldw	r3,8(r19)
  101054:	9009883a 	mov	r4,r18
  101058:	1445c83a 	sub	r2,r2,r17
  10105c:	38800015 	stw	r2,0(r7)
  101060:	19800115 	stw	r6,4(r3)
  101064:	01037bc0 	call	1037bc <__malloc_unlock>
  101068:	00800044 	movi	r2,1
  10106c:	003fe606 	br	101008 <_malloc_trim_r+0x80>
  101070:	0102b080 	call	102b08 <_sbrk_r>
  101074:	99800217 	ldw	r6,8(r19)
  101078:	100f883a 	mov	r7,r2
  10107c:	9009883a 	mov	r4,r18
  101080:	1187c83a 	sub	r3,r2,r6
  101084:	008003c4 	movi	r2,15
  101088:	19400054 	ori	r5,r3,1
  10108c:	10ffdc0e 	bge	r2,r3,101000 <_malloc_trim_r+0x78>
  101090:	00800474 	movhi	r2,17
  101094:	10b54b04 	addi	r2,r2,-10964
  101098:	10c00017 	ldw	r3,0(r2)
  10109c:	00800474 	movhi	r2,17
  1010a0:	10bc6104 	addi	r2,r2,-3708
  1010a4:	31400115 	stw	r5,4(r6)
  1010a8:	38c7c83a 	sub	r3,r7,r3
  1010ac:	10c00015 	stw	r3,0(r2)
  1010b0:	003fd306 	br	101000 <_malloc_trim_r+0x78>

001010b4 <_free_r>:
  1010b4:	defffd04 	addi	sp,sp,-12
  1010b8:	dc400115 	stw	r17,4(sp)
  1010bc:	dc000015 	stw	r16,0(sp)
  1010c0:	dfc00215 	stw	ra,8(sp)
  1010c4:	2821883a 	mov	r16,r5
  1010c8:	2023883a 	mov	r17,r4
  1010cc:	28005a26 	beq	r5,zero,101238 <_free_r+0x184>
  1010d0:	01038180 	call	103818 <__malloc_lock>
  1010d4:	823ffe04 	addi	r8,r16,-8
  1010d8:	41400117 	ldw	r5,4(r8)
  1010dc:	00bfff84 	movi	r2,-2
  1010e0:	02800474 	movhi	r10,17
  1010e4:	52afb604 	addi	r10,r10,-16680
  1010e8:	288e703a 	and	r7,r5,r2
  1010ec:	41cd883a 	add	r6,r8,r7
  1010f0:	30c00117 	ldw	r3,4(r6)
  1010f4:	51000217 	ldw	r4,8(r10)
  1010f8:	00bfff04 	movi	r2,-4
  1010fc:	1892703a 	and	r9,r3,r2
  101100:	5017883a 	mov	r11,r10
  101104:	31006726 	beq	r6,r4,1012a4 <_free_r+0x1f0>
  101108:	2880004c 	andi	r2,r5,1
  10110c:	1005003a 	cmpeq	r2,r2,zero
  101110:	32400115 	stw	r9,4(r6)
  101114:	10001a1e 	bne	r2,zero,101180 <_free_r+0xcc>
  101118:	000b883a 	mov	r5,zero
  10111c:	3247883a 	add	r3,r6,r9
  101120:	18800117 	ldw	r2,4(r3)
  101124:	1080004c 	andi	r2,r2,1
  101128:	1000231e 	bne	r2,zero,1011b8 <_free_r+0x104>
  10112c:	280ac03a 	cmpne	r5,r5,zero
  101130:	3a4f883a 	add	r7,r7,r9
  101134:	2800451e 	bne	r5,zero,10124c <_free_r+0x198>
  101138:	31000217 	ldw	r4,8(r6)
  10113c:	00800474 	movhi	r2,17
  101140:	10afb804 	addi	r2,r2,-16672
  101144:	20807b26 	beq	r4,r2,101334 <_free_r+0x280>
  101148:	30800317 	ldw	r2,12(r6)
  10114c:	3a07883a 	add	r3,r7,r8
  101150:	19c00015 	stw	r7,0(r3)
  101154:	11000215 	stw	r4,8(r2)
  101158:	20800315 	stw	r2,12(r4)
  10115c:	38800054 	ori	r2,r7,1
  101160:	40800115 	stw	r2,4(r8)
  101164:	28001a26 	beq	r5,zero,1011d0 <_free_r+0x11c>
  101168:	8809883a 	mov	r4,r17
  10116c:	dfc00217 	ldw	ra,8(sp)
  101170:	dc400117 	ldw	r17,4(sp)
  101174:	dc000017 	ldw	r16,0(sp)
  101178:	dec00304 	addi	sp,sp,12
  10117c:	01037bc1 	jmpi	1037bc <__malloc_unlock>
  101180:	80bffe17 	ldw	r2,-8(r16)
  101184:	50c00204 	addi	r3,r10,8
  101188:	4091c83a 	sub	r8,r8,r2
  10118c:	41000217 	ldw	r4,8(r8)
  101190:	388f883a 	add	r7,r7,r2
  101194:	20c06126 	beq	r4,r3,10131c <_free_r+0x268>
  101198:	40800317 	ldw	r2,12(r8)
  10119c:	3247883a 	add	r3,r6,r9
  1011a0:	000b883a 	mov	r5,zero
  1011a4:	11000215 	stw	r4,8(r2)
  1011a8:	20800315 	stw	r2,12(r4)
  1011ac:	18800117 	ldw	r2,4(r3)
  1011b0:	1080004c 	andi	r2,r2,1
  1011b4:	103fdd26 	beq	r2,zero,10112c <_free_r+0x78>
  1011b8:	38800054 	ori	r2,r7,1
  1011bc:	3a07883a 	add	r3,r7,r8
  1011c0:	280ac03a 	cmpne	r5,r5,zero
  1011c4:	40800115 	stw	r2,4(r8)
  1011c8:	19c00015 	stw	r7,0(r3)
  1011cc:	283fe61e 	bne	r5,zero,101168 <_free_r+0xb4>
  1011d0:	00807fc4 	movi	r2,511
  1011d4:	11c01f2e 	bgeu	r2,r7,101254 <_free_r+0x1a0>
  1011d8:	3806d27a 	srli	r3,r7,9
  1011dc:	1800481e 	bne	r3,zero,101300 <_free_r+0x24c>
  1011e0:	3804d0fa 	srli	r2,r7,3
  1011e4:	100690fa 	slli	r3,r2,3
  1011e8:	1acd883a 	add	r6,r3,r11
  1011ec:	31400217 	ldw	r5,8(r6)
  1011f0:	31405926 	beq	r6,r5,101358 <_free_r+0x2a4>
  1011f4:	28800117 	ldw	r2,4(r5)
  1011f8:	00ffff04 	movi	r3,-4
  1011fc:	10c4703a 	and	r2,r2,r3
  101200:	3880022e 	bgeu	r7,r2,10120c <_free_r+0x158>
  101204:	29400217 	ldw	r5,8(r5)
  101208:	317ffa1e 	bne	r6,r5,1011f4 <_free_r+0x140>
  10120c:	29800317 	ldw	r6,12(r5)
  101210:	41800315 	stw	r6,12(r8)
  101214:	41400215 	stw	r5,8(r8)
  101218:	8809883a 	mov	r4,r17
  10121c:	2a000315 	stw	r8,12(r5)
  101220:	32000215 	stw	r8,8(r6)
  101224:	dfc00217 	ldw	ra,8(sp)
  101228:	dc400117 	ldw	r17,4(sp)
  10122c:	dc000017 	ldw	r16,0(sp)
  101230:	dec00304 	addi	sp,sp,12
  101234:	01037bc1 	jmpi	1037bc <__malloc_unlock>
  101238:	dfc00217 	ldw	ra,8(sp)
  10123c:	dc400117 	ldw	r17,4(sp)
  101240:	dc000017 	ldw	r16,0(sp)
  101244:	dec00304 	addi	sp,sp,12
  101248:	f800283a 	ret
  10124c:	31000217 	ldw	r4,8(r6)
  101250:	003fbd06 	br	101148 <_free_r+0x94>
  101254:	3806d0fa 	srli	r3,r7,3
  101258:	00800044 	movi	r2,1
  10125c:	51400117 	ldw	r5,4(r10)
  101260:	180890fa 	slli	r4,r3,3
  101264:	1807d0ba 	srai	r3,r3,2
  101268:	22c9883a 	add	r4,r4,r11
  10126c:	21800217 	ldw	r6,8(r4)
  101270:	10c4983a 	sll	r2,r2,r3
  101274:	41000315 	stw	r4,12(r8)
  101278:	41800215 	stw	r6,8(r8)
  10127c:	288ab03a 	or	r5,r5,r2
  101280:	22000215 	stw	r8,8(r4)
  101284:	8809883a 	mov	r4,r17
  101288:	51400115 	stw	r5,4(r10)
  10128c:	32000315 	stw	r8,12(r6)
  101290:	dfc00217 	ldw	ra,8(sp)
  101294:	dc400117 	ldw	r17,4(sp)
  101298:	dc000017 	ldw	r16,0(sp)
  10129c:	dec00304 	addi	sp,sp,12
  1012a0:	01037bc1 	jmpi	1037bc <__malloc_unlock>
  1012a4:	2880004c 	andi	r2,r5,1
  1012a8:	3a4d883a 	add	r6,r7,r9
  1012ac:	1000071e 	bne	r2,zero,1012cc <_free_r+0x218>
  1012b0:	80bffe17 	ldw	r2,-8(r16)
  1012b4:	4091c83a 	sub	r8,r8,r2
  1012b8:	41000317 	ldw	r4,12(r8)
  1012bc:	40c00217 	ldw	r3,8(r8)
  1012c0:	308d883a 	add	r6,r6,r2
  1012c4:	20c00215 	stw	r3,8(r4)
  1012c8:	19000315 	stw	r4,12(r3)
  1012cc:	00800474 	movhi	r2,17
  1012d0:	10b54a04 	addi	r2,r2,-10968
  1012d4:	11000017 	ldw	r4,0(r2)
  1012d8:	30c00054 	ori	r3,r6,1
  1012dc:	52000215 	stw	r8,8(r10)
  1012e0:	40c00115 	stw	r3,4(r8)
  1012e4:	313fa036 	bltu	r6,r4,101168 <_free_r+0xb4>
  1012e8:	00800474 	movhi	r2,17
  1012ec:	10bc3704 	addi	r2,r2,-3876
  1012f0:	11400017 	ldw	r5,0(r2)
  1012f4:	8809883a 	mov	r4,r17
  1012f8:	0100f880 	call	100f88 <_malloc_trim_r>
  1012fc:	003f9a06 	br	101168 <_free_r+0xb4>
  101300:	00800104 	movi	r2,4
  101304:	10c0072e 	bgeu	r2,r3,101324 <_free_r+0x270>
  101308:	00800504 	movi	r2,20
  10130c:	10c01936 	bltu	r2,r3,101374 <_free_r+0x2c0>
  101310:	188016c4 	addi	r2,r3,91
  101314:	100690fa 	slli	r3,r2,3
  101318:	003fb306 	br	1011e8 <_free_r+0x134>
  10131c:	01400044 	movi	r5,1
  101320:	003f7e06 	br	10111c <_free_r+0x68>
  101324:	3804d1ba 	srli	r2,r7,6
  101328:	10800e04 	addi	r2,r2,56
  10132c:	100690fa 	slli	r3,r2,3
  101330:	003fad06 	br	1011e8 <_free_r+0x134>
  101334:	22000315 	stw	r8,12(r4)
  101338:	22000215 	stw	r8,8(r4)
  10133c:	3a05883a 	add	r2,r7,r8
  101340:	38c00054 	ori	r3,r7,1
  101344:	11c00015 	stw	r7,0(r2)
  101348:	41000215 	stw	r4,8(r8)
  10134c:	40c00115 	stw	r3,4(r8)
  101350:	41000315 	stw	r4,12(r8)
  101354:	003f8406 	br	101168 <_free_r+0xb4>
  101358:	1005d0ba 	srai	r2,r2,2
  10135c:	00c00044 	movi	r3,1
  101360:	51000117 	ldw	r4,4(r10)
  101364:	1886983a 	sll	r3,r3,r2
  101368:	20c8b03a 	or	r4,r4,r3
  10136c:	51000115 	stw	r4,4(r10)
  101370:	003fa706 	br	101210 <_free_r+0x15c>
  101374:	00801504 	movi	r2,84
  101378:	10c00436 	bltu	r2,r3,10138c <_free_r+0x2d8>
  10137c:	3804d33a 	srli	r2,r7,12
  101380:	10801b84 	addi	r2,r2,110
  101384:	100690fa 	slli	r3,r2,3
  101388:	003f9706 	br	1011e8 <_free_r+0x134>
  10138c:	00805504 	movi	r2,340
  101390:	10c00436 	bltu	r2,r3,1013a4 <_free_r+0x2f0>
  101394:	3804d3fa 	srli	r2,r7,15
  101398:	10801dc4 	addi	r2,r2,119
  10139c:	100690fa 	slli	r3,r2,3
  1013a0:	003f9106 	br	1011e8 <_free_r+0x134>
  1013a4:	00815504 	movi	r2,1364
  1013a8:	10c0032e 	bgeu	r2,r3,1013b8 <_free_r+0x304>
  1013ac:	00801f84 	movi	r2,126
  1013b0:	00c0fc04 	movi	r3,1008
  1013b4:	003f8c06 	br	1011e8 <_free_r+0x134>
  1013b8:	3804d4ba 	srli	r2,r7,18
  1013bc:	10801f04 	addi	r2,r2,124
  1013c0:	100690fa 	slli	r3,r2,3
  1013c4:	003f8806 	br	1011e8 <_free_r+0x134>

001013c8 <__sfvwrite_r>:
  1013c8:	30800217 	ldw	r2,8(r6)
  1013cc:	defff504 	addi	sp,sp,-44
  1013d0:	df000915 	stw	fp,36(sp)
  1013d4:	dd800715 	stw	r22,28(sp)
  1013d8:	dc800315 	stw	r18,12(sp)
  1013dc:	dfc00a15 	stw	ra,40(sp)
  1013e0:	ddc00815 	stw	r23,32(sp)
  1013e4:	dd400615 	stw	r21,24(sp)
  1013e8:	dd000515 	stw	r20,20(sp)
  1013ec:	dcc00415 	stw	r19,16(sp)
  1013f0:	dc400215 	stw	r17,8(sp)
  1013f4:	dc000115 	stw	r16,4(sp)
  1013f8:	302d883a 	mov	r22,r6
  1013fc:	2039883a 	mov	fp,r4
  101400:	2825883a 	mov	r18,r5
  101404:	10001c26 	beq	r2,zero,101478 <__sfvwrite_r+0xb0>
  101408:	29c0030b 	ldhu	r7,12(r5)
  10140c:	3880020c 	andi	r2,r7,8
  101410:	10002726 	beq	r2,zero,1014b0 <__sfvwrite_r+0xe8>
  101414:	28800417 	ldw	r2,16(r5)
  101418:	10002526 	beq	r2,zero,1014b0 <__sfvwrite_r+0xe8>
  10141c:	3880008c 	andi	r2,r7,2
  101420:	b5400017 	ldw	r21,0(r22)
  101424:	10002826 	beq	r2,zero,1014c8 <__sfvwrite_r+0x100>
  101428:	0021883a 	mov	r16,zero
  10142c:	0023883a 	mov	r17,zero
  101430:	880d883a 	mov	r6,r17
  101434:	e009883a 	mov	r4,fp
  101438:	00810004 	movi	r2,1024
  10143c:	80006e26 	beq	r16,zero,1015f8 <__sfvwrite_r+0x230>
  101440:	800f883a 	mov	r7,r16
  101444:	91400717 	ldw	r5,28(r18)
  101448:	1400012e 	bgeu	r2,r16,101450 <__sfvwrite_r+0x88>
  10144c:	100f883a 	mov	r7,r2
  101450:	90c00917 	ldw	r3,36(r18)
  101454:	183ee83a 	callr	r3
  101458:	1007883a 	mov	r3,r2
  10145c:	80a1c83a 	sub	r16,r16,r2
  101460:	88a3883a 	add	r17,r17,r2
  101464:	00806d0e 	bge	zero,r2,10161c <__sfvwrite_r+0x254>
  101468:	b0800217 	ldw	r2,8(r22)
  10146c:	10c5c83a 	sub	r2,r2,r3
  101470:	b0800215 	stw	r2,8(r22)
  101474:	103fee1e 	bne	r2,zero,101430 <__sfvwrite_r+0x68>
  101478:	0009883a 	mov	r4,zero
  10147c:	2005883a 	mov	r2,r4
  101480:	dfc00a17 	ldw	ra,40(sp)
  101484:	df000917 	ldw	fp,36(sp)
  101488:	ddc00817 	ldw	r23,32(sp)
  10148c:	dd800717 	ldw	r22,28(sp)
  101490:	dd400617 	ldw	r21,24(sp)
  101494:	dd000517 	ldw	r20,20(sp)
  101498:	dcc00417 	ldw	r19,16(sp)
  10149c:	dc800317 	ldw	r18,12(sp)
  1014a0:	dc400217 	ldw	r17,8(sp)
  1014a4:	dc000117 	ldw	r16,4(sp)
  1014a8:	dec00b04 	addi	sp,sp,44
  1014ac:	f800283a 	ret
  1014b0:	01009280 	call	100928 <__swsetup_r>
  1014b4:	1000e41e 	bne	r2,zero,101848 <__sfvwrite_r+0x480>
  1014b8:	91c0030b 	ldhu	r7,12(r18)
  1014bc:	b5400017 	ldw	r21,0(r22)
  1014c0:	3880008c 	andi	r2,r7,2
  1014c4:	103fd81e 	bne	r2,zero,101428 <__sfvwrite_r+0x60>
  1014c8:	3880004c 	andi	r2,r7,1
  1014cc:	1005003a 	cmpeq	r2,r2,zero
  1014d0:	10005726 	beq	r2,zero,101630 <__sfvwrite_r+0x268>
  1014d4:	0029883a 	mov	r20,zero
  1014d8:	002f883a 	mov	r23,zero
  1014dc:	a0004226 	beq	r20,zero,1015e8 <__sfvwrite_r+0x220>
  1014e0:	3880800c 	andi	r2,r7,512
  1014e4:	94000217 	ldw	r16,8(r18)
  1014e8:	10008b26 	beq	r2,zero,101718 <__sfvwrite_r+0x350>
  1014ec:	800d883a 	mov	r6,r16
  1014f0:	a400a536 	bltu	r20,r16,101788 <__sfvwrite_r+0x3c0>
  1014f4:	3881200c 	andi	r2,r7,1152
  1014f8:	10002726 	beq	r2,zero,101598 <__sfvwrite_r+0x1d0>
  1014fc:	90800517 	ldw	r2,20(r18)
  101500:	92000417 	ldw	r8,16(r18)
  101504:	91400017 	ldw	r5,0(r18)
  101508:	1087883a 	add	r3,r2,r2
  10150c:	1887883a 	add	r3,r3,r2
  101510:	1808d7fa 	srli	r4,r3,31
  101514:	2a21c83a 	sub	r16,r5,r8
  101518:	80800044 	addi	r2,r16,1
  10151c:	20c9883a 	add	r4,r4,r3
  101520:	2027d07a 	srai	r19,r4,1
  101524:	a085883a 	add	r2,r20,r2
  101528:	980d883a 	mov	r6,r19
  10152c:	9880022e 	bgeu	r19,r2,101538 <__sfvwrite_r+0x170>
  101530:	1027883a 	mov	r19,r2
  101534:	100d883a 	mov	r6,r2
  101538:	3881000c 	andi	r2,r7,1024
  10153c:	1000b826 	beq	r2,zero,101820 <__sfvwrite_r+0x458>
  101540:	300b883a 	mov	r5,r6
  101544:	e009883a 	mov	r4,fp
  101548:	0101b780 	call	101b78 <_malloc_r>
  10154c:	10003126 	beq	r2,zero,101614 <__sfvwrite_r+0x24c>
  101550:	91400417 	ldw	r5,16(r18)
  101554:	1009883a 	mov	r4,r2
  101558:	800d883a 	mov	r6,r16
  10155c:	1023883a 	mov	r17,r2
  101560:	01004280 	call	100428 <memcpy>
  101564:	90c0030b 	ldhu	r3,12(r18)
  101568:	00beffc4 	movi	r2,-1025
  10156c:	1886703a 	and	r3,r3,r2
  101570:	18c02014 	ori	r3,r3,128
  101574:	90c0030d 	sth	r3,12(r18)
  101578:	9c07c83a 	sub	r3,r19,r16
  10157c:	8c05883a 	add	r2,r17,r16
  101580:	a00d883a 	mov	r6,r20
  101584:	a021883a 	mov	r16,r20
  101588:	90800015 	stw	r2,0(r18)
  10158c:	90c00215 	stw	r3,8(r18)
  101590:	94400415 	stw	r17,16(r18)
  101594:	94c00515 	stw	r19,20(r18)
  101598:	91000017 	ldw	r4,0(r18)
  10159c:	b80b883a 	mov	r5,r23
  1015a0:	a023883a 	mov	r17,r20
  1015a4:	010239c0 	call	10239c <memmove>
  1015a8:	90c00217 	ldw	r3,8(r18)
  1015ac:	90800017 	ldw	r2,0(r18)
  1015b0:	a027883a 	mov	r19,r20
  1015b4:	1c07c83a 	sub	r3,r3,r16
  1015b8:	1405883a 	add	r2,r2,r16
  1015bc:	90c00215 	stw	r3,8(r18)
  1015c0:	a021883a 	mov	r16,r20
  1015c4:	90800015 	stw	r2,0(r18)
  1015c8:	b0800217 	ldw	r2,8(r22)
  1015cc:	1405c83a 	sub	r2,r2,r16
  1015d0:	b0800215 	stw	r2,8(r22)
  1015d4:	103fa826 	beq	r2,zero,101478 <__sfvwrite_r+0xb0>
  1015d8:	a469c83a 	sub	r20,r20,r17
  1015dc:	91c0030b 	ldhu	r7,12(r18)
  1015e0:	bcef883a 	add	r23,r23,r19
  1015e4:	a03fbe1e 	bne	r20,zero,1014e0 <__sfvwrite_r+0x118>
  1015e8:	adc00017 	ldw	r23,0(r21)
  1015ec:	ad000117 	ldw	r20,4(r21)
  1015f0:	ad400204 	addi	r21,r21,8
  1015f4:	003fb906 	br	1014dc <__sfvwrite_r+0x114>
  1015f8:	ac400017 	ldw	r17,0(r21)
  1015fc:	ac000117 	ldw	r16,4(r21)
  101600:	ad400204 	addi	r21,r21,8
  101604:	003f8a06 	br	101430 <__sfvwrite_r+0x68>
  101608:	91400417 	ldw	r5,16(r18)
  10160c:	e009883a 	mov	r4,fp
  101610:	01010b40 	call	1010b4 <_free_r>
  101614:	00800304 	movi	r2,12
  101618:	e0800015 	stw	r2,0(fp)
  10161c:	9080030b 	ldhu	r2,12(r18)
  101620:	013fffc4 	movi	r4,-1
  101624:	10801014 	ori	r2,r2,64
  101628:	9080030d 	sth	r2,12(r18)
  10162c:	003f9306 	br	10147c <__sfvwrite_r+0xb4>
  101630:	0027883a 	mov	r19,zero
  101634:	002f883a 	mov	r23,zero
  101638:	d8000015 	stw	zero,0(sp)
  10163c:	0029883a 	mov	r20,zero
  101640:	98001e26 	beq	r19,zero,1016bc <__sfvwrite_r+0x2f4>
  101644:	d8c00017 	ldw	r3,0(sp)
  101648:	1804c03a 	cmpne	r2,r3,zero
  10164c:	10005e26 	beq	r2,zero,1017c8 <__sfvwrite_r+0x400>
  101650:	9821883a 	mov	r16,r19
  101654:	a4c0012e 	bgeu	r20,r19,10165c <__sfvwrite_r+0x294>
  101658:	a021883a 	mov	r16,r20
  10165c:	91000017 	ldw	r4,0(r18)
  101660:	90800417 	ldw	r2,16(r18)
  101664:	91800217 	ldw	r6,8(r18)
  101668:	91c00517 	ldw	r7,20(r18)
  10166c:	1100022e 	bgeu	r2,r4,101678 <__sfvwrite_r+0x2b0>
  101670:	31e3883a 	add	r17,r6,r7
  101674:	8c001616 	blt	r17,r16,1016d0 <__sfvwrite_r+0x308>
  101678:	81c03816 	blt	r16,r7,10175c <__sfvwrite_r+0x394>
  10167c:	90c00917 	ldw	r3,36(r18)
  101680:	91400717 	ldw	r5,28(r18)
  101684:	e009883a 	mov	r4,fp
  101688:	b80d883a 	mov	r6,r23
  10168c:	183ee83a 	callr	r3
  101690:	1023883a 	mov	r17,r2
  101694:	00bfe10e 	bge	zero,r2,10161c <__sfvwrite_r+0x254>
  101698:	a469c83a 	sub	r20,r20,r17
  10169c:	a0001826 	beq	r20,zero,101700 <__sfvwrite_r+0x338>
  1016a0:	b0800217 	ldw	r2,8(r22)
  1016a4:	1445c83a 	sub	r2,r2,r17
  1016a8:	b0800215 	stw	r2,8(r22)
  1016ac:	103f7226 	beq	r2,zero,101478 <__sfvwrite_r+0xb0>
  1016b0:	9c67c83a 	sub	r19,r19,r17
  1016b4:	bc6f883a 	add	r23,r23,r17
  1016b8:	983fe21e 	bne	r19,zero,101644 <__sfvwrite_r+0x27c>
  1016bc:	adc00017 	ldw	r23,0(r21)
  1016c0:	acc00117 	ldw	r19,4(r21)
  1016c4:	ad400204 	addi	r21,r21,8
  1016c8:	d8000015 	stw	zero,0(sp)
  1016cc:	003fdc06 	br	101640 <__sfvwrite_r+0x278>
  1016d0:	b80b883a 	mov	r5,r23
  1016d4:	880d883a 	mov	r6,r17
  1016d8:	010239c0 	call	10239c <memmove>
  1016dc:	90c00017 	ldw	r3,0(r18)
  1016e0:	e009883a 	mov	r4,fp
  1016e4:	900b883a 	mov	r5,r18
  1016e8:	1c47883a 	add	r3,r3,r17
  1016ec:	90c00015 	stw	r3,0(r18)
  1016f0:	0100a640 	call	100a64 <_fflush_r>
  1016f4:	103fc91e 	bne	r2,zero,10161c <__sfvwrite_r+0x254>
  1016f8:	a469c83a 	sub	r20,r20,r17
  1016fc:	a03fe81e 	bne	r20,zero,1016a0 <__sfvwrite_r+0x2d8>
  101700:	e009883a 	mov	r4,fp
  101704:	900b883a 	mov	r5,r18
  101708:	0100a640 	call	100a64 <_fflush_r>
  10170c:	103fc31e 	bne	r2,zero,10161c <__sfvwrite_r+0x254>
  101710:	d8000015 	stw	zero,0(sp)
  101714:	003fe206 	br	1016a0 <__sfvwrite_r+0x2d8>
  101718:	91000017 	ldw	r4,0(r18)
  10171c:	90800417 	ldw	r2,16(r18)
  101720:	1100022e 	bgeu	r2,r4,10172c <__sfvwrite_r+0x364>
  101724:	8023883a 	mov	r17,r16
  101728:	85003136 	bltu	r16,r20,1017f0 <__sfvwrite_r+0x428>
  10172c:	91c00517 	ldw	r7,20(r18)
  101730:	a1c01836 	bltu	r20,r7,101794 <__sfvwrite_r+0x3cc>
  101734:	90c00917 	ldw	r3,36(r18)
  101738:	91400717 	ldw	r5,28(r18)
  10173c:	e009883a 	mov	r4,fp
  101740:	b80d883a 	mov	r6,r23
  101744:	183ee83a 	callr	r3
  101748:	1021883a 	mov	r16,r2
  10174c:	00bfb30e 	bge	zero,r2,10161c <__sfvwrite_r+0x254>
  101750:	1023883a 	mov	r17,r2
  101754:	1027883a 	mov	r19,r2
  101758:	003f9b06 	br	1015c8 <__sfvwrite_r+0x200>
  10175c:	b80b883a 	mov	r5,r23
  101760:	800d883a 	mov	r6,r16
  101764:	010239c0 	call	10239c <memmove>
  101768:	90c00217 	ldw	r3,8(r18)
  10176c:	90800017 	ldw	r2,0(r18)
  101770:	8023883a 	mov	r17,r16
  101774:	1c07c83a 	sub	r3,r3,r16
  101778:	1405883a 	add	r2,r2,r16
  10177c:	90c00215 	stw	r3,8(r18)
  101780:	90800015 	stw	r2,0(r18)
  101784:	003fc406 	br	101698 <__sfvwrite_r+0x2d0>
  101788:	a00d883a 	mov	r6,r20
  10178c:	a021883a 	mov	r16,r20
  101790:	003f8106 	br	101598 <__sfvwrite_r+0x1d0>
  101794:	b80b883a 	mov	r5,r23
  101798:	a00d883a 	mov	r6,r20
  10179c:	010239c0 	call	10239c <memmove>
  1017a0:	90c00217 	ldw	r3,8(r18)
  1017a4:	90800017 	ldw	r2,0(r18)
  1017a8:	a021883a 	mov	r16,r20
  1017ac:	1d07c83a 	sub	r3,r3,r20
  1017b0:	1505883a 	add	r2,r2,r20
  1017b4:	a023883a 	mov	r17,r20
  1017b8:	a027883a 	mov	r19,r20
  1017bc:	90c00215 	stw	r3,8(r18)
  1017c0:	90800015 	stw	r2,0(r18)
  1017c4:	003f8006 	br	1015c8 <__sfvwrite_r+0x200>
  1017c8:	b809883a 	mov	r4,r23
  1017cc:	01400284 	movi	r5,10
  1017d0:	980d883a 	mov	r6,r19
  1017d4:	01022b80 	call	1022b8 <memchr>
  1017d8:	10001726 	beq	r2,zero,101838 <__sfvwrite_r+0x470>
  1017dc:	15c5c83a 	sub	r2,r2,r23
  1017e0:	15000044 	addi	r20,r2,1
  1017e4:	00800044 	movi	r2,1
  1017e8:	d8800015 	stw	r2,0(sp)
  1017ec:	003f9806 	br	101650 <__sfvwrite_r+0x288>
  1017f0:	b80b883a 	mov	r5,r23
  1017f4:	800d883a 	mov	r6,r16
  1017f8:	010239c0 	call	10239c <memmove>
  1017fc:	90c00017 	ldw	r3,0(r18)
  101800:	e009883a 	mov	r4,fp
  101804:	900b883a 	mov	r5,r18
  101808:	1c07883a 	add	r3,r3,r16
  10180c:	90c00015 	stw	r3,0(r18)
  101810:	8027883a 	mov	r19,r16
  101814:	0100a640 	call	100a64 <_fflush_r>
  101818:	103f6b26 	beq	r2,zero,1015c8 <__sfvwrite_r+0x200>
  10181c:	003f7f06 	br	10161c <__sfvwrite_r+0x254>
  101820:	400b883a 	mov	r5,r8
  101824:	e009883a 	mov	r4,fp
  101828:	01025140 	call	102514 <_realloc_r>
  10182c:	103f7626 	beq	r2,zero,101608 <__sfvwrite_r+0x240>
  101830:	1023883a 	mov	r17,r2
  101834:	003f5006 	br	101578 <__sfvwrite_r+0x1b0>
  101838:	00c00044 	movi	r3,1
  10183c:	9d000044 	addi	r20,r19,1
  101840:	d8c00015 	stw	r3,0(sp)
  101844:	003f8206 	br	101650 <__sfvwrite_r+0x288>
  101848:	9080030b 	ldhu	r2,12(r18)
  10184c:	00c00244 	movi	r3,9
  101850:	013fffc4 	movi	r4,-1
  101854:	10801014 	ori	r2,r2,64
  101858:	9080030d 	sth	r2,12(r18)
  10185c:	e0c00015 	stw	r3,0(fp)
  101860:	003f0606 	br	10147c <__sfvwrite_r+0xb4>

00101864 <_fwalk_reent>:
  101864:	defff704 	addi	sp,sp,-36
  101868:	dcc00315 	stw	r19,12(sp)
  10186c:	24c0b804 	addi	r19,r4,736
  101870:	dd800615 	stw	r22,24(sp)
  101874:	dd400515 	stw	r21,20(sp)
  101878:	dfc00815 	stw	ra,32(sp)
  10187c:	ddc00715 	stw	r23,28(sp)
  101880:	dd000415 	stw	r20,16(sp)
  101884:	dc800215 	stw	r18,8(sp)
  101888:	dc400115 	stw	r17,4(sp)
  10188c:	dc000015 	stw	r16,0(sp)
  101890:	202b883a 	mov	r21,r4
  101894:	282d883a 	mov	r22,r5
  101898:	0100cec0 	call	100cec <__sfp_lock_acquire>
  10189c:	98002126 	beq	r19,zero,101924 <_fwalk_reent+0xc0>
  1018a0:	002f883a 	mov	r23,zero
  1018a4:	9c800117 	ldw	r18,4(r19)
  1018a8:	9c000217 	ldw	r16,8(r19)
  1018ac:	90bfffc4 	addi	r2,r18,-1
  1018b0:	10000d16 	blt	r2,zero,1018e8 <_fwalk_reent+0x84>
  1018b4:	0023883a 	mov	r17,zero
  1018b8:	053fffc4 	movi	r20,-1
  1018bc:	8080030f 	ldh	r2,12(r16)
  1018c0:	8c400044 	addi	r17,r17,1
  1018c4:	10000626 	beq	r2,zero,1018e0 <_fwalk_reent+0x7c>
  1018c8:	8080038f 	ldh	r2,14(r16)
  1018cc:	800b883a 	mov	r5,r16
  1018d0:	a809883a 	mov	r4,r21
  1018d4:	15000226 	beq	r2,r20,1018e0 <_fwalk_reent+0x7c>
  1018d8:	b03ee83a 	callr	r22
  1018dc:	b8aeb03a 	or	r23,r23,r2
  1018e0:	84001704 	addi	r16,r16,92
  1018e4:	947ff51e 	bne	r18,r17,1018bc <_fwalk_reent+0x58>
  1018e8:	9cc00017 	ldw	r19,0(r19)
  1018ec:	983fed1e 	bne	r19,zero,1018a4 <_fwalk_reent+0x40>
  1018f0:	0100cf00 	call	100cf0 <__sfp_lock_release>
  1018f4:	b805883a 	mov	r2,r23
  1018f8:	dfc00817 	ldw	ra,32(sp)
  1018fc:	ddc00717 	ldw	r23,28(sp)
  101900:	dd800617 	ldw	r22,24(sp)
  101904:	dd400517 	ldw	r21,20(sp)
  101908:	dd000417 	ldw	r20,16(sp)
  10190c:	dcc00317 	ldw	r19,12(sp)
  101910:	dc800217 	ldw	r18,8(sp)
  101914:	dc400117 	ldw	r17,4(sp)
  101918:	dc000017 	ldw	r16,0(sp)
  10191c:	dec00904 	addi	sp,sp,36
  101920:	f800283a 	ret
  101924:	002f883a 	mov	r23,zero
  101928:	003ff106 	br	1018f0 <_fwalk_reent+0x8c>

0010192c <_fwalk>:
  10192c:	defff804 	addi	sp,sp,-32
  101930:	dcc00315 	stw	r19,12(sp)
  101934:	24c0b804 	addi	r19,r4,736
  101938:	dd400515 	stw	r21,20(sp)
  10193c:	dfc00715 	stw	ra,28(sp)
  101940:	dd800615 	stw	r22,24(sp)
  101944:	dd000415 	stw	r20,16(sp)
  101948:	dc800215 	stw	r18,8(sp)
  10194c:	dc400115 	stw	r17,4(sp)
  101950:	dc000015 	stw	r16,0(sp)
  101954:	282b883a 	mov	r21,r5
  101958:	0100cec0 	call	100cec <__sfp_lock_acquire>
  10195c:	98001f26 	beq	r19,zero,1019dc <_fwalk+0xb0>
  101960:	002d883a 	mov	r22,zero
  101964:	9c800117 	ldw	r18,4(r19)
  101968:	9c000217 	ldw	r16,8(r19)
  10196c:	90bfffc4 	addi	r2,r18,-1
  101970:	10000c16 	blt	r2,zero,1019a4 <_fwalk+0x78>
  101974:	0023883a 	mov	r17,zero
  101978:	053fffc4 	movi	r20,-1
  10197c:	8080030f 	ldh	r2,12(r16)
  101980:	8c400044 	addi	r17,r17,1
  101984:	10000526 	beq	r2,zero,10199c <_fwalk+0x70>
  101988:	8080038f 	ldh	r2,14(r16)
  10198c:	8009883a 	mov	r4,r16
  101990:	15000226 	beq	r2,r20,10199c <_fwalk+0x70>
  101994:	a83ee83a 	callr	r21
  101998:	b0acb03a 	or	r22,r22,r2
  10199c:	84001704 	addi	r16,r16,92
  1019a0:	947ff61e 	bne	r18,r17,10197c <_fwalk+0x50>
  1019a4:	9cc00017 	ldw	r19,0(r19)
  1019a8:	983fee1e 	bne	r19,zero,101964 <_fwalk+0x38>
  1019ac:	0100cf00 	call	100cf0 <__sfp_lock_release>
  1019b0:	b005883a 	mov	r2,r22
  1019b4:	dfc00717 	ldw	ra,28(sp)
  1019b8:	dd800617 	ldw	r22,24(sp)
  1019bc:	dd400517 	ldw	r21,20(sp)
  1019c0:	dd000417 	ldw	r20,16(sp)
  1019c4:	dcc00317 	ldw	r19,12(sp)
  1019c8:	dc800217 	ldw	r18,8(sp)
  1019cc:	dc400117 	ldw	r17,4(sp)
  1019d0:	dc000017 	ldw	r16,0(sp)
  1019d4:	dec00804 	addi	sp,sp,32
  1019d8:	f800283a 	ret
  1019dc:	002d883a 	mov	r22,zero
  1019e0:	003ff206 	br	1019ac <_fwalk+0x80>

001019e4 <__smakebuf_r>:
  1019e4:	2880030b 	ldhu	r2,12(r5)
  1019e8:	deffed04 	addi	sp,sp,-76
  1019ec:	dc401015 	stw	r17,64(sp)
  1019f0:	1080008c 	andi	r2,r2,2
  1019f4:	dc000f15 	stw	r16,60(sp)
  1019f8:	dfc01215 	stw	ra,72(sp)
  1019fc:	dc801115 	stw	r18,68(sp)
  101a00:	2821883a 	mov	r16,r5
  101a04:	2023883a 	mov	r17,r4
  101a08:	10000b26 	beq	r2,zero,101a38 <__smakebuf_r+0x54>
  101a0c:	28c010c4 	addi	r3,r5,67
  101a10:	00800044 	movi	r2,1
  101a14:	28800515 	stw	r2,20(r5)
  101a18:	28c00415 	stw	r3,16(r5)
  101a1c:	28c00015 	stw	r3,0(r5)
  101a20:	dfc01217 	ldw	ra,72(sp)
  101a24:	dc801117 	ldw	r18,68(sp)
  101a28:	dc401017 	ldw	r17,64(sp)
  101a2c:	dc000f17 	ldw	r16,60(sp)
  101a30:	dec01304 	addi	sp,sp,76
  101a34:	f800283a 	ret
  101a38:	2940038f 	ldh	r5,14(r5)
  101a3c:	28002116 	blt	r5,zero,101ac4 <__smakebuf_r+0xe0>
  101a40:	d80d883a 	mov	r6,sp
  101a44:	0102ed00 	call	102ed0 <_fstat_r>
  101a48:	10001e16 	blt	r2,zero,101ac4 <__smakebuf_r+0xe0>
  101a4c:	d8800117 	ldw	r2,4(sp)
  101a50:	00e00014 	movui	r3,32768
  101a54:	113c000c 	andi	r4,r2,61440
  101a58:	20c03126 	beq	r4,r3,101b20 <__smakebuf_r+0x13c>
  101a5c:	8080030b 	ldhu	r2,12(r16)
  101a60:	00c80004 	movi	r3,8192
  101a64:	10820014 	ori	r2,r2,2048
  101a68:	8080030d 	sth	r2,12(r16)
  101a6c:	20c01e26 	beq	r4,r3,101ae8 <__smakebuf_r+0x104>
  101a70:	04810004 	movi	r18,1024
  101a74:	8809883a 	mov	r4,r17
  101a78:	900b883a 	mov	r5,r18
  101a7c:	0101b780 	call	101b78 <_malloc_r>
  101a80:	1009883a 	mov	r4,r2
  101a84:	10003126 	beq	r2,zero,101b4c <__smakebuf_r+0x168>
  101a88:	80c0030b 	ldhu	r3,12(r16)
  101a8c:	00800434 	movhi	r2,16
  101a90:	10837804 	addi	r2,r2,3552
  101a94:	88800f15 	stw	r2,60(r17)
  101a98:	18c02014 	ori	r3,r3,128
  101a9c:	84800515 	stw	r18,20(r16)
  101aa0:	80c0030d 	sth	r3,12(r16)
  101aa4:	81000415 	stw	r4,16(r16)
  101aa8:	81000015 	stw	r4,0(r16)
  101aac:	dfc01217 	ldw	ra,72(sp)
  101ab0:	dc801117 	ldw	r18,68(sp)
  101ab4:	dc401017 	ldw	r17,64(sp)
  101ab8:	dc000f17 	ldw	r16,60(sp)
  101abc:	dec01304 	addi	sp,sp,76
  101ac0:	f800283a 	ret
  101ac4:	80c0030b 	ldhu	r3,12(r16)
  101ac8:	1880200c 	andi	r2,r3,128
  101acc:	10000426 	beq	r2,zero,101ae0 <__smakebuf_r+0xfc>
  101ad0:	04801004 	movi	r18,64
  101ad4:	18820014 	ori	r2,r3,2048
  101ad8:	8080030d 	sth	r2,12(r16)
  101adc:	003fe506 	br	101a74 <__smakebuf_r+0x90>
  101ae0:	04810004 	movi	r18,1024
  101ae4:	003ffb06 	br	101ad4 <__smakebuf_r+0xf0>
  101ae8:	8140038f 	ldh	r5,14(r16)
  101aec:	8809883a 	mov	r4,r17
  101af0:	0102f440 	call	102f44 <_isatty_r>
  101af4:	103fde26 	beq	r2,zero,101a70 <__smakebuf_r+0x8c>
  101af8:	8080030b 	ldhu	r2,12(r16)
  101afc:	80c010c4 	addi	r3,r16,67
  101b00:	04810004 	movi	r18,1024
  101b04:	10800054 	ori	r2,r2,1
  101b08:	8080030d 	sth	r2,12(r16)
  101b0c:	00800044 	movi	r2,1
  101b10:	80c00415 	stw	r3,16(r16)
  101b14:	80800515 	stw	r2,20(r16)
  101b18:	80c00015 	stw	r3,0(r16)
  101b1c:	003fd506 	br	101a74 <__smakebuf_r+0x90>
  101b20:	80c00a17 	ldw	r3,40(r16)
  101b24:	00800434 	movhi	r2,16
  101b28:	108ae004 	addi	r2,r2,11136
  101b2c:	18bfcb1e 	bne	r3,r2,101a5c <__smakebuf_r+0x78>
  101b30:	8080030b 	ldhu	r2,12(r16)
  101b34:	00c10004 	movi	r3,1024
  101b38:	1825883a 	mov	r18,r3
  101b3c:	10c4b03a 	or	r2,r2,r3
  101b40:	8080030d 	sth	r2,12(r16)
  101b44:	80c01315 	stw	r3,76(r16)
  101b48:	003fca06 	br	101a74 <__smakebuf_r+0x90>
  101b4c:	8100030b 	ldhu	r4,12(r16)
  101b50:	2080800c 	andi	r2,r4,512
  101b54:	103fb21e 	bne	r2,zero,101a20 <__smakebuf_r+0x3c>
  101b58:	80c010c4 	addi	r3,r16,67
  101b5c:	21000094 	ori	r4,r4,2
  101b60:	00800044 	movi	r2,1
  101b64:	80800515 	stw	r2,20(r16)
  101b68:	8100030d 	sth	r4,12(r16)
  101b6c:	80c00415 	stw	r3,16(r16)
  101b70:	80c00015 	stw	r3,0(r16)
  101b74:	003faa06 	br	101a20 <__smakebuf_r+0x3c>

00101b78 <_malloc_r>:
  101b78:	defff604 	addi	sp,sp,-40
  101b7c:	28c002c4 	addi	r3,r5,11
  101b80:	00800584 	movi	r2,22
  101b84:	dc800215 	stw	r18,8(sp)
  101b88:	dfc00915 	stw	ra,36(sp)
  101b8c:	df000815 	stw	fp,32(sp)
  101b90:	ddc00715 	stw	r23,28(sp)
  101b94:	dd800615 	stw	r22,24(sp)
  101b98:	dd400515 	stw	r21,20(sp)
  101b9c:	dd000415 	stw	r20,16(sp)
  101ba0:	dcc00315 	stw	r19,12(sp)
  101ba4:	dc400115 	stw	r17,4(sp)
  101ba8:	dc000015 	stw	r16,0(sp)
  101bac:	2025883a 	mov	r18,r4
  101bb0:	10c01236 	bltu	r2,r3,101bfc <_malloc_r+0x84>
  101bb4:	04400404 	movi	r17,16
  101bb8:	8940142e 	bgeu	r17,r5,101c0c <_malloc_r+0x94>
  101bbc:	00800304 	movi	r2,12
  101bc0:	0007883a 	mov	r3,zero
  101bc4:	90800015 	stw	r2,0(r18)
  101bc8:	1805883a 	mov	r2,r3
  101bcc:	dfc00917 	ldw	ra,36(sp)
  101bd0:	df000817 	ldw	fp,32(sp)
  101bd4:	ddc00717 	ldw	r23,28(sp)
  101bd8:	dd800617 	ldw	r22,24(sp)
  101bdc:	dd400517 	ldw	r21,20(sp)
  101be0:	dd000417 	ldw	r20,16(sp)
  101be4:	dcc00317 	ldw	r19,12(sp)
  101be8:	dc800217 	ldw	r18,8(sp)
  101bec:	dc400117 	ldw	r17,4(sp)
  101bf0:	dc000017 	ldw	r16,0(sp)
  101bf4:	dec00a04 	addi	sp,sp,40
  101bf8:	f800283a 	ret
  101bfc:	00bffe04 	movi	r2,-8
  101c00:	18a2703a 	and	r17,r3,r2
  101c04:	883fed16 	blt	r17,zero,101bbc <_malloc_r+0x44>
  101c08:	897fec36 	bltu	r17,r5,101bbc <_malloc_r+0x44>
  101c0c:	9009883a 	mov	r4,r18
  101c10:	01038180 	call	103818 <__malloc_lock>
  101c14:	00807dc4 	movi	r2,503
  101c18:	14402b2e 	bgeu	r2,r17,101cc8 <_malloc_r+0x150>
  101c1c:	8806d27a 	srli	r3,r17,9
  101c20:	18003f1e 	bne	r3,zero,101d20 <_malloc_r+0x1a8>
  101c24:	880cd0fa 	srli	r6,r17,3
  101c28:	300490fa 	slli	r2,r6,3
  101c2c:	02c00474 	movhi	r11,17
  101c30:	5aefb604 	addi	r11,r11,-16680
  101c34:	12cb883a 	add	r5,r2,r11
  101c38:	2c000317 	ldw	r16,12(r5)
  101c3c:	580f883a 	mov	r7,r11
  101c40:	2c00041e 	bne	r5,r16,101c54 <_malloc_r+0xdc>
  101c44:	00000a06 	br	101c70 <_malloc_r+0xf8>
  101c48:	1800860e 	bge	r3,zero,101e64 <_malloc_r+0x2ec>
  101c4c:	84000317 	ldw	r16,12(r16)
  101c50:	2c000726 	beq	r5,r16,101c70 <_malloc_r+0xf8>
  101c54:	80800117 	ldw	r2,4(r16)
  101c58:	00ffff04 	movi	r3,-4
  101c5c:	10c8703a 	and	r4,r2,r3
  101c60:	2447c83a 	sub	r3,r4,r17
  101c64:	008003c4 	movi	r2,15
  101c68:	10fff70e 	bge	r2,r3,101c48 <_malloc_r+0xd0>
  101c6c:	31bfffc4 	addi	r6,r6,-1
  101c70:	32400044 	addi	r9,r6,1
  101c74:	02800474 	movhi	r10,17
  101c78:	52afb804 	addi	r10,r10,-16672
  101c7c:	54000217 	ldw	r16,8(r10)
  101c80:	8280a026 	beq	r16,r10,101f04 <_malloc_r+0x38c>
  101c84:	80800117 	ldw	r2,4(r16)
  101c88:	00ffff04 	movi	r3,-4
  101c8c:	10ca703a 	and	r5,r2,r3
  101c90:	2c4dc83a 	sub	r6,r5,r17
  101c94:	008003c4 	movi	r2,15
  101c98:	11808316 	blt	r2,r6,101ea8 <_malloc_r+0x330>
  101c9c:	52800315 	stw	r10,12(r10)
  101ca0:	52800215 	stw	r10,8(r10)
  101ca4:	30002916 	blt	r6,zero,101d4c <_malloc_r+0x1d4>
  101ca8:	8147883a 	add	r3,r16,r5
  101cac:	18800117 	ldw	r2,4(r3)
  101cb0:	9009883a 	mov	r4,r18
  101cb4:	10800054 	ori	r2,r2,1
  101cb8:	18800115 	stw	r2,4(r3)
  101cbc:	01037bc0 	call	1037bc <__malloc_unlock>
  101cc0:	80c00204 	addi	r3,r16,8
  101cc4:	003fc006 	br	101bc8 <_malloc_r+0x50>
  101cc8:	02c00474 	movhi	r11,17
  101ccc:	5aefb604 	addi	r11,r11,-16680
  101cd0:	8ac5883a 	add	r2,r17,r11
  101cd4:	14000317 	ldw	r16,12(r2)
  101cd8:	580f883a 	mov	r7,r11
  101cdc:	8806d0fa 	srli	r3,r17,3
  101ce0:	14006c26 	beq	r2,r16,101e94 <_malloc_r+0x31c>
  101ce4:	80c00117 	ldw	r3,4(r16)
  101ce8:	00bfff04 	movi	r2,-4
  101cec:	81800317 	ldw	r6,12(r16)
  101cf0:	1886703a 	and	r3,r3,r2
  101cf4:	80c7883a 	add	r3,r16,r3
  101cf8:	18800117 	ldw	r2,4(r3)
  101cfc:	81400217 	ldw	r5,8(r16)
  101d00:	9009883a 	mov	r4,r18
  101d04:	10800054 	ori	r2,r2,1
  101d08:	18800115 	stw	r2,4(r3)
  101d0c:	31400215 	stw	r5,8(r6)
  101d10:	29800315 	stw	r6,12(r5)
  101d14:	01037bc0 	call	1037bc <__malloc_unlock>
  101d18:	80c00204 	addi	r3,r16,8
  101d1c:	003faa06 	br	101bc8 <_malloc_r+0x50>
  101d20:	00800104 	movi	r2,4
  101d24:	10c0052e 	bgeu	r2,r3,101d3c <_malloc_r+0x1c4>
  101d28:	00800504 	movi	r2,20
  101d2c:	10c07836 	bltu	r2,r3,101f10 <_malloc_r+0x398>
  101d30:	198016c4 	addi	r6,r3,91
  101d34:	300490fa 	slli	r2,r6,3
  101d38:	003fbc06 	br	101c2c <_malloc_r+0xb4>
  101d3c:	8804d1ba 	srli	r2,r17,6
  101d40:	11800e04 	addi	r6,r2,56
  101d44:	300490fa 	slli	r2,r6,3
  101d48:	003fb806 	br	101c2c <_malloc_r+0xb4>
  101d4c:	00807fc4 	movi	r2,511
  101d50:	1140bb36 	bltu	r2,r5,102040 <_malloc_r+0x4c8>
  101d54:	2806d0fa 	srli	r3,r5,3
  101d58:	573ffe04 	addi	fp,r10,-8
  101d5c:	00800044 	movi	r2,1
  101d60:	180890fa 	slli	r4,r3,3
  101d64:	1807d0ba 	srai	r3,r3,2
  101d68:	e1c00117 	ldw	r7,4(fp)
  101d6c:	5909883a 	add	r4,r11,r4
  101d70:	21400217 	ldw	r5,8(r4)
  101d74:	10c4983a 	sll	r2,r2,r3
  101d78:	81000315 	stw	r4,12(r16)
  101d7c:	81400215 	stw	r5,8(r16)
  101d80:	388eb03a 	or	r7,r7,r2
  101d84:	2c000315 	stw	r16,12(r5)
  101d88:	24000215 	stw	r16,8(r4)
  101d8c:	e1c00115 	stw	r7,4(fp)
  101d90:	4807883a 	mov	r3,r9
  101d94:	4800cd16 	blt	r9,zero,1020cc <_malloc_r+0x554>
  101d98:	1807d0ba 	srai	r3,r3,2
  101d9c:	00800044 	movi	r2,1
  101da0:	10c8983a 	sll	r4,r2,r3
  101da4:	39004436 	bltu	r7,r4,101eb8 <_malloc_r+0x340>
  101da8:	21c4703a 	and	r2,r4,r7
  101dac:	10000a1e 	bne	r2,zero,101dd8 <_malloc_r+0x260>
  101db0:	2109883a 	add	r4,r4,r4
  101db4:	00bfff04 	movi	r2,-4
  101db8:	4884703a 	and	r2,r9,r2
  101dbc:	3906703a 	and	r3,r7,r4
  101dc0:	12400104 	addi	r9,r2,4
  101dc4:	1800041e 	bne	r3,zero,101dd8 <_malloc_r+0x260>
  101dc8:	2109883a 	add	r4,r4,r4
  101dcc:	3904703a 	and	r2,r7,r4
  101dd0:	4a400104 	addi	r9,r9,4
  101dd4:	103ffc26 	beq	r2,zero,101dc8 <_malloc_r+0x250>
  101dd8:	480490fa 	slli	r2,r9,3
  101ddc:	4819883a 	mov	r12,r9
  101de0:	023fff04 	movi	r8,-4
  101de4:	589b883a 	add	r13,r11,r2
  101de8:	6807883a 	mov	r3,r13
  101dec:	014003c4 	movi	r5,15
  101df0:	1c000317 	ldw	r16,12(r3)
  101df4:	1c00041e 	bne	r3,r16,101e08 <_malloc_r+0x290>
  101df8:	0000a706 	br	102098 <_malloc_r+0x520>
  101dfc:	3000ab0e 	bge	r6,zero,1020ac <_malloc_r+0x534>
  101e00:	84000317 	ldw	r16,12(r16)
  101e04:	1c00a426 	beq	r3,r16,102098 <_malloc_r+0x520>
  101e08:	80800117 	ldw	r2,4(r16)
  101e0c:	1204703a 	and	r2,r2,r8
  101e10:	144dc83a 	sub	r6,r2,r17
  101e14:	29bff90e 	bge	r5,r6,101dfc <_malloc_r+0x284>
  101e18:	81000317 	ldw	r4,12(r16)
  101e1c:	80c00217 	ldw	r3,8(r16)
  101e20:	89400054 	ori	r5,r17,1
  101e24:	8445883a 	add	r2,r16,r17
  101e28:	20c00215 	stw	r3,8(r4)
  101e2c:	19000315 	stw	r4,12(r3)
  101e30:	81400115 	stw	r5,4(r16)
  101e34:	1187883a 	add	r3,r2,r6
  101e38:	31000054 	ori	r4,r6,1
  101e3c:	50800315 	stw	r2,12(r10)
  101e40:	50800215 	stw	r2,8(r10)
  101e44:	19800015 	stw	r6,0(r3)
  101e48:	11000115 	stw	r4,4(r2)
  101e4c:	12800215 	stw	r10,8(r2)
  101e50:	12800315 	stw	r10,12(r2)
  101e54:	9009883a 	mov	r4,r18
  101e58:	01037bc0 	call	1037bc <__malloc_unlock>
  101e5c:	80c00204 	addi	r3,r16,8
  101e60:	003f5906 	br	101bc8 <_malloc_r+0x50>
  101e64:	8109883a 	add	r4,r16,r4
  101e68:	20800117 	ldw	r2,4(r4)
  101e6c:	80c00217 	ldw	r3,8(r16)
  101e70:	81400317 	ldw	r5,12(r16)
  101e74:	10800054 	ori	r2,r2,1
  101e78:	20800115 	stw	r2,4(r4)
  101e7c:	28c00215 	stw	r3,8(r5)
  101e80:	19400315 	stw	r5,12(r3)
  101e84:	9009883a 	mov	r4,r18
  101e88:	01037bc0 	call	1037bc <__malloc_unlock>
  101e8c:	80c00204 	addi	r3,r16,8
  101e90:	003f4d06 	br	101bc8 <_malloc_r+0x50>
  101e94:	80800204 	addi	r2,r16,8
  101e98:	14000317 	ldw	r16,12(r2)
  101e9c:	143f911e 	bne	r2,r16,101ce4 <_malloc_r+0x16c>
  101ea0:	1a400084 	addi	r9,r3,2
  101ea4:	003f7306 	br	101c74 <_malloc_r+0xfc>
  101ea8:	88c00054 	ori	r3,r17,1
  101eac:	8445883a 	add	r2,r16,r17
  101eb0:	80c00115 	stw	r3,4(r16)
  101eb4:	003fdf06 	br	101e34 <_malloc_r+0x2bc>
  101eb8:	e4000217 	ldw	r16,8(fp)
  101ebc:	00bfff04 	movi	r2,-4
  101ec0:	80c00117 	ldw	r3,4(r16)
  101ec4:	802d883a 	mov	r22,r16
  101ec8:	18aa703a 	and	r21,r3,r2
  101ecc:	ac401636 	bltu	r21,r17,101f28 <_malloc_r+0x3b0>
  101ed0:	ac49c83a 	sub	r4,r21,r17
  101ed4:	008003c4 	movi	r2,15
  101ed8:	1100130e 	bge	r2,r4,101f28 <_malloc_r+0x3b0>
  101edc:	88800054 	ori	r2,r17,1
  101ee0:	8447883a 	add	r3,r16,r17
  101ee4:	80800115 	stw	r2,4(r16)
  101ee8:	20800054 	ori	r2,r4,1
  101eec:	18800115 	stw	r2,4(r3)
  101ef0:	e0c00215 	stw	r3,8(fp)
  101ef4:	9009883a 	mov	r4,r18
  101ef8:	01037bc0 	call	1037bc <__malloc_unlock>
  101efc:	80c00204 	addi	r3,r16,8
  101f00:	003f3106 	br	101bc8 <_malloc_r+0x50>
  101f04:	39c00117 	ldw	r7,4(r7)
  101f08:	573ffe04 	addi	fp,r10,-8
  101f0c:	003fa006 	br	101d90 <_malloc_r+0x218>
  101f10:	00801504 	movi	r2,84
  101f14:	10c06736 	bltu	r2,r3,1020b4 <_malloc_r+0x53c>
  101f18:	8804d33a 	srli	r2,r17,12
  101f1c:	11801b84 	addi	r6,r2,110
  101f20:	300490fa 	slli	r2,r6,3
  101f24:	003f4106 	br	101c2c <_malloc_r+0xb4>
  101f28:	d0a6ef17 	ldw	r2,-25668(gp)
  101f2c:	d0e00317 	ldw	r3,-32756(gp)
  101f30:	053fffc4 	movi	r20,-1
  101f34:	10800404 	addi	r2,r2,16
  101f38:	88a7883a 	add	r19,r17,r2
  101f3c:	1d000326 	beq	r3,r20,101f4c <_malloc_r+0x3d4>
  101f40:	98c3ffc4 	addi	r3,r19,4095
  101f44:	00bc0004 	movi	r2,-4096
  101f48:	18a6703a 	and	r19,r3,r2
  101f4c:	9009883a 	mov	r4,r18
  101f50:	980b883a 	mov	r5,r19
  101f54:	0102b080 	call	102b08 <_sbrk_r>
  101f58:	1009883a 	mov	r4,r2
  101f5c:	15000426 	beq	r2,r20,101f70 <_malloc_r+0x3f8>
  101f60:	854b883a 	add	r5,r16,r21
  101f64:	1029883a 	mov	r20,r2
  101f68:	11405a2e 	bgeu	r2,r5,1020d4 <_malloc_r+0x55c>
  101f6c:	87000c26 	beq	r16,fp,101fa0 <_malloc_r+0x428>
  101f70:	e4000217 	ldw	r16,8(fp)
  101f74:	80c00117 	ldw	r3,4(r16)
  101f78:	00bfff04 	movi	r2,-4
  101f7c:	1884703a 	and	r2,r3,r2
  101f80:	14400336 	bltu	r2,r17,101f90 <_malloc_r+0x418>
  101f84:	1449c83a 	sub	r4,r2,r17
  101f88:	008003c4 	movi	r2,15
  101f8c:	113fd316 	blt	r2,r4,101edc <_malloc_r+0x364>
  101f90:	9009883a 	mov	r4,r18
  101f94:	01037bc0 	call	1037bc <__malloc_unlock>
  101f98:	0007883a 	mov	r3,zero
  101f9c:	003f0a06 	br	101bc8 <_malloc_r+0x50>
  101fa0:	05c00474 	movhi	r23,17
  101fa4:	bdfc6104 	addi	r23,r23,-3708
  101fa8:	b8800017 	ldw	r2,0(r23)
  101fac:	988d883a 	add	r6,r19,r2
  101fb0:	b9800015 	stw	r6,0(r23)
  101fb4:	d0e00317 	ldw	r3,-32756(gp)
  101fb8:	00bfffc4 	movi	r2,-1
  101fbc:	18808e26 	beq	r3,r2,1021f8 <_malloc_r+0x680>
  101fc0:	2145c83a 	sub	r2,r4,r5
  101fc4:	3085883a 	add	r2,r6,r2
  101fc8:	b8800015 	stw	r2,0(r23)
  101fcc:	20c001cc 	andi	r3,r4,7
  101fd0:	18005f1e 	bne	r3,zero,102150 <_malloc_r+0x5d8>
  101fd4:	000b883a 	mov	r5,zero
  101fd8:	a4c5883a 	add	r2,r20,r19
  101fdc:	1083ffcc 	andi	r2,r2,4095
  101fe0:	00c40004 	movi	r3,4096
  101fe4:	1887c83a 	sub	r3,r3,r2
  101fe8:	28e7883a 	add	r19,r5,r3
  101fec:	9009883a 	mov	r4,r18
  101ff0:	980b883a 	mov	r5,r19
  101ff4:	0102b080 	call	102b08 <_sbrk_r>
  101ff8:	1007883a 	mov	r3,r2
  101ffc:	00bfffc4 	movi	r2,-1
  102000:	18807a26 	beq	r3,r2,1021ec <_malloc_r+0x674>
  102004:	1d05c83a 	sub	r2,r3,r20
  102008:	9885883a 	add	r2,r19,r2
  10200c:	10c00054 	ori	r3,r2,1
  102010:	b8800017 	ldw	r2,0(r23)
  102014:	a021883a 	mov	r16,r20
  102018:	a0c00115 	stw	r3,4(r20)
  10201c:	9885883a 	add	r2,r19,r2
  102020:	b8800015 	stw	r2,0(r23)
  102024:	e5000215 	stw	r20,8(fp)
  102028:	b7003626 	beq	r22,fp,102104 <_malloc_r+0x58c>
  10202c:	018003c4 	movi	r6,15
  102030:	35404b36 	bltu	r6,r21,102160 <_malloc_r+0x5e8>
  102034:	00800044 	movi	r2,1
  102038:	a0800115 	stw	r2,4(r20)
  10203c:	003fcd06 	br	101f74 <_malloc_r+0x3fc>
  102040:	2808d27a 	srli	r4,r5,9
  102044:	2000371e 	bne	r4,zero,102124 <_malloc_r+0x5ac>
  102048:	2808d0fa 	srli	r4,r5,3
  10204c:	200690fa 	slli	r3,r4,3
  102050:	1ad1883a 	add	r8,r3,r11
  102054:	41800217 	ldw	r6,8(r8)
  102058:	41805b26 	beq	r8,r6,1021c8 <_malloc_r+0x650>
  10205c:	30800117 	ldw	r2,4(r6)
  102060:	00ffff04 	movi	r3,-4
  102064:	10c4703a 	and	r2,r2,r3
  102068:	2880022e 	bgeu	r5,r2,102074 <_malloc_r+0x4fc>
  10206c:	31800217 	ldw	r6,8(r6)
  102070:	41bffa1e 	bne	r8,r6,10205c <_malloc_r+0x4e4>
  102074:	32000317 	ldw	r8,12(r6)
  102078:	39c00117 	ldw	r7,4(r7)
  10207c:	82000315 	stw	r8,12(r16)
  102080:	81800215 	stw	r6,8(r16)
  102084:	07000474 	movhi	fp,17
  102088:	e72fb604 	addi	fp,fp,-16680
  10208c:	34000315 	stw	r16,12(r6)
  102090:	44000215 	stw	r16,8(r8)
  102094:	003f3e06 	br	101d90 <_malloc_r+0x218>
  102098:	63000044 	addi	r12,r12,1
  10209c:	608000cc 	andi	r2,r12,3
  1020a0:	10005d26 	beq	r2,zero,102218 <_malloc_r+0x6a0>
  1020a4:	18c00204 	addi	r3,r3,8
  1020a8:	003f5106 	br	101df0 <_malloc_r+0x278>
  1020ac:	8089883a 	add	r4,r16,r2
  1020b0:	003f6d06 	br	101e68 <_malloc_r+0x2f0>
  1020b4:	00805504 	movi	r2,340
  1020b8:	10c02036 	bltu	r2,r3,10213c <_malloc_r+0x5c4>
  1020bc:	8804d3fa 	srli	r2,r17,15
  1020c0:	11801dc4 	addi	r6,r2,119
  1020c4:	300490fa 	slli	r2,r6,3
  1020c8:	003ed806 	br	101c2c <_malloc_r+0xb4>
  1020cc:	48c000c4 	addi	r3,r9,3
  1020d0:	003f3106 	br	101d98 <_malloc_r+0x220>
  1020d4:	05c00474 	movhi	r23,17
  1020d8:	bdfc6104 	addi	r23,r23,-3708
  1020dc:	b8800017 	ldw	r2,0(r23)
  1020e0:	988d883a 	add	r6,r19,r2
  1020e4:	b9800015 	stw	r6,0(r23)
  1020e8:	293fb21e 	bne	r5,r4,101fb4 <_malloc_r+0x43c>
  1020ec:	2083ffcc 	andi	r2,r4,4095
  1020f0:	103fb01e 	bne	r2,zero,101fb4 <_malloc_r+0x43c>
  1020f4:	e4000217 	ldw	r16,8(fp)
  1020f8:	9d45883a 	add	r2,r19,r21
  1020fc:	10800054 	ori	r2,r2,1
  102100:	80800115 	stw	r2,4(r16)
  102104:	b8c00017 	ldw	r3,0(r23)
  102108:	d0a6f017 	ldw	r2,-25664(gp)
  10210c:	10c0012e 	bgeu	r2,r3,102114 <_malloc_r+0x59c>
  102110:	d0e6f015 	stw	r3,-25664(gp)
  102114:	d0a6f117 	ldw	r2,-25660(gp)
  102118:	10ff962e 	bgeu	r2,r3,101f74 <_malloc_r+0x3fc>
  10211c:	d0e6f115 	stw	r3,-25660(gp)
  102120:	003f9406 	br	101f74 <_malloc_r+0x3fc>
  102124:	00800104 	movi	r2,4
  102128:	11001e36 	bltu	r2,r4,1021a4 <_malloc_r+0x62c>
  10212c:	2804d1ba 	srli	r2,r5,6
  102130:	11000e04 	addi	r4,r2,56
  102134:	200690fa 	slli	r3,r4,3
  102138:	003fc506 	br	102050 <_malloc_r+0x4d8>
  10213c:	00815504 	movi	r2,1364
  102140:	10c01d2e 	bgeu	r2,r3,1021b8 <_malloc_r+0x640>
  102144:	01801f84 	movi	r6,126
  102148:	0080fc04 	movi	r2,1008
  10214c:	003eb706 	br	101c2c <_malloc_r+0xb4>
  102150:	00800204 	movi	r2,8
  102154:	10cbc83a 	sub	r5,r2,r3
  102158:	2169883a 	add	r20,r4,r5
  10215c:	003f9e06 	br	101fd8 <_malloc_r+0x460>
  102160:	00bffe04 	movi	r2,-8
  102164:	a93ffd04 	addi	r4,r21,-12
  102168:	2088703a 	and	r4,r4,r2
  10216c:	b10b883a 	add	r5,r22,r4
  102170:	00c00144 	movi	r3,5
  102174:	28c00215 	stw	r3,8(r5)
  102178:	28c00115 	stw	r3,4(r5)
  10217c:	b0800117 	ldw	r2,4(r22)
  102180:	1080004c 	andi	r2,r2,1
  102184:	2084b03a 	or	r2,r4,r2
  102188:	b0800115 	stw	r2,4(r22)
  10218c:	313fdd2e 	bgeu	r6,r4,102104 <_malloc_r+0x58c>
  102190:	b1400204 	addi	r5,r22,8
  102194:	9009883a 	mov	r4,r18
  102198:	01010b40 	call	1010b4 <_free_r>
  10219c:	e4000217 	ldw	r16,8(fp)
  1021a0:	003fd806 	br	102104 <_malloc_r+0x58c>
  1021a4:	00800504 	movi	r2,20
  1021a8:	11001536 	bltu	r2,r4,102200 <_malloc_r+0x688>
  1021ac:	210016c4 	addi	r4,r4,91
  1021b0:	200690fa 	slli	r3,r4,3
  1021b4:	003fa606 	br	102050 <_malloc_r+0x4d8>
  1021b8:	8804d4ba 	srli	r2,r17,18
  1021bc:	11801f04 	addi	r6,r2,124
  1021c0:	300490fa 	slli	r2,r6,3
  1021c4:	003e9906 	br	101c2c <_malloc_r+0xb4>
  1021c8:	2009d0ba 	srai	r4,r4,2
  1021cc:	01400474 	movhi	r5,17
  1021d0:	296fb604 	addi	r5,r5,-16680
  1021d4:	00c00044 	movi	r3,1
  1021d8:	28800117 	ldw	r2,4(r5)
  1021dc:	1906983a 	sll	r3,r3,r4
  1021e0:	10c4b03a 	or	r2,r2,r3
  1021e4:	28800115 	stw	r2,4(r5)
  1021e8:	003fa306 	br	102078 <_malloc_r+0x500>
  1021ec:	0027883a 	mov	r19,zero
  1021f0:	00c00044 	movi	r3,1
  1021f4:	003f8606 	br	102010 <_malloc_r+0x498>
  1021f8:	d1200315 	stw	r4,-32756(gp)
  1021fc:	003f7306 	br	101fcc <_malloc_r+0x454>
  102200:	00801504 	movi	r2,84
  102204:	11001936 	bltu	r2,r4,10226c <_malloc_r+0x6f4>
  102208:	2804d33a 	srli	r2,r5,12
  10220c:	11001b84 	addi	r4,r2,110
  102210:	200690fa 	slli	r3,r4,3
  102214:	003f8e06 	br	102050 <_malloc_r+0x4d8>
  102218:	480b883a 	mov	r5,r9
  10221c:	6807883a 	mov	r3,r13
  102220:	288000cc 	andi	r2,r5,3
  102224:	18fffe04 	addi	r3,r3,-8
  102228:	297fffc4 	addi	r5,r5,-1
  10222c:	10001526 	beq	r2,zero,102284 <_malloc_r+0x70c>
  102230:	18800217 	ldw	r2,8(r3)
  102234:	10fffa26 	beq	r2,r3,102220 <_malloc_r+0x6a8>
  102238:	2109883a 	add	r4,r4,r4
  10223c:	393f1e36 	bltu	r7,r4,101eb8 <_malloc_r+0x340>
  102240:	203f1d26 	beq	r4,zero,101eb8 <_malloc_r+0x340>
  102244:	21c4703a 	and	r2,r4,r7
  102248:	10000226 	beq	r2,zero,102254 <_malloc_r+0x6dc>
  10224c:	6013883a 	mov	r9,r12
  102250:	003ee106 	br	101dd8 <_malloc_r+0x260>
  102254:	2109883a 	add	r4,r4,r4
  102258:	3904703a 	and	r2,r7,r4
  10225c:	63000104 	addi	r12,r12,4
  102260:	103ffc26 	beq	r2,zero,102254 <_malloc_r+0x6dc>
  102264:	6013883a 	mov	r9,r12
  102268:	003edb06 	br	101dd8 <_malloc_r+0x260>
  10226c:	00805504 	movi	r2,340
  102270:	11000836 	bltu	r2,r4,102294 <_malloc_r+0x71c>
  102274:	2804d3fa 	srli	r2,r5,15
  102278:	11001dc4 	addi	r4,r2,119
  10227c:	200690fa 	slli	r3,r4,3
  102280:	003f7306 	br	102050 <_malloc_r+0x4d8>
  102284:	0104303a 	nor	r2,zero,r4
  102288:	388e703a 	and	r7,r7,r2
  10228c:	e1c00115 	stw	r7,4(fp)
  102290:	003fe906 	br	102238 <_malloc_r+0x6c0>
  102294:	00815504 	movi	r2,1364
  102298:	1100032e 	bgeu	r2,r4,1022a8 <_malloc_r+0x730>
  10229c:	01001f84 	movi	r4,126
  1022a0:	00c0fc04 	movi	r3,1008
  1022a4:	003f6a06 	br	102050 <_malloc_r+0x4d8>
  1022a8:	2804d4ba 	srli	r2,r5,18
  1022ac:	11001f04 	addi	r4,r2,124
  1022b0:	200690fa 	slli	r3,r4,3
  1022b4:	003f6606 	br	102050 <_malloc_r+0x4d8>

001022b8 <memchr>:
  1022b8:	008000c4 	movi	r2,3
  1022bc:	29403fcc 	andi	r5,r5,255
  1022c0:	2007883a 	mov	r3,r4
  1022c4:	1180022e 	bgeu	r2,r6,1022d0 <memchr+0x18>
  1022c8:	2084703a 	and	r2,r4,r2
  1022cc:	10000b26 	beq	r2,zero,1022fc <memchr+0x44>
  1022d0:	313fffc4 	addi	r4,r6,-1
  1022d4:	3000051e 	bne	r6,zero,1022ec <memchr+0x34>
  1022d8:	00002c06 	br	10238c <memchr+0xd4>
  1022dc:	213fffc4 	addi	r4,r4,-1
  1022e0:	00bfffc4 	movi	r2,-1
  1022e4:	18c00044 	addi	r3,r3,1
  1022e8:	20802826 	beq	r4,r2,10238c <memchr+0xd4>
  1022ec:	18800003 	ldbu	r2,0(r3)
  1022f0:	28bffa1e 	bne	r5,r2,1022dc <memchr+0x24>
  1022f4:	1805883a 	mov	r2,r3
  1022f8:	f800283a 	ret
  1022fc:	0011883a 	mov	r8,zero
  102300:	0007883a 	mov	r3,zero
  102304:	01c00104 	movi	r7,4
  102308:	4004923a 	slli	r2,r8,8
  10230c:	18c00044 	addi	r3,r3,1
  102310:	1151883a 	add	r8,r2,r5
  102314:	19fffc1e 	bne	r3,r7,102308 <memchr+0x50>
  102318:	02bfbff4 	movhi	r10,65279
  10231c:	52bfbfc4 	addi	r10,r10,-257
  102320:	02602074 	movhi	r9,32897
  102324:	4a602004 	addi	r9,r9,-32640
  102328:	02c000c4 	movi	r11,3
  10232c:	20800017 	ldw	r2,0(r4)
  102330:	31bfff04 	addi	r6,r6,-4
  102334:	200f883a 	mov	r7,r4
  102338:	1204f03a 	xor	r2,r2,r8
  10233c:	1287883a 	add	r3,r2,r10
  102340:	1a46703a 	and	r3,r3,r9
  102344:	0084303a 	nor	r2,zero,r2
  102348:	10c4703a 	and	r2,r2,r3
  10234c:	10000b26 	beq	r2,zero,10237c <memchr+0xc4>
  102350:	20800003 	ldbu	r2,0(r4)
  102354:	28800f26 	beq	r5,r2,102394 <memchr+0xdc>
  102358:	20800043 	ldbu	r2,1(r4)
  10235c:	21c00044 	addi	r7,r4,1
  102360:	28800c26 	beq	r5,r2,102394 <memchr+0xdc>
  102364:	20800083 	ldbu	r2,2(r4)
  102368:	21c00084 	addi	r7,r4,2
  10236c:	28800926 	beq	r5,r2,102394 <memchr+0xdc>
  102370:	208000c3 	ldbu	r2,3(r4)
  102374:	21c000c4 	addi	r7,r4,3
  102378:	28800626 	beq	r5,r2,102394 <memchr+0xdc>
  10237c:	21000104 	addi	r4,r4,4
  102380:	59bfea36 	bltu	r11,r6,10232c <memchr+0x74>
  102384:	2007883a 	mov	r3,r4
  102388:	003fd106 	br	1022d0 <memchr+0x18>
  10238c:	0005883a 	mov	r2,zero
  102390:	f800283a 	ret
  102394:	3805883a 	mov	r2,r7
  102398:	f800283a 	ret

0010239c <memmove>:
  10239c:	2807883a 	mov	r3,r5
  1023a0:	2011883a 	mov	r8,r4
  1023a4:	29000c2e 	bgeu	r5,r4,1023d8 <memmove+0x3c>
  1023a8:	298f883a 	add	r7,r5,r6
  1023ac:	21c00a2e 	bgeu	r4,r7,1023d8 <memmove+0x3c>
  1023b0:	30000726 	beq	r6,zero,1023d0 <memmove+0x34>
  1023b4:	2187883a 	add	r3,r4,r6
  1023b8:	198dc83a 	sub	r6,r3,r6
  1023bc:	39ffffc4 	addi	r7,r7,-1
  1023c0:	38800003 	ldbu	r2,0(r7)
  1023c4:	18ffffc4 	addi	r3,r3,-1
  1023c8:	18800005 	stb	r2,0(r3)
  1023cc:	19bffb1e 	bne	r3,r6,1023bc <memmove+0x20>
  1023d0:	2005883a 	mov	r2,r4
  1023d4:	f800283a 	ret
  1023d8:	01c003c4 	movi	r7,15
  1023dc:	39800a36 	bltu	r7,r6,102408 <memmove+0x6c>
  1023e0:	303ffb26 	beq	r6,zero,1023d0 <memmove+0x34>
  1023e4:	400f883a 	mov	r7,r8
  1023e8:	320d883a 	add	r6,r6,r8
  1023ec:	28800003 	ldbu	r2,0(r5)
  1023f0:	29400044 	addi	r5,r5,1
  1023f4:	38800005 	stb	r2,0(r7)
  1023f8:	39c00044 	addi	r7,r7,1
  1023fc:	39bffb1e 	bne	r7,r6,1023ec <memmove+0x50>
  102400:	2005883a 	mov	r2,r4
  102404:	f800283a 	ret
  102408:	1904b03a 	or	r2,r3,r4
  10240c:	108000cc 	andi	r2,r2,3
  102410:	103ff31e 	bne	r2,zero,1023e0 <memmove+0x44>
  102414:	3811883a 	mov	r8,r7
  102418:	180b883a 	mov	r5,r3
  10241c:	200f883a 	mov	r7,r4
  102420:	28c00017 	ldw	r3,0(r5)
  102424:	31bffc04 	addi	r6,r6,-16
  102428:	38c00015 	stw	r3,0(r7)
  10242c:	28800117 	ldw	r2,4(r5)
  102430:	38800115 	stw	r2,4(r7)
  102434:	28c00217 	ldw	r3,8(r5)
  102438:	38c00215 	stw	r3,8(r7)
  10243c:	28800317 	ldw	r2,12(r5)
  102440:	29400404 	addi	r5,r5,16
  102444:	38800315 	stw	r2,12(r7)
  102448:	39c00404 	addi	r7,r7,16
  10244c:	41bff436 	bltu	r8,r6,102420 <memmove+0x84>
  102450:	008000c4 	movi	r2,3
  102454:	1180072e 	bgeu	r2,r6,102474 <memmove+0xd8>
  102458:	1007883a 	mov	r3,r2
  10245c:	28800017 	ldw	r2,0(r5)
  102460:	31bfff04 	addi	r6,r6,-4
  102464:	29400104 	addi	r5,r5,4
  102468:	38800015 	stw	r2,0(r7)
  10246c:	39c00104 	addi	r7,r7,4
  102470:	19bffa36 	bltu	r3,r6,10245c <memmove+0xc0>
  102474:	3811883a 	mov	r8,r7
  102478:	003fd906 	br	1023e0 <memmove+0x44>

0010247c <memset>:
  10247c:	008000c4 	movi	r2,3
  102480:	29403fcc 	andi	r5,r5,255
  102484:	2007883a 	mov	r3,r4
  102488:	1180022e 	bgeu	r2,r6,102494 <memset+0x18>
  10248c:	2084703a 	and	r2,r4,r2
  102490:	10000826 	beq	r2,zero,1024b4 <memset+0x38>
  102494:	30000526 	beq	r6,zero,1024ac <memset+0x30>
  102498:	2805883a 	mov	r2,r5
  10249c:	30cd883a 	add	r6,r6,r3
  1024a0:	18800005 	stb	r2,0(r3)
  1024a4:	18c00044 	addi	r3,r3,1
  1024a8:	19bffd1e 	bne	r3,r6,1024a0 <memset+0x24>
  1024ac:	2005883a 	mov	r2,r4
  1024b0:	f800283a 	ret
  1024b4:	2804923a 	slli	r2,r5,8
  1024b8:	020003c4 	movi	r8,15
  1024bc:	200f883a 	mov	r7,r4
  1024c0:	2884b03a 	or	r2,r5,r2
  1024c4:	1006943a 	slli	r3,r2,16
  1024c8:	10c6b03a 	or	r3,r2,r3
  1024cc:	41800a2e 	bgeu	r8,r6,1024f8 <memset+0x7c>
  1024d0:	4005883a 	mov	r2,r8
  1024d4:	31bffc04 	addi	r6,r6,-16
  1024d8:	38c00015 	stw	r3,0(r7)
  1024dc:	38c00115 	stw	r3,4(r7)
  1024e0:	38c00215 	stw	r3,8(r7)
  1024e4:	38c00315 	stw	r3,12(r7)
  1024e8:	39c00404 	addi	r7,r7,16
  1024ec:	11bff936 	bltu	r2,r6,1024d4 <memset+0x58>
  1024f0:	008000c4 	movi	r2,3
  1024f4:	1180052e 	bgeu	r2,r6,10250c <memset+0x90>
  1024f8:	31bfff04 	addi	r6,r6,-4
  1024fc:	008000c4 	movi	r2,3
  102500:	38c00015 	stw	r3,0(r7)
  102504:	39c00104 	addi	r7,r7,4
  102508:	11bffb36 	bltu	r2,r6,1024f8 <memset+0x7c>
  10250c:	3807883a 	mov	r3,r7
  102510:	003fe006 	br	102494 <memset+0x18>

00102514 <_realloc_r>:
  102514:	defff404 	addi	sp,sp,-48
  102518:	dd800815 	stw	r22,32(sp)
  10251c:	dc800415 	stw	r18,16(sp)
  102520:	dc400315 	stw	r17,12(sp)
  102524:	dfc00b15 	stw	ra,44(sp)
  102528:	df000a15 	stw	fp,40(sp)
  10252c:	ddc00915 	stw	r23,36(sp)
  102530:	dd400715 	stw	r21,28(sp)
  102534:	dd000615 	stw	r20,24(sp)
  102538:	dcc00515 	stw	r19,20(sp)
  10253c:	dc000215 	stw	r16,8(sp)
  102540:	2825883a 	mov	r18,r5
  102544:	3023883a 	mov	r17,r6
  102548:	202d883a 	mov	r22,r4
  10254c:	2800c926 	beq	r5,zero,102874 <_realloc_r+0x360>
  102550:	01038180 	call	103818 <__malloc_lock>
  102554:	943ffe04 	addi	r16,r18,-8
  102558:	88c002c4 	addi	r3,r17,11
  10255c:	00800584 	movi	r2,22
  102560:	82000117 	ldw	r8,4(r16)
  102564:	10c01b2e 	bgeu	r2,r3,1025d4 <_realloc_r+0xc0>
  102568:	00bffe04 	movi	r2,-8
  10256c:	188e703a 	and	r7,r3,r2
  102570:	3839883a 	mov	fp,r7
  102574:	38001a16 	blt	r7,zero,1025e0 <_realloc_r+0xcc>
  102578:	e4401936 	bltu	fp,r17,1025e0 <_realloc_r+0xcc>
  10257c:	013fff04 	movi	r4,-4
  102580:	4126703a 	and	r19,r8,r4
  102584:	99c02616 	blt	r19,r7,102620 <_realloc_r+0x10c>
  102588:	802b883a 	mov	r21,r16
  10258c:	9829883a 	mov	r20,r19
  102590:	84000204 	addi	r16,r16,8
  102594:	a80f883a 	mov	r7,r21
  102598:	a70dc83a 	sub	r6,r20,fp
  10259c:	008003c4 	movi	r2,15
  1025a0:	1180c136 	bltu	r2,r6,1028a8 <_realloc_r+0x394>
  1025a4:	38800117 	ldw	r2,4(r7)
  1025a8:	a549883a 	add	r4,r20,r21
  1025ac:	1080004c 	andi	r2,r2,1
  1025b0:	a084b03a 	or	r2,r20,r2
  1025b4:	38800115 	stw	r2,4(r7)
  1025b8:	20c00117 	ldw	r3,4(r4)
  1025bc:	18c00054 	ori	r3,r3,1
  1025c0:	20c00115 	stw	r3,4(r4)
  1025c4:	b009883a 	mov	r4,r22
  1025c8:	01037bc0 	call	1037bc <__malloc_unlock>
  1025cc:	8023883a 	mov	r17,r16
  1025d0:	00000606 	br	1025ec <_realloc_r+0xd8>
  1025d4:	01c00404 	movi	r7,16
  1025d8:	3839883a 	mov	fp,r7
  1025dc:	e47fe72e 	bgeu	fp,r17,10257c <_realloc_r+0x68>
  1025e0:	00800304 	movi	r2,12
  1025e4:	0023883a 	mov	r17,zero
  1025e8:	b0800015 	stw	r2,0(r22)
  1025ec:	8805883a 	mov	r2,r17
  1025f0:	dfc00b17 	ldw	ra,44(sp)
  1025f4:	df000a17 	ldw	fp,40(sp)
  1025f8:	ddc00917 	ldw	r23,36(sp)
  1025fc:	dd800817 	ldw	r22,32(sp)
  102600:	dd400717 	ldw	r21,28(sp)
  102604:	dd000617 	ldw	r20,24(sp)
  102608:	dcc00517 	ldw	r19,20(sp)
  10260c:	dc800417 	ldw	r18,16(sp)
  102610:	dc400317 	ldw	r17,12(sp)
  102614:	dc000217 	ldw	r16,8(sp)
  102618:	dec00c04 	addi	sp,sp,48
  10261c:	f800283a 	ret
  102620:	00800474 	movhi	r2,17
  102624:	10afb604 	addi	r2,r2,-16680
  102628:	12400217 	ldw	r9,8(r2)
  10262c:	84cd883a 	add	r6,r16,r19
  102630:	802b883a 	mov	r21,r16
  102634:	3240b926 	beq	r6,r9,10291c <_realloc_r+0x408>
  102638:	31400117 	ldw	r5,4(r6)
  10263c:	00bfff84 	movi	r2,-2
  102640:	2884703a 	and	r2,r5,r2
  102644:	1185883a 	add	r2,r2,r6
  102648:	10c00117 	ldw	r3,4(r2)
  10264c:	18c0004c 	andi	r3,r3,1
  102650:	1807003a 	cmpeq	r3,r3,zero
  102654:	1800a326 	beq	r3,zero,1028e4 <_realloc_r+0x3d0>
  102658:	2908703a 	and	r4,r5,r4
  10265c:	9929883a 	add	r20,r19,r4
  102660:	a1c0a30e 	bge	r20,r7,1028f0 <_realloc_r+0x3dc>
  102664:	4080004c 	andi	r2,r8,1
  102668:	1000551e 	bne	r2,zero,1027c0 <_realloc_r+0x2ac>
  10266c:	80800017 	ldw	r2,0(r16)
  102670:	80afc83a 	sub	r23,r16,r2
  102674:	b8c00117 	ldw	r3,4(r23)
  102678:	00bfff04 	movi	r2,-4
  10267c:	1884703a 	and	r2,r3,r2
  102680:	30002e26 	beq	r6,zero,10273c <_realloc_r+0x228>
  102684:	3240b926 	beq	r6,r9,10296c <_realloc_r+0x458>
  102688:	98a9883a 	add	r20,r19,r2
  10268c:	2509883a 	add	r4,r4,r20
  102690:	d9000015 	stw	r4,0(sp)
  102694:	21c02a16 	blt	r4,r7,102740 <_realloc_r+0x22c>
  102698:	30800317 	ldw	r2,12(r6)
  10269c:	30c00217 	ldw	r3,8(r6)
  1026a0:	01400904 	movi	r5,36
  1026a4:	99bfff04 	addi	r6,r19,-4
  1026a8:	18800315 	stw	r2,12(r3)
  1026ac:	10c00215 	stw	r3,8(r2)
  1026b0:	b9000317 	ldw	r4,12(r23)
  1026b4:	b8800217 	ldw	r2,8(r23)
  1026b8:	b82b883a 	mov	r21,r23
  1026bc:	bc000204 	addi	r16,r23,8
  1026c0:	20800215 	stw	r2,8(r4)
  1026c4:	11000315 	stw	r4,12(r2)
  1026c8:	2980e436 	bltu	r5,r6,102a5c <_realloc_r+0x548>
  1026cc:	008004c4 	movi	r2,19
  1026d0:	9009883a 	mov	r4,r18
  1026d4:	8011883a 	mov	r8,r16
  1026d8:	11800f2e 	bgeu	r2,r6,102718 <_realloc_r+0x204>
  1026dc:	90800017 	ldw	r2,0(r18)
  1026e0:	ba000404 	addi	r8,r23,16
  1026e4:	91000204 	addi	r4,r18,8
  1026e8:	b8800215 	stw	r2,8(r23)
  1026ec:	90c00117 	ldw	r3,4(r18)
  1026f0:	008006c4 	movi	r2,27
  1026f4:	b8c00315 	stw	r3,12(r23)
  1026f8:	1180072e 	bgeu	r2,r6,102718 <_realloc_r+0x204>
  1026fc:	90c00217 	ldw	r3,8(r18)
  102700:	ba000604 	addi	r8,r23,24
  102704:	91000404 	addi	r4,r18,16
  102708:	b8c00415 	stw	r3,16(r23)
  10270c:	90800317 	ldw	r2,12(r18)
  102710:	b8800515 	stw	r2,20(r23)
  102714:	3140e726 	beq	r6,r5,102ab4 <_realloc_r+0x5a0>
  102718:	20800017 	ldw	r2,0(r4)
  10271c:	dd000017 	ldw	r20,0(sp)
  102720:	b80f883a 	mov	r7,r23
  102724:	40800015 	stw	r2,0(r8)
  102728:	20c00117 	ldw	r3,4(r4)
  10272c:	40c00115 	stw	r3,4(r8)
  102730:	20800217 	ldw	r2,8(r4)
  102734:	40800215 	stw	r2,8(r8)
  102738:	003f9706 	br	102598 <_realloc_r+0x84>
  10273c:	98a9883a 	add	r20,r19,r2
  102740:	a1c01f16 	blt	r20,r7,1027c0 <_realloc_r+0x2ac>
  102744:	b8c00317 	ldw	r3,12(r23)
  102748:	b8800217 	ldw	r2,8(r23)
  10274c:	99bfff04 	addi	r6,r19,-4
  102750:	01400904 	movi	r5,36
  102754:	b82b883a 	mov	r21,r23
  102758:	18800215 	stw	r2,8(r3)
  10275c:	10c00315 	stw	r3,12(r2)
  102760:	bc000204 	addi	r16,r23,8
  102764:	2980c336 	bltu	r5,r6,102a74 <_realloc_r+0x560>
  102768:	008004c4 	movi	r2,19
  10276c:	9009883a 	mov	r4,r18
  102770:	8011883a 	mov	r8,r16
  102774:	11800f2e 	bgeu	r2,r6,1027b4 <_realloc_r+0x2a0>
  102778:	90800017 	ldw	r2,0(r18)
  10277c:	ba000404 	addi	r8,r23,16
  102780:	91000204 	addi	r4,r18,8
  102784:	b8800215 	stw	r2,8(r23)
  102788:	90c00117 	ldw	r3,4(r18)
  10278c:	008006c4 	movi	r2,27
  102790:	b8c00315 	stw	r3,12(r23)
  102794:	1180072e 	bgeu	r2,r6,1027b4 <_realloc_r+0x2a0>
  102798:	90c00217 	ldw	r3,8(r18)
  10279c:	ba000604 	addi	r8,r23,24
  1027a0:	91000404 	addi	r4,r18,16
  1027a4:	b8c00415 	stw	r3,16(r23)
  1027a8:	90800317 	ldw	r2,12(r18)
  1027ac:	b8800515 	stw	r2,20(r23)
  1027b0:	3140c726 	beq	r6,r5,102ad0 <_realloc_r+0x5bc>
  1027b4:	20800017 	ldw	r2,0(r4)
  1027b8:	b80f883a 	mov	r7,r23
  1027bc:	003fd906 	br	102724 <_realloc_r+0x210>
  1027c0:	880b883a 	mov	r5,r17
  1027c4:	b009883a 	mov	r4,r22
  1027c8:	0101b780 	call	101b78 <_malloc_r>
  1027cc:	1023883a 	mov	r17,r2
  1027d0:	10002526 	beq	r2,zero,102868 <_realloc_r+0x354>
  1027d4:	80800117 	ldw	r2,4(r16)
  1027d8:	00ffff84 	movi	r3,-2
  1027dc:	893ffe04 	addi	r4,r17,-8
  1027e0:	10c4703a 	and	r2,r2,r3
  1027e4:	8085883a 	add	r2,r16,r2
  1027e8:	20809526 	beq	r4,r2,102a40 <_realloc_r+0x52c>
  1027ec:	99bfff04 	addi	r6,r19,-4
  1027f0:	01c00904 	movi	r7,36
  1027f4:	39804536 	bltu	r7,r6,10290c <_realloc_r+0x3f8>
  1027f8:	008004c4 	movi	r2,19
  1027fc:	9009883a 	mov	r4,r18
  102800:	880b883a 	mov	r5,r17
  102804:	11800f2e 	bgeu	r2,r6,102844 <_realloc_r+0x330>
  102808:	90800017 	ldw	r2,0(r18)
  10280c:	89400204 	addi	r5,r17,8
  102810:	91000204 	addi	r4,r18,8
  102814:	88800015 	stw	r2,0(r17)
  102818:	90c00117 	ldw	r3,4(r18)
  10281c:	008006c4 	movi	r2,27
  102820:	88c00115 	stw	r3,4(r17)
  102824:	1180072e 	bgeu	r2,r6,102844 <_realloc_r+0x330>
  102828:	90c00217 	ldw	r3,8(r18)
  10282c:	89400404 	addi	r5,r17,16
  102830:	91000404 	addi	r4,r18,16
  102834:	88c00215 	stw	r3,8(r17)
  102838:	90800317 	ldw	r2,12(r18)
  10283c:	88800315 	stw	r2,12(r17)
  102840:	31c09126 	beq	r6,r7,102a88 <_realloc_r+0x574>
  102844:	20800017 	ldw	r2,0(r4)
  102848:	28800015 	stw	r2,0(r5)
  10284c:	20c00117 	ldw	r3,4(r4)
  102850:	28c00115 	stw	r3,4(r5)
  102854:	20800217 	ldw	r2,8(r4)
  102858:	28800215 	stw	r2,8(r5)
  10285c:	900b883a 	mov	r5,r18
  102860:	b009883a 	mov	r4,r22
  102864:	01010b40 	call	1010b4 <_free_r>
  102868:	b009883a 	mov	r4,r22
  10286c:	01037bc0 	call	1037bc <__malloc_unlock>
  102870:	003f5e06 	br	1025ec <_realloc_r+0xd8>
  102874:	300b883a 	mov	r5,r6
  102878:	dfc00b17 	ldw	ra,44(sp)
  10287c:	df000a17 	ldw	fp,40(sp)
  102880:	ddc00917 	ldw	r23,36(sp)
  102884:	dd800817 	ldw	r22,32(sp)
  102888:	dd400717 	ldw	r21,28(sp)
  10288c:	dd000617 	ldw	r20,24(sp)
  102890:	dcc00517 	ldw	r19,20(sp)
  102894:	dc800417 	ldw	r18,16(sp)
  102898:	dc400317 	ldw	r17,12(sp)
  10289c:	dc000217 	ldw	r16,8(sp)
  1028a0:	dec00c04 	addi	sp,sp,48
  1028a4:	0101b781 	jmpi	101b78 <_malloc_r>
  1028a8:	38800117 	ldw	r2,4(r7)
  1028ac:	e54b883a 	add	r5,fp,r21
  1028b0:	31000054 	ori	r4,r6,1
  1028b4:	1080004c 	andi	r2,r2,1
  1028b8:	1704b03a 	or	r2,r2,fp
  1028bc:	38800115 	stw	r2,4(r7)
  1028c0:	29000115 	stw	r4,4(r5)
  1028c4:	2987883a 	add	r3,r5,r6
  1028c8:	18800117 	ldw	r2,4(r3)
  1028cc:	29400204 	addi	r5,r5,8
  1028d0:	b009883a 	mov	r4,r22
  1028d4:	10800054 	ori	r2,r2,1
  1028d8:	18800115 	stw	r2,4(r3)
  1028dc:	01010b40 	call	1010b4 <_free_r>
  1028e0:	003f3806 	br	1025c4 <_realloc_r+0xb0>
  1028e4:	000d883a 	mov	r6,zero
  1028e8:	0009883a 	mov	r4,zero
  1028ec:	003f5d06 	br	102664 <_realloc_r+0x150>
  1028f0:	30c00217 	ldw	r3,8(r6)
  1028f4:	30800317 	ldw	r2,12(r6)
  1028f8:	800f883a 	mov	r7,r16
  1028fc:	84000204 	addi	r16,r16,8
  102900:	10c00215 	stw	r3,8(r2)
  102904:	18800315 	stw	r2,12(r3)
  102908:	003f2306 	br	102598 <_realloc_r+0x84>
  10290c:	8809883a 	mov	r4,r17
  102910:	900b883a 	mov	r5,r18
  102914:	010239c0 	call	10239c <memmove>
  102918:	003fd006 	br	10285c <_realloc_r+0x348>
  10291c:	30800117 	ldw	r2,4(r6)
  102920:	e0c00404 	addi	r3,fp,16
  102924:	1108703a 	and	r4,r2,r4
  102928:	9905883a 	add	r2,r19,r4
  10292c:	10ff4d16 	blt	r2,r3,102664 <_realloc_r+0x150>
  102930:	1705c83a 	sub	r2,r2,fp
  102934:	870b883a 	add	r5,r16,fp
  102938:	10800054 	ori	r2,r2,1
  10293c:	28800115 	stw	r2,4(r5)
  102940:	80c00117 	ldw	r3,4(r16)
  102944:	00800474 	movhi	r2,17
  102948:	10afb604 	addi	r2,r2,-16680
  10294c:	b009883a 	mov	r4,r22
  102950:	18c0004c 	andi	r3,r3,1
  102954:	e0c6b03a 	or	r3,fp,r3
  102958:	11400215 	stw	r5,8(r2)
  10295c:	80c00115 	stw	r3,4(r16)
  102960:	01037bc0 	call	1037bc <__malloc_unlock>
  102964:	84400204 	addi	r17,r16,8
  102968:	003f2006 	br	1025ec <_realloc_r+0xd8>
  10296c:	98a9883a 	add	r20,r19,r2
  102970:	2509883a 	add	r4,r4,r20
  102974:	e0800404 	addi	r2,fp,16
  102978:	d9000115 	stw	r4,4(sp)
  10297c:	20bf7016 	blt	r4,r2,102740 <_realloc_r+0x22c>
  102980:	b8c00317 	ldw	r3,12(r23)
  102984:	b8800217 	ldw	r2,8(r23)
  102988:	99bfff04 	addi	r6,r19,-4
  10298c:	01400904 	movi	r5,36
  102990:	18800215 	stw	r2,8(r3)
  102994:	10c00315 	stw	r3,12(r2)
  102998:	bc400204 	addi	r17,r23,8
  10299c:	29804136 	bltu	r5,r6,102aa4 <_realloc_r+0x590>
  1029a0:	008004c4 	movi	r2,19
  1029a4:	9009883a 	mov	r4,r18
  1029a8:	880f883a 	mov	r7,r17
  1029ac:	11800f2e 	bgeu	r2,r6,1029ec <_realloc_r+0x4d8>
  1029b0:	90800017 	ldw	r2,0(r18)
  1029b4:	b9c00404 	addi	r7,r23,16
  1029b8:	91000204 	addi	r4,r18,8
  1029bc:	b8800215 	stw	r2,8(r23)
  1029c0:	90c00117 	ldw	r3,4(r18)
  1029c4:	008006c4 	movi	r2,27
  1029c8:	b8c00315 	stw	r3,12(r23)
  1029cc:	1180072e 	bgeu	r2,r6,1029ec <_realloc_r+0x4d8>
  1029d0:	90c00217 	ldw	r3,8(r18)
  1029d4:	b9c00604 	addi	r7,r23,24
  1029d8:	91000404 	addi	r4,r18,16
  1029dc:	b8c00415 	stw	r3,16(r23)
  1029e0:	90800317 	ldw	r2,12(r18)
  1029e4:	b8800515 	stw	r2,20(r23)
  1029e8:	31404026 	beq	r6,r5,102aec <_realloc_r+0x5d8>
  1029ec:	20800017 	ldw	r2,0(r4)
  1029f0:	38800015 	stw	r2,0(r7)
  1029f4:	20c00117 	ldw	r3,4(r4)
  1029f8:	38c00115 	stw	r3,4(r7)
  1029fc:	20800217 	ldw	r2,8(r4)
  102a00:	38800215 	stw	r2,8(r7)
  102a04:	d8c00117 	ldw	r3,4(sp)
  102a08:	bf0b883a 	add	r5,r23,fp
  102a0c:	b009883a 	mov	r4,r22
  102a10:	1f05c83a 	sub	r2,r3,fp
  102a14:	10800054 	ori	r2,r2,1
  102a18:	28800115 	stw	r2,4(r5)
  102a1c:	b8c00117 	ldw	r3,4(r23)
  102a20:	00800474 	movhi	r2,17
  102a24:	10afb604 	addi	r2,r2,-16680
  102a28:	11400215 	stw	r5,8(r2)
  102a2c:	18c0004c 	andi	r3,r3,1
  102a30:	e0c6b03a 	or	r3,fp,r3
  102a34:	b8c00115 	stw	r3,4(r23)
  102a38:	01037bc0 	call	1037bc <__malloc_unlock>
  102a3c:	003eeb06 	br	1025ec <_realloc_r+0xd8>
  102a40:	20800117 	ldw	r2,4(r4)
  102a44:	00ffff04 	movi	r3,-4
  102a48:	800f883a 	mov	r7,r16
  102a4c:	10c4703a 	and	r2,r2,r3
  102a50:	98a9883a 	add	r20,r19,r2
  102a54:	84000204 	addi	r16,r16,8
  102a58:	003ecf06 	br	102598 <_realloc_r+0x84>
  102a5c:	900b883a 	mov	r5,r18
  102a60:	8009883a 	mov	r4,r16
  102a64:	010239c0 	call	10239c <memmove>
  102a68:	dd000017 	ldw	r20,0(sp)
  102a6c:	b80f883a 	mov	r7,r23
  102a70:	003ec906 	br	102598 <_realloc_r+0x84>
  102a74:	900b883a 	mov	r5,r18
  102a78:	8009883a 	mov	r4,r16
  102a7c:	010239c0 	call	10239c <memmove>
  102a80:	b80f883a 	mov	r7,r23
  102a84:	003ec406 	br	102598 <_realloc_r+0x84>
  102a88:	90c00417 	ldw	r3,16(r18)
  102a8c:	89400604 	addi	r5,r17,24
  102a90:	91000604 	addi	r4,r18,24
  102a94:	88c00415 	stw	r3,16(r17)
  102a98:	90800517 	ldw	r2,20(r18)
  102a9c:	88800515 	stw	r2,20(r17)
  102aa0:	003f6806 	br	102844 <_realloc_r+0x330>
  102aa4:	900b883a 	mov	r5,r18
  102aa8:	8809883a 	mov	r4,r17
  102aac:	010239c0 	call	10239c <memmove>
  102ab0:	003fd406 	br	102a04 <_realloc_r+0x4f0>
  102ab4:	90c00417 	ldw	r3,16(r18)
  102ab8:	91000604 	addi	r4,r18,24
  102abc:	ba000804 	addi	r8,r23,32
  102ac0:	b8c00615 	stw	r3,24(r23)
  102ac4:	90800517 	ldw	r2,20(r18)
  102ac8:	b8800715 	stw	r2,28(r23)
  102acc:	003f1206 	br	102718 <_realloc_r+0x204>
  102ad0:	90c00417 	ldw	r3,16(r18)
  102ad4:	91000604 	addi	r4,r18,24
  102ad8:	ba000804 	addi	r8,r23,32
  102adc:	b8c00615 	stw	r3,24(r23)
  102ae0:	90800517 	ldw	r2,20(r18)
  102ae4:	b8800715 	stw	r2,28(r23)
  102ae8:	003f3206 	br	1027b4 <_realloc_r+0x2a0>
  102aec:	90c00417 	ldw	r3,16(r18)
  102af0:	91000604 	addi	r4,r18,24
  102af4:	b9c00804 	addi	r7,r23,32
  102af8:	b8c00615 	stw	r3,24(r23)
  102afc:	90800517 	ldw	r2,20(r18)
  102b00:	b8800715 	stw	r2,28(r23)
  102b04:	003fb906 	br	1029ec <_realloc_r+0x4d8>

00102b08 <_sbrk_r>:
  102b08:	defffd04 	addi	sp,sp,-12
  102b0c:	dc000015 	stw	r16,0(sp)
  102b10:	04000474 	movhi	r16,17
  102b14:	843c3a04 	addi	r16,r16,-3864
  102b18:	dc400115 	stw	r17,4(sp)
  102b1c:	80000015 	stw	zero,0(r16)
  102b20:	2023883a 	mov	r17,r4
  102b24:	2809883a 	mov	r4,r5
  102b28:	dfc00215 	stw	ra,8(sp)
  102b2c:	01035f00 	call	1035f0 <sbrk>
  102b30:	1007883a 	mov	r3,r2
  102b34:	00bfffc4 	movi	r2,-1
  102b38:	18800626 	beq	r3,r2,102b54 <_sbrk_r+0x4c>
  102b3c:	1805883a 	mov	r2,r3
  102b40:	dfc00217 	ldw	ra,8(sp)
  102b44:	dc400117 	ldw	r17,4(sp)
  102b48:	dc000017 	ldw	r16,0(sp)
  102b4c:	dec00304 	addi	sp,sp,12
  102b50:	f800283a 	ret
  102b54:	80800017 	ldw	r2,0(r16)
  102b58:	103ff826 	beq	r2,zero,102b3c <_sbrk_r+0x34>
  102b5c:	88800015 	stw	r2,0(r17)
  102b60:	1805883a 	mov	r2,r3
  102b64:	dfc00217 	ldw	ra,8(sp)
  102b68:	dc400117 	ldw	r17,4(sp)
  102b6c:	dc000017 	ldw	r16,0(sp)
  102b70:	dec00304 	addi	sp,sp,12
  102b74:	f800283a 	ret

00102b78 <__sclose>:
  102b78:	2940038f 	ldh	r5,14(r5)
  102b7c:	0102d3c1 	jmpi	102d3c <_close_r>

00102b80 <__sseek>:
  102b80:	defffe04 	addi	sp,sp,-8
  102b84:	dc000015 	stw	r16,0(sp)
  102b88:	2821883a 	mov	r16,r5
  102b8c:	2940038f 	ldh	r5,14(r5)
  102b90:	dfc00115 	stw	ra,4(sp)
  102b94:	0102fb40 	call	102fb4 <_lseek_r>
  102b98:	1007883a 	mov	r3,r2
  102b9c:	00bfffc4 	movi	r2,-1
  102ba0:	18800926 	beq	r3,r2,102bc8 <__sseek+0x48>
  102ba4:	8080030b 	ldhu	r2,12(r16)
  102ba8:	80c01415 	stw	r3,80(r16)
  102bac:	10840014 	ori	r2,r2,4096
  102bb0:	8080030d 	sth	r2,12(r16)
  102bb4:	1805883a 	mov	r2,r3
  102bb8:	dfc00117 	ldw	ra,4(sp)
  102bbc:	dc000017 	ldw	r16,0(sp)
  102bc0:	dec00204 	addi	sp,sp,8
  102bc4:	f800283a 	ret
  102bc8:	8080030b 	ldhu	r2,12(r16)
  102bcc:	10bbffcc 	andi	r2,r2,61439
  102bd0:	8080030d 	sth	r2,12(r16)
  102bd4:	1805883a 	mov	r2,r3
  102bd8:	dfc00117 	ldw	ra,4(sp)
  102bdc:	dc000017 	ldw	r16,0(sp)
  102be0:	dec00204 	addi	sp,sp,8
  102be4:	f800283a 	ret

00102be8 <__swrite>:
  102be8:	2880030b 	ldhu	r2,12(r5)
  102bec:	defffb04 	addi	sp,sp,-20
  102bf0:	dcc00315 	stw	r19,12(sp)
  102bf4:	1080400c 	andi	r2,r2,256
  102bf8:	dc800215 	stw	r18,8(sp)
  102bfc:	dc400115 	stw	r17,4(sp)
  102c00:	dc000015 	stw	r16,0(sp)
  102c04:	3027883a 	mov	r19,r6
  102c08:	3825883a 	mov	r18,r7
  102c0c:	dfc00415 	stw	ra,16(sp)
  102c10:	2821883a 	mov	r16,r5
  102c14:	000d883a 	mov	r6,zero
  102c18:	01c00084 	movi	r7,2
  102c1c:	2023883a 	mov	r17,r4
  102c20:	10000226 	beq	r2,zero,102c2c <__swrite+0x44>
  102c24:	2940038f 	ldh	r5,14(r5)
  102c28:	0102fb40 	call	102fb4 <_lseek_r>
  102c2c:	8080030b 	ldhu	r2,12(r16)
  102c30:	8140038f 	ldh	r5,14(r16)
  102c34:	8809883a 	mov	r4,r17
  102c38:	10bbffcc 	andi	r2,r2,61439
  102c3c:	980d883a 	mov	r6,r19
  102c40:	900f883a 	mov	r7,r18
  102c44:	8080030d 	sth	r2,12(r16)
  102c48:	dfc00417 	ldw	ra,16(sp)
  102c4c:	dcc00317 	ldw	r19,12(sp)
  102c50:	dc800217 	ldw	r18,8(sp)
  102c54:	dc400117 	ldw	r17,4(sp)
  102c58:	dc000017 	ldw	r16,0(sp)
  102c5c:	dec00504 	addi	sp,sp,20
  102c60:	0102cc41 	jmpi	102cc4 <_write_r>

00102c64 <__sread>:
  102c64:	defffe04 	addi	sp,sp,-8
  102c68:	dc000015 	stw	r16,0(sp)
  102c6c:	2821883a 	mov	r16,r5
  102c70:	2940038f 	ldh	r5,14(r5)
  102c74:	dfc00115 	stw	ra,4(sp)
  102c78:	010302c0 	call	10302c <_read_r>
  102c7c:	1007883a 	mov	r3,r2
  102c80:	10000816 	blt	r2,zero,102ca4 <__sread+0x40>
  102c84:	80801417 	ldw	r2,80(r16)
  102c88:	10c5883a 	add	r2,r2,r3
  102c8c:	80801415 	stw	r2,80(r16)
  102c90:	1805883a 	mov	r2,r3
  102c94:	dfc00117 	ldw	ra,4(sp)
  102c98:	dc000017 	ldw	r16,0(sp)
  102c9c:	dec00204 	addi	sp,sp,8
  102ca0:	f800283a 	ret
  102ca4:	8080030b 	ldhu	r2,12(r16)
  102ca8:	10bbffcc 	andi	r2,r2,61439
  102cac:	8080030d 	sth	r2,12(r16)
  102cb0:	1805883a 	mov	r2,r3
  102cb4:	dfc00117 	ldw	ra,4(sp)
  102cb8:	dc000017 	ldw	r16,0(sp)
  102cbc:	dec00204 	addi	sp,sp,8
  102cc0:	f800283a 	ret

00102cc4 <_write_r>:
  102cc4:	defffd04 	addi	sp,sp,-12
  102cc8:	dc000015 	stw	r16,0(sp)
  102ccc:	04000474 	movhi	r16,17
  102cd0:	843c3a04 	addi	r16,r16,-3864
  102cd4:	dc400115 	stw	r17,4(sp)
  102cd8:	80000015 	stw	zero,0(r16)
  102cdc:	2023883a 	mov	r17,r4
  102ce0:	2809883a 	mov	r4,r5
  102ce4:	300b883a 	mov	r5,r6
  102ce8:	380d883a 	mov	r6,r7
  102cec:	dfc00215 	stw	ra,8(sp)
  102cf0:	01036600 	call	103660 <write>
  102cf4:	1007883a 	mov	r3,r2
  102cf8:	00bfffc4 	movi	r2,-1
  102cfc:	18800626 	beq	r3,r2,102d18 <_write_r+0x54>
  102d00:	1805883a 	mov	r2,r3
  102d04:	dfc00217 	ldw	ra,8(sp)
  102d08:	dc400117 	ldw	r17,4(sp)
  102d0c:	dc000017 	ldw	r16,0(sp)
  102d10:	dec00304 	addi	sp,sp,12
  102d14:	f800283a 	ret
  102d18:	80800017 	ldw	r2,0(r16)
  102d1c:	103ff826 	beq	r2,zero,102d00 <_write_r+0x3c>
  102d20:	88800015 	stw	r2,0(r17)
  102d24:	1805883a 	mov	r2,r3
  102d28:	dfc00217 	ldw	ra,8(sp)
  102d2c:	dc400117 	ldw	r17,4(sp)
  102d30:	dc000017 	ldw	r16,0(sp)
  102d34:	dec00304 	addi	sp,sp,12
  102d38:	f800283a 	ret

00102d3c <_close_r>:
  102d3c:	defffd04 	addi	sp,sp,-12
  102d40:	dc000015 	stw	r16,0(sp)
  102d44:	04000474 	movhi	r16,17
  102d48:	843c3a04 	addi	r16,r16,-3864
  102d4c:	dc400115 	stw	r17,4(sp)
  102d50:	80000015 	stw	zero,0(r16)
  102d54:	2023883a 	mov	r17,r4
  102d58:	2809883a 	mov	r4,r5
  102d5c:	dfc00215 	stw	ra,8(sp)
  102d60:	01030fc0 	call	1030fc <close>
  102d64:	1007883a 	mov	r3,r2
  102d68:	00bfffc4 	movi	r2,-1
  102d6c:	18800626 	beq	r3,r2,102d88 <_close_r+0x4c>
  102d70:	1805883a 	mov	r2,r3
  102d74:	dfc00217 	ldw	ra,8(sp)
  102d78:	dc400117 	ldw	r17,4(sp)
  102d7c:	dc000017 	ldw	r16,0(sp)
  102d80:	dec00304 	addi	sp,sp,12
  102d84:	f800283a 	ret
  102d88:	80800017 	ldw	r2,0(r16)
  102d8c:	103ff826 	beq	r2,zero,102d70 <_close_r+0x34>
  102d90:	88800015 	stw	r2,0(r17)
  102d94:	1805883a 	mov	r2,r3
  102d98:	dfc00217 	ldw	ra,8(sp)
  102d9c:	dc400117 	ldw	r17,4(sp)
  102da0:	dc000017 	ldw	r16,0(sp)
  102da4:	dec00304 	addi	sp,sp,12
  102da8:	f800283a 	ret

00102dac <_fclose_r>:
  102dac:	defffc04 	addi	sp,sp,-16
  102db0:	dc400115 	stw	r17,4(sp)
  102db4:	dc000015 	stw	r16,0(sp)
  102db8:	dfc00315 	stw	ra,12(sp)
  102dbc:	dc800215 	stw	r18,8(sp)
  102dc0:	2821883a 	mov	r16,r5
  102dc4:	2023883a 	mov	r17,r4
  102dc8:	28002926 	beq	r5,zero,102e70 <_fclose_r+0xc4>
  102dcc:	0100cec0 	call	100cec <__sfp_lock_acquire>
  102dd0:	88000226 	beq	r17,zero,102ddc <_fclose_r+0x30>
  102dd4:	88800e17 	ldw	r2,56(r17)
  102dd8:	10002d26 	beq	r2,zero,102e90 <_fclose_r+0xe4>
  102ddc:	8080030f 	ldh	r2,12(r16)
  102de0:	10002226 	beq	r2,zero,102e6c <_fclose_r+0xc0>
  102de4:	8809883a 	mov	r4,r17
  102de8:	800b883a 	mov	r5,r16
  102dec:	0100a640 	call	100a64 <_fflush_r>
  102df0:	1025883a 	mov	r18,r2
  102df4:	80800b17 	ldw	r2,44(r16)
  102df8:	10000426 	beq	r2,zero,102e0c <_fclose_r+0x60>
  102dfc:	81400717 	ldw	r5,28(r16)
  102e00:	8809883a 	mov	r4,r17
  102e04:	103ee83a 	callr	r2
  102e08:	10002a16 	blt	r2,zero,102eb4 <_fclose_r+0x108>
  102e0c:	8080030b 	ldhu	r2,12(r16)
  102e10:	1080200c 	andi	r2,r2,128
  102e14:	1000231e 	bne	r2,zero,102ea4 <_fclose_r+0xf8>
  102e18:	81400c17 	ldw	r5,48(r16)
  102e1c:	28000526 	beq	r5,zero,102e34 <_fclose_r+0x88>
  102e20:	80801004 	addi	r2,r16,64
  102e24:	28800226 	beq	r5,r2,102e30 <_fclose_r+0x84>
  102e28:	8809883a 	mov	r4,r17
  102e2c:	01010b40 	call	1010b4 <_free_r>
  102e30:	80000c15 	stw	zero,48(r16)
  102e34:	81401117 	ldw	r5,68(r16)
  102e38:	28000326 	beq	r5,zero,102e48 <_fclose_r+0x9c>
  102e3c:	8809883a 	mov	r4,r17
  102e40:	01010b40 	call	1010b4 <_free_r>
  102e44:	80001115 	stw	zero,68(r16)
  102e48:	8000030d 	sth	zero,12(r16)
  102e4c:	0100cf00 	call	100cf0 <__sfp_lock_release>
  102e50:	9005883a 	mov	r2,r18
  102e54:	dfc00317 	ldw	ra,12(sp)
  102e58:	dc800217 	ldw	r18,8(sp)
  102e5c:	dc400117 	ldw	r17,4(sp)
  102e60:	dc000017 	ldw	r16,0(sp)
  102e64:	dec00404 	addi	sp,sp,16
  102e68:	f800283a 	ret
  102e6c:	0100cf00 	call	100cf0 <__sfp_lock_release>
  102e70:	0025883a 	mov	r18,zero
  102e74:	9005883a 	mov	r2,r18
  102e78:	dfc00317 	ldw	ra,12(sp)
  102e7c:	dc800217 	ldw	r18,8(sp)
  102e80:	dc400117 	ldw	r17,4(sp)
  102e84:	dc000017 	ldw	r16,0(sp)
  102e88:	dec00404 	addi	sp,sp,16
  102e8c:	f800283a 	ret
  102e90:	8809883a 	mov	r4,r17
  102e94:	0100cfc0 	call	100cfc <__sinit>
  102e98:	8080030f 	ldh	r2,12(r16)
  102e9c:	103fd11e 	bne	r2,zero,102de4 <_fclose_r+0x38>
  102ea0:	003ff206 	br	102e6c <_fclose_r+0xc0>
  102ea4:	81400417 	ldw	r5,16(r16)
  102ea8:	8809883a 	mov	r4,r17
  102eac:	01010b40 	call	1010b4 <_free_r>
  102eb0:	003fd906 	br	102e18 <_fclose_r+0x6c>
  102eb4:	04bfffc4 	movi	r18,-1
  102eb8:	003fd406 	br	102e0c <_fclose_r+0x60>

00102ebc <fclose>:
  102ebc:	00800474 	movhi	r2,17
  102ec0:	10b54804 	addi	r2,r2,-10976
  102ec4:	200b883a 	mov	r5,r4
  102ec8:	11000017 	ldw	r4,0(r2)
  102ecc:	0102dac1 	jmpi	102dac <_fclose_r>

00102ed0 <_fstat_r>:
  102ed0:	defffd04 	addi	sp,sp,-12
  102ed4:	dc000015 	stw	r16,0(sp)
  102ed8:	04000474 	movhi	r16,17
  102edc:	843c3a04 	addi	r16,r16,-3864
  102ee0:	dc400115 	stw	r17,4(sp)
  102ee4:	80000015 	stw	zero,0(r16)
  102ee8:	2023883a 	mov	r17,r4
  102eec:	2809883a 	mov	r4,r5
  102ef0:	300b883a 	mov	r5,r6
  102ef4:	dfc00215 	stw	ra,8(sp)
  102ef8:	01031a00 	call	1031a0 <fstat>
  102efc:	1007883a 	mov	r3,r2
  102f00:	00bfffc4 	movi	r2,-1
  102f04:	18800626 	beq	r3,r2,102f20 <_fstat_r+0x50>
  102f08:	1805883a 	mov	r2,r3
  102f0c:	dfc00217 	ldw	ra,8(sp)
  102f10:	dc400117 	ldw	r17,4(sp)
  102f14:	dc000017 	ldw	r16,0(sp)
  102f18:	dec00304 	addi	sp,sp,12
  102f1c:	f800283a 	ret
  102f20:	80800017 	ldw	r2,0(r16)
  102f24:	103ff826 	beq	r2,zero,102f08 <_fstat_r+0x38>
  102f28:	88800015 	stw	r2,0(r17)
  102f2c:	1805883a 	mov	r2,r3
  102f30:	dfc00217 	ldw	ra,8(sp)
  102f34:	dc400117 	ldw	r17,4(sp)
  102f38:	dc000017 	ldw	r16,0(sp)
  102f3c:	dec00304 	addi	sp,sp,12
  102f40:	f800283a 	ret

00102f44 <_isatty_r>:
  102f44:	defffd04 	addi	sp,sp,-12
  102f48:	dc000015 	stw	r16,0(sp)
  102f4c:	04000474 	movhi	r16,17
  102f50:	843c3a04 	addi	r16,r16,-3864
  102f54:	dc400115 	stw	r17,4(sp)
  102f58:	80000015 	stw	zero,0(r16)
  102f5c:	2023883a 	mov	r17,r4
  102f60:	2809883a 	mov	r4,r5
  102f64:	dfc00215 	stw	ra,8(sp)
  102f68:	010323c0 	call	10323c <isatty>
  102f6c:	1007883a 	mov	r3,r2
  102f70:	00bfffc4 	movi	r2,-1
  102f74:	18800626 	beq	r3,r2,102f90 <_isatty_r+0x4c>
  102f78:	1805883a 	mov	r2,r3
  102f7c:	dfc00217 	ldw	ra,8(sp)
  102f80:	dc400117 	ldw	r17,4(sp)
  102f84:	dc000017 	ldw	r16,0(sp)
  102f88:	dec00304 	addi	sp,sp,12
  102f8c:	f800283a 	ret
  102f90:	80800017 	ldw	r2,0(r16)
  102f94:	103ff826 	beq	r2,zero,102f78 <_isatty_r+0x34>
  102f98:	88800015 	stw	r2,0(r17)
  102f9c:	1805883a 	mov	r2,r3
  102fa0:	dfc00217 	ldw	ra,8(sp)
  102fa4:	dc400117 	ldw	r17,4(sp)
  102fa8:	dc000017 	ldw	r16,0(sp)
  102fac:	dec00304 	addi	sp,sp,12
  102fb0:	f800283a 	ret

00102fb4 <_lseek_r>:
  102fb4:	defffd04 	addi	sp,sp,-12
  102fb8:	dc000015 	stw	r16,0(sp)
  102fbc:	04000474 	movhi	r16,17
  102fc0:	843c3a04 	addi	r16,r16,-3864
  102fc4:	dc400115 	stw	r17,4(sp)
  102fc8:	80000015 	stw	zero,0(r16)
  102fcc:	2023883a 	mov	r17,r4
  102fd0:	2809883a 	mov	r4,r5
  102fd4:	300b883a 	mov	r5,r6
  102fd8:	380d883a 	mov	r6,r7
  102fdc:	dfc00215 	stw	ra,8(sp)
  102fe0:	010335c0 	call	10335c <lseek>
  102fe4:	1007883a 	mov	r3,r2
  102fe8:	00bfffc4 	movi	r2,-1
  102fec:	18800626 	beq	r3,r2,103008 <_lseek_r+0x54>
  102ff0:	1805883a 	mov	r2,r3
  102ff4:	dfc00217 	ldw	ra,8(sp)
  102ff8:	dc400117 	ldw	r17,4(sp)
  102ffc:	dc000017 	ldw	r16,0(sp)
  103000:	dec00304 	addi	sp,sp,12
  103004:	f800283a 	ret
  103008:	80800017 	ldw	r2,0(r16)
  10300c:	103ff826 	beq	r2,zero,102ff0 <_lseek_r+0x3c>
  103010:	88800015 	stw	r2,0(r17)
  103014:	1805883a 	mov	r2,r3
  103018:	dfc00217 	ldw	ra,8(sp)
  10301c:	dc400117 	ldw	r17,4(sp)
  103020:	dc000017 	ldw	r16,0(sp)
  103024:	dec00304 	addi	sp,sp,12
  103028:	f800283a 	ret

0010302c <_read_r>:
  10302c:	defffd04 	addi	sp,sp,-12
  103030:	dc000015 	stw	r16,0(sp)
  103034:	04000474 	movhi	r16,17
  103038:	843c3a04 	addi	r16,r16,-3864
  10303c:	dc400115 	stw	r17,4(sp)
  103040:	80000015 	stw	zero,0(r16)
  103044:	2023883a 	mov	r17,r4
  103048:	2809883a 	mov	r4,r5
  10304c:	300b883a 	mov	r5,r6
  103050:	380d883a 	mov	r6,r7
  103054:	dfc00215 	stw	ra,8(sp)
  103058:	01034dc0 	call	1034dc <read>
  10305c:	1007883a 	mov	r3,r2
  103060:	00bfffc4 	movi	r2,-1
  103064:	18800626 	beq	r3,r2,103080 <_read_r+0x54>
  103068:	1805883a 	mov	r2,r3
  10306c:	dfc00217 	ldw	ra,8(sp)
  103070:	dc400117 	ldw	r17,4(sp)
  103074:	dc000017 	ldw	r16,0(sp)
  103078:	dec00304 	addi	sp,sp,12
  10307c:	f800283a 	ret
  103080:	80800017 	ldw	r2,0(r16)
  103084:	103ff826 	beq	r2,zero,103068 <_read_r+0x3c>
  103088:	88800015 	stw	r2,0(r17)
  10308c:	1805883a 	mov	r2,r3
  103090:	dfc00217 	ldw	ra,8(sp)
  103094:	dc400117 	ldw	r17,4(sp)
  103098:	dc000017 	ldw	r16,0(sp)
  10309c:	dec00304 	addi	sp,sp,12
  1030a0:	f800283a 	ret

001030a4 <__mulsi3>:
  1030a4:	20000a26 	beq	r4,zero,1030d0 <__mulsi3+0x2c>
  1030a8:	0007883a 	mov	r3,zero
  1030ac:	2080004c 	andi	r2,r4,1
  1030b0:	1005003a 	cmpeq	r2,r2,zero
  1030b4:	2008d07a 	srli	r4,r4,1
  1030b8:	1000011e 	bne	r2,zero,1030c0 <__mulsi3+0x1c>
  1030bc:	1947883a 	add	r3,r3,r5
  1030c0:	294b883a 	add	r5,r5,r5
  1030c4:	203ff91e 	bne	r4,zero,1030ac <__mulsi3+0x8>
  1030c8:	1805883a 	mov	r2,r3
  1030cc:	f800283a 	ret
  1030d0:	0007883a 	mov	r3,zero
  1030d4:	1805883a 	mov	r2,r3
  1030d8:	f800283a 	ret

001030dc <alt_get_errno>:
  1030dc:	00800474 	movhi	r2,17
  1030e0:	10b55104 	addi	r2,r2,-10940
  1030e4:	10c00017 	ldw	r3,0(r2)
  1030e8:	00800474 	movhi	r2,17
  1030ec:	10bc3a04 	addi	r2,r2,-3864
  1030f0:	18000126 	beq	r3,zero,1030f8 <alt_get_errno+0x1c>
  1030f4:	1800683a 	jmp	r3
  1030f8:	f800283a 	ret

001030fc <close>:
  1030fc:	defffd04 	addi	sp,sp,-12
  103100:	dc000015 	stw	r16,0(sp)
  103104:	dfc00215 	stw	ra,8(sp)
  103108:	dc400115 	stw	r17,4(sp)
  10310c:	01400304 	movi	r5,12
  103110:	2021883a 	mov	r16,r4
  103114:	20001216 	blt	r4,zero,103160 <close+0x64>
  103118:	01030a40 	call	1030a4 <__mulsi3>
  10311c:	00c00474 	movhi	r3,17
  103120:	18f0c204 	addi	r3,r3,-15608
  103124:	10c9883a 	add	r4,r2,r3
  103128:	20000d26 	beq	r4,zero,103160 <close+0x64>
  10312c:	20800017 	ldw	r2,0(r4)
  103130:	10800417 	ldw	r2,16(r2)
  103134:	10000f26 	beq	r2,zero,103174 <close+0x78>
  103138:	103ee83a 	callr	r2
  10313c:	1023883a 	mov	r17,r2
  103140:	8009883a 	mov	r4,r16
  103144:	01035940 	call	103594 <alt_release_fd>
  103148:	0009883a 	mov	r4,zero
  10314c:	88000c0e 	bge	r17,zero,103180 <close+0x84>
  103150:	01030dc0 	call	1030dc <alt_get_errno>
  103154:	0447c83a 	sub	r3,zero,r17
  103158:	013fffc4 	movi	r4,-1
  10315c:	00000306 	br	10316c <close+0x70>
  103160:	01030dc0 	call	1030dc <alt_get_errno>
  103164:	013fffc4 	movi	r4,-1
  103168:	00c01444 	movi	r3,81
  10316c:	10c00015 	stw	r3,0(r2)
  103170:	00000306 	br	103180 <close+0x84>
  103174:	8009883a 	mov	r4,r16
  103178:	01035940 	call	103594 <alt_release_fd>
  10317c:	0009883a 	mov	r4,zero
  103180:	2005883a 	mov	r2,r4
  103184:	dfc00217 	ldw	ra,8(sp)
  103188:	dc400117 	ldw	r17,4(sp)
  10318c:	dc000017 	ldw	r16,0(sp)
  103190:	dec00304 	addi	sp,sp,12
  103194:	f800283a 	ret

00103198 <alt_dev_null_write>:
  103198:	3005883a 	mov	r2,r6
  10319c:	f800283a 	ret

001031a0 <fstat>:
  1031a0:	defffe04 	addi	sp,sp,-8
  1031a4:	dc000015 	stw	r16,0(sp)
  1031a8:	dfc00115 	stw	ra,4(sp)
  1031ac:	2821883a 	mov	r16,r5
  1031b0:	01400304 	movi	r5,12
  1031b4:	20001116 	blt	r4,zero,1031fc <fstat+0x5c>
  1031b8:	01030a40 	call	1030a4 <__mulsi3>
  1031bc:	00c00474 	movhi	r3,17
  1031c0:	18f0c204 	addi	r3,r3,-15608
  1031c4:	10c9883a 	add	r4,r2,r3
  1031c8:	20000c26 	beq	r4,zero,1031fc <fstat+0x5c>
  1031cc:	20800017 	ldw	r2,0(r4)
  1031d0:	800b883a 	mov	r5,r16
  1031d4:	0007883a 	mov	r3,zero
  1031d8:	10800817 	ldw	r2,32(r2)
  1031dc:	10000426 	beq	r2,zero,1031f0 <fstat+0x50>
  1031e0:	dfc00117 	ldw	ra,4(sp)
  1031e4:	dc000017 	ldw	r16,0(sp)
  1031e8:	dec00204 	addi	sp,sp,8
  1031ec:	1000683a 	jmp	r2
  1031f0:	00880004 	movi	r2,8192
  1031f4:	80800115 	stw	r2,4(r16)
  1031f8:	00000b06 	br	103228 <fstat+0x88>
  1031fc:	00800474 	movhi	r2,17
  103200:	10b55104 	addi	r2,r2,-10940
  103204:	10800017 	ldw	r2,0(r2)
  103208:	00c00474 	movhi	r3,17
  10320c:	18fc3a04 	addi	r3,r3,-3864
  103210:	10000226 	beq	r2,zero,10321c <fstat+0x7c>
  103214:	103ee83a 	callr	r2
  103218:	1007883a 	mov	r3,r2
  10321c:	00801444 	movi	r2,81
  103220:	18800015 	stw	r2,0(r3)
  103224:	00ffffc4 	movi	r3,-1
  103228:	1805883a 	mov	r2,r3
  10322c:	dfc00117 	ldw	ra,4(sp)
  103230:	dc000017 	ldw	r16,0(sp)
  103234:	dec00204 	addi	sp,sp,8
  103238:	f800283a 	ret

0010323c <isatty>:
  10323c:	deffef04 	addi	sp,sp,-68
  103240:	dc000f15 	stw	r16,60(sp)
  103244:	dfc01015 	stw	ra,64(sp)
  103248:	01400304 	movi	r5,12
  10324c:	2021883a 	mov	r16,r4
  103250:	20000f16 	blt	r4,zero,103290 <isatty+0x54>
  103254:	01030a40 	call	1030a4 <__mulsi3>
  103258:	00c00474 	movhi	r3,17
  10325c:	18f0c204 	addi	r3,r3,-15608
  103260:	10c5883a 	add	r2,r2,r3
  103264:	10000a26 	beq	r2,zero,103290 <isatty+0x54>
  103268:	10800017 	ldw	r2,0(r2)
  10326c:	8009883a 	mov	r4,r16
  103270:	d80b883a 	mov	r5,sp
  103274:	10800817 	ldw	r2,32(r2)
  103278:	00c00044 	movi	r3,1
  10327c:	10000f26 	beq	r2,zero,1032bc <isatty+0x80>
  103280:	01031a00 	call	1031a0 <fstat>
  103284:	d8800117 	ldw	r2,4(sp)
  103288:	10c80020 	cmpeqi	r3,r2,8192
  10328c:	00000b06 	br	1032bc <isatty+0x80>
  103290:	00800474 	movhi	r2,17
  103294:	10b55104 	addi	r2,r2,-10940
  103298:	10800017 	ldw	r2,0(r2)
  10329c:	00c00474 	movhi	r3,17
  1032a0:	18fc3a04 	addi	r3,r3,-3864
  1032a4:	10000226 	beq	r2,zero,1032b0 <isatty+0x74>
  1032a8:	103ee83a 	callr	r2
  1032ac:	1007883a 	mov	r3,r2
  1032b0:	00801444 	movi	r2,81
  1032b4:	18800015 	stw	r2,0(r3)
  1032b8:	0007883a 	mov	r3,zero
  1032bc:	1805883a 	mov	r2,r3
  1032c0:	dfc01017 	ldw	ra,64(sp)
  1032c4:	dc000f17 	ldw	r16,60(sp)
  1032c8:	dec01104 	addi	sp,sp,68
  1032cc:	f800283a 	ret

001032d0 <alt_load_section>:
  1032d0:	2900051e 	bne	r5,r4,1032e8 <alt_load_section+0x18>
  1032d4:	f800283a 	ret
  1032d8:	20800017 	ldw	r2,0(r4)
  1032dc:	21000104 	addi	r4,r4,4
  1032e0:	28800015 	stw	r2,0(r5)
  1032e4:	29400104 	addi	r5,r5,4
  1032e8:	29bffb1e 	bne	r5,r6,1032d8 <alt_load_section+0x8>
  1032ec:	f800283a 	ret

001032f0 <alt_load>:
  1032f0:	deffff04 	addi	sp,sp,-4
  1032f4:	01000474 	movhi	r4,17
  1032f8:	21357504 	addi	r4,r4,-10796
  1032fc:	01400474 	movhi	r5,17
  103300:	296eb604 	addi	r5,r5,-17704
  103304:	01800474 	movhi	r6,17
  103308:	31b57504 	addi	r6,r6,-10796
  10330c:	dfc00015 	stw	ra,0(sp)
  103310:	01032d00 	call	1032d0 <alt_load_section>
  103314:	01000434 	movhi	r4,16
  103318:	21000004 	addi	r4,r4,0
  10331c:	01404034 	movhi	r5,256
  103320:	29400804 	addi	r5,r5,32
  103324:	01804034 	movhi	r6,256
  103328:	31805104 	addi	r6,r6,324
  10332c:	01032d00 	call	1032d0 <alt_load_section>
  103330:	01000474 	movhi	r4,17
  103334:	212df604 	addi	r4,r4,-18472
  103338:	01400474 	movhi	r5,17
  10333c:	296df604 	addi	r5,r5,-18472
  103340:	01800474 	movhi	r6,17
  103344:	31aeb604 	addi	r6,r6,-17704
  103348:	01032d00 	call	1032d0 <alt_load_section>
  10334c:	01092380 	call	109238 <alt_dcache_flush_all>
  103350:	dfc00017 	ldw	ra,0(sp)
  103354:	dec00104 	addi	sp,sp,4
  103358:	010939c1 	jmpi	10939c <alt_icache_flush_all>

0010335c <lseek>:
  10335c:	defffd04 	addi	sp,sp,-12
  103360:	dc400115 	stw	r17,4(sp)
  103364:	dc000015 	stw	r16,0(sp)
  103368:	dfc00215 	stw	ra,8(sp)
  10336c:	2821883a 	mov	r16,r5
  103370:	3023883a 	mov	r17,r6
  103374:	20001f16 	blt	r4,zero,1033f4 <lseek+0x98>
  103378:	01400304 	movi	r5,12
  10337c:	01030a40 	call	1030a4 <__mulsi3>
  103380:	00c00474 	movhi	r3,17
  103384:	18f0c204 	addi	r3,r3,-15608
  103388:	10c9883a 	add	r4,r2,r3
  10338c:	20001926 	beq	r4,zero,1033f4 <lseek+0x98>
  103390:	20800017 	ldw	r2,0(r4)
  103394:	10800717 	ldw	r2,28(r2)
  103398:	1000021e 	bne	r2,zero,1033a4 <lseek+0x48>
  10339c:	043fde84 	movi	r16,-134
  1033a0:	00000706 	br	1033c0 <lseek+0x64>
  1033a4:	800b883a 	mov	r5,r16
  1033a8:	880d883a 	mov	r6,r17
  1033ac:	103ee83a 	callr	r2
  1033b0:	10000216 	blt	r2,zero,1033bc <lseek+0x60>
  1033b4:	1007883a 	mov	r3,r2
  1033b8:	00001006 	br	1033fc <lseek+0xa0>
  1033bc:	1021883a 	mov	r16,r2
  1033c0:	00800474 	movhi	r2,17
  1033c4:	10b55104 	addi	r2,r2,-10940
  1033c8:	10800017 	ldw	r2,0(r2)
  1033cc:	1000031e 	bne	r2,zero,1033dc <lseek+0x80>
  1033d0:	01000474 	movhi	r4,17
  1033d4:	213c3a04 	addi	r4,r4,-3864
  1033d8:	00000206 	br	1033e4 <lseek+0x88>
  1033dc:	103ee83a 	callr	r2
  1033e0:	1009883a 	mov	r4,r2
  1033e4:	0405c83a 	sub	r2,zero,r16
  1033e8:	00ffffc4 	movi	r3,-1
  1033ec:	20800015 	stw	r2,0(r4)
  1033f0:	00000206 	br	1033fc <lseek+0xa0>
  1033f4:	043febc4 	movi	r16,-81
  1033f8:	003ff106 	br	1033c0 <lseek+0x64>
  1033fc:	1805883a 	mov	r2,r3
  103400:	dfc00217 	ldw	ra,8(sp)
  103404:	dc400117 	ldw	r17,4(sp)
  103408:	dc000017 	ldw	r16,0(sp)
  10340c:	dec00304 	addi	sp,sp,12
  103410:	f800283a 	ret

00103414 <alt_main>:
  103414:	defffd04 	addi	sp,sp,-12
  103418:	0009883a 	mov	r4,zero
  10341c:	dfc00215 	stw	ra,8(sp)
  103420:	dc400115 	stw	r17,4(sp)
  103424:	dc000015 	stw	r16,0(sp)
  103428:	04400044 	movi	r17,1
  10342c:	010879c0 	call	10879c <alt_irq_init>
  103430:	0103de80 	call	103de8 <OSInit>
  103434:	8809883a 	mov	r4,r17
  103438:	01064680 	call	106468 <OSSemCreate>
  10343c:	00c00474 	movhi	r3,17
  103440:	18fc4004 	addi	r3,r3,-3840
  103444:	8809883a 	mov	r4,r17
  103448:	18800015 	stw	r2,0(r3)
  10344c:	01064680 	call	106468 <OSSemCreate>
  103450:	00c00474 	movhi	r3,17
  103454:	18fc4204 	addi	r3,r3,-3832
  103458:	8809883a 	mov	r4,r17
  10345c:	18800015 	stw	r2,0(r3)
  103460:	01064680 	call	106468 <OSSemCreate>
  103464:	00c00474 	movhi	r3,17
  103468:	18fc3b04 	addi	r3,r3,-3860
  10346c:	18800015 	stw	r2,0(r3)
  103470:	010872c0 	call	10872c <alt_sys_init>
  103474:	01000474 	movhi	r4,17
  103478:	212e1204 	addi	r4,r4,-18360
  10347c:	200b883a 	mov	r5,r4
  103480:	200d883a 	mov	r6,r4
  103484:	01095300 	call	109530 <alt_io_redirect>
  103488:	01092ac0 	call	1092ac <_do_ctors>
  10348c:	01000474 	movhi	r4,17
  103490:	2124bb04 	addi	r4,r4,-27924
  103494:	0109c580 	call	109c58 <atexit>
  103498:	d166f517 	ldw	r5,-25644(gp)
  10349c:	d1a6f617 	ldw	r6,-25640(gp)
  1034a0:	d126f417 	ldw	r4,-25648(gp)
  1034a4:	01003500 	call	100350 <main>
  1034a8:	1021883a 	mov	r16,r2
  1034ac:	8809883a 	mov	r4,r17
  1034b0:	01030fc0 	call	1030fc <close>
  1034b4:	8009883a 	mov	r4,r16
  1034b8:	0109c6c0 	call	109c6c <exit>

001034bc <alt_get_errno>:
  1034bc:	00800474 	movhi	r2,17
  1034c0:	10b55104 	addi	r2,r2,-10940
  1034c4:	10c00017 	ldw	r3,0(r2)
  1034c8:	00800474 	movhi	r2,17
  1034cc:	10bc3a04 	addi	r2,r2,-3864
  1034d0:	18000126 	beq	r3,zero,1034d8 <alt_get_errno+0x1c>
  1034d4:	1800683a 	jmp	r3
  1034d8:	f800283a 	ret

001034dc <read>:
  1034dc:	defffc04 	addi	sp,sp,-16
  1034e0:	dc800215 	stw	r18,8(sp)
  1034e4:	dc400115 	stw	r17,4(sp)
  1034e8:	dfc00315 	stw	ra,12(sp)
  1034ec:	2823883a 	mov	r17,r5
  1034f0:	dc000015 	stw	r16,0(sp)
  1034f4:	3025883a 	mov	r18,r6
  1034f8:	01400304 	movi	r5,12
  1034fc:	20001a16 	blt	r4,zero,103568 <read+0x8c>
  103500:	01030a40 	call	1030a4 <__mulsi3>
  103504:	00c00474 	movhi	r3,17
  103508:	18f0c204 	addi	r3,r3,-15608
  10350c:	10c9883a 	add	r4,r2,r3
  103510:	20001526 	beq	r4,zero,103568 <read+0x8c>
  103514:	20800217 	ldw	r2,8(r4)
  103518:	00c00044 	movi	r3,1
  10351c:	043fffc4 	movi	r16,-1
  103520:	108000cc 	andi	r2,r2,3
  103524:	10c00c26 	beq	r2,r3,103558 <read+0x7c>
  103528:	20800017 	ldw	r2,0(r4)
  10352c:	880b883a 	mov	r5,r17
  103530:	900d883a 	mov	r6,r18
  103534:	10800517 	ldw	r2,20(r2)
  103538:	10000726 	beq	r2,zero,103558 <read+0x7c>
  10353c:	103ee83a 	callr	r2
  103540:	1021883a 	mov	r16,r2
  103544:	10000c0e 	bge	r2,zero,103578 <read+0x9c>
  103548:	01034bc0 	call	1034bc <alt_get_errno>
  10354c:	0407c83a 	sub	r3,zero,r16
  103550:	043fffc4 	movi	r16,-1
  103554:	00000206 	br	103560 <read+0x84>
  103558:	01034bc0 	call	1034bc <alt_get_errno>
  10355c:	00c00344 	movi	r3,13
  103560:	10c00015 	stw	r3,0(r2)
  103564:	00000406 	br	103578 <read+0x9c>
  103568:	01034bc0 	call	1034bc <alt_get_errno>
  10356c:	00c01444 	movi	r3,81
  103570:	10c00015 	stw	r3,0(r2)
  103574:	043fffc4 	movi	r16,-1
  103578:	8005883a 	mov	r2,r16
  10357c:	dfc00317 	ldw	ra,12(sp)
  103580:	dc800217 	ldw	r18,8(sp)
  103584:	dc400117 	ldw	r17,4(sp)
  103588:	dc000017 	ldw	r16,0(sp)
  10358c:	dec00404 	addi	sp,sp,16
  103590:	f800283a 	ret

00103594 <alt_release_fd>:
  103594:	defffd04 	addi	sp,sp,-12
  103598:	00800084 	movi	r2,2
  10359c:	dc400115 	stw	r17,4(sp)
  1035a0:	dc000015 	stw	r16,0(sp)
  1035a4:	dfc00215 	stw	ra,8(sp)
  1035a8:	01400304 	movi	r5,12
  1035ac:	04400474 	movhi	r17,17
  1035b0:	8c70c204 	addi	r17,r17,-15608
  1035b4:	2021883a 	mov	r16,r4
  1035b8:	1100080e 	bge	r2,r4,1035dc <alt_release_fd+0x48>
  1035bc:	01030a40 	call	1030a4 <__mulsi3>
  1035c0:	1445883a 	add	r2,r2,r17
  1035c4:	8009883a 	mov	r4,r16
  1035c8:	01400304 	movi	r5,12
  1035cc:	10000215 	stw	zero,8(r2)
  1035d0:	01030a40 	call	1030a4 <__mulsi3>
  1035d4:	1445883a 	add	r2,r2,r17
  1035d8:	10000015 	stw	zero,0(r2)
  1035dc:	dfc00217 	ldw	ra,8(sp)
  1035e0:	dc400117 	ldw	r17,4(sp)
  1035e4:	dc000017 	ldw	r16,0(sp)
  1035e8:	dec00304 	addi	sp,sp,12
  1035ec:	f800283a 	ret

001035f0 <sbrk>:
  1035f0:	000b303a 	rdctl	r5,status
  1035f4:	00bfff84 	movi	r2,-2
  1035f8:	2884703a 	and	r2,r5,r2
  1035fc:	1001703a 	wrctl	status,r2
  103600:	d0a00a17 	ldw	r2,-32728(gp)
  103604:	00ffff04 	movi	r3,-4
  103608:	108000c4 	addi	r2,r2,3
  10360c:	10c6703a 	and	r3,r2,r3
  103610:	1909883a 	add	r4,r3,r4
  103614:	00800634 	movhi	r2,24
  103618:	10800004 	addi	r2,r2,0
  10361c:	d0e00a15 	stw	r3,-32728(gp)
  103620:	1100032e 	bgeu	r2,r4,103630 <sbrk+0x40>
  103624:	2801703a 	wrctl	status,r5
  103628:	00ffffc4 	movi	r3,-1
  10362c:	00000206 	br	103638 <sbrk+0x48>
  103630:	d1200a15 	stw	r4,-32728(gp)
  103634:	2801703a 	wrctl	status,r5
  103638:	1805883a 	mov	r2,r3
  10363c:	f800283a 	ret

00103640 <alt_get_errno>:
  103640:	00800474 	movhi	r2,17
  103644:	10b55104 	addi	r2,r2,-10940
  103648:	10c00017 	ldw	r3,0(r2)
  10364c:	00800474 	movhi	r2,17
  103650:	10bc3a04 	addi	r2,r2,-3864
  103654:	18000126 	beq	r3,zero,10365c <alt_get_errno+0x1c>
  103658:	1800683a 	jmp	r3
  10365c:	f800283a 	ret

00103660 <write>:
  103660:	defffc04 	addi	sp,sp,-16
  103664:	dc800215 	stw	r18,8(sp)
  103668:	dc400115 	stw	r17,4(sp)
  10366c:	dfc00315 	stw	ra,12(sp)
  103670:	2823883a 	mov	r17,r5
  103674:	dc000015 	stw	r16,0(sp)
  103678:	3025883a 	mov	r18,r6
  10367c:	01400304 	movi	r5,12
  103680:	20001916 	blt	r4,zero,1036e8 <write+0x88>
  103684:	01030a40 	call	1030a4 <__mulsi3>
  103688:	00c00474 	movhi	r3,17
  10368c:	18f0c204 	addi	r3,r3,-15608
  103690:	10c9883a 	add	r4,r2,r3
  103694:	20001426 	beq	r4,zero,1036e8 <write+0x88>
  103698:	20800217 	ldw	r2,8(r4)
  10369c:	043fffc4 	movi	r16,-1
  1036a0:	108000cc 	andi	r2,r2,3
  1036a4:	10000c26 	beq	r2,zero,1036d8 <write+0x78>
  1036a8:	20800017 	ldw	r2,0(r4)
  1036ac:	880b883a 	mov	r5,r17
  1036b0:	900d883a 	mov	r6,r18
  1036b4:	10800617 	ldw	r2,24(r2)
  1036b8:	10000726 	beq	r2,zero,1036d8 <write+0x78>
  1036bc:	103ee83a 	callr	r2
  1036c0:	1021883a 	mov	r16,r2
  1036c4:	10000c0e 	bge	r2,zero,1036f8 <write+0x98>
  1036c8:	01036400 	call	103640 <alt_get_errno>
  1036cc:	0407c83a 	sub	r3,zero,r16
  1036d0:	043fffc4 	movi	r16,-1
  1036d4:	00000206 	br	1036e0 <write+0x80>
  1036d8:	01036400 	call	103640 <alt_get_errno>
  1036dc:	00c00344 	movi	r3,13
  1036e0:	10c00015 	stw	r3,0(r2)
  1036e4:	00000406 	br	1036f8 <write+0x98>
  1036e8:	01036400 	call	103640 <alt_get_errno>
  1036ec:	00c01444 	movi	r3,81
  1036f0:	10c00015 	stw	r3,0(r2)
  1036f4:	043fffc4 	movi	r16,-1
  1036f8:	8005883a 	mov	r2,r16
  1036fc:	dfc00317 	ldw	ra,12(sp)
  103700:	dc800217 	ldw	r18,8(sp)
  103704:	dc400117 	ldw	r17,4(sp)
  103708:	dc000017 	ldw	r16,0(sp)
  10370c:	dec00404 	addi	sp,sp,16
  103710:	f800283a 	ret

00103714 <__env_unlock>:
  103714:	d0a6f717 	ldw	r2,-25636(gp)
  103718:	10ffffc4 	addi	r3,r2,-1
  10371c:	10000626 	beq	r2,zero,103738 <__env_unlock+0x24>
  103720:	d0e6f715 	stw	r3,-25636(gp)
  103724:	1800041e 	bne	r3,zero,103738 <__env_unlock+0x24>
  103728:	d126f817 	ldw	r4,-25632(gp)
  10372c:	00bfffc4 	movi	r2,-1
  103730:	d0a00b15 	stw	r2,-32724(gp)
  103734:	010689c1 	jmpi	10689c <OSSemPost>
  103738:	f800283a 	ret

0010373c <__env_lock>:
  10373c:	deffe104 	addi	sp,sp,-124
  103740:	d9400204 	addi	r5,sp,8
  103744:	01003fc4 	movi	r4,255
  103748:	dfc01e15 	stw	ra,120(sp)
  10374c:	dc001d15 	stw	r16,116(sp)
  103750:	01069d00 	call	1069d0 <OSTaskQuery>
  103754:	10803fcc 	andi	r2,r2,255
  103758:	d9400084 	addi	r5,sp,2
  10375c:	1000131e 	bne	r2,zero,1037ac <__env_lock+0x70>
  103760:	d126f817 	ldw	r4,-25632(gp)
  103764:	d8000005 	stb	zero,0(sp)
  103768:	dc000e83 	ldbu	r16,58(sp)
  10376c:	01069380 	call	106938 <OSSemQuery>
  103770:	d88001c3 	ldbu	r2,7(sp)
  103774:	000b883a 	mov	r5,zero
  103778:	d80d883a 	mov	r6,sp
  10377c:	10000626 	beq	r2,zero,103798 <__env_lock+0x5c>
  103780:	d0a00b17 	ldw	r2,-32724(gp)
  103784:	8080041e 	bne	r16,r2,103798 <__env_lock+0x5c>
  103788:	d0a6f717 	ldw	r2,-25636(gp)
  10378c:	10800044 	addi	r2,r2,1
  103790:	d0a6f715 	stw	r2,-25636(gp)
  103794:	00000506 	br	1037ac <__env_lock+0x70>
  103798:	d126f817 	ldw	r4,-25632(gp)
  10379c:	01066480 	call	106648 <OSSemPend>
  1037a0:	00800044 	movi	r2,1
  1037a4:	d0a6f715 	stw	r2,-25636(gp)
  1037a8:	d4200b15 	stw	r16,-32724(gp)
  1037ac:	dfc01e17 	ldw	ra,120(sp)
  1037b0:	dc001d17 	ldw	r16,116(sp)
  1037b4:	dec01f04 	addi	sp,sp,124
  1037b8:	f800283a 	ret

001037bc <__malloc_unlock>:
  1037bc:	00800474 	movhi	r2,17
  1037c0:	10bc4604 	addi	r2,r2,-3816
  1037c4:	10c00003 	ldbu	r3,0(r2)
  1037c8:	00800044 	movi	r2,1
  1037cc:	1880111e 	bne	r3,r2,103814 <__malloc_unlock+0x58>
  1037d0:	0009303a 	rdctl	r4,status
  1037d4:	00bfff84 	movi	r2,-2
  1037d8:	2084703a 	and	r2,r4,r2
  1037dc:	1001703a 	wrctl	status,r2
  1037e0:	d0a6f917 	ldw	r2,-25628(gp)
  1037e4:	10c7c83a 	sub	r3,r2,r3
  1037e8:	1000021e 	bne	r2,zero,1037f4 <__malloc_unlock+0x38>
  1037ec:	2001703a 	wrctl	status,r4
  1037f0:	f800283a 	ret
  1037f4:	d0e6f915 	stw	r3,-25628(gp)
  1037f8:	1800051e 	bne	r3,zero,103810 <__malloc_unlock+0x54>
  1037fc:	00bfffc4 	movi	r2,-1
  103800:	d0a00c15 	stw	r2,-32720(gp)
  103804:	2001703a 	wrctl	status,r4
  103808:	d126fa17 	ldw	r4,-25624(gp)
  10380c:	010689c1 	jmpi	10689c <OSSemPost>
  103810:	2001703a 	wrctl	status,r4
  103814:	f800283a 	ret

00103818 <__malloc_lock>:
  103818:	deffe004 	addi	sp,sp,-128
  10381c:	00800474 	movhi	r2,17
  103820:	10bc4604 	addi	r2,r2,-3816
  103824:	dfc01f15 	stw	ra,124(sp)
  103828:	dc401e15 	stw	r17,120(sp)
  10382c:	dc001d15 	stw	r16,116(sp)
  103830:	14400003 	ldbu	r17,0(r2)
  103834:	00800044 	movi	r2,1
  103838:	d9400204 	addi	r5,sp,8
  10383c:	01003fc4 	movi	r4,255
  103840:	88801d1e 	bne	r17,r2,1038b8 <__malloc_lock+0xa0>
  103844:	01069d00 	call	1069d0 <OSTaskQuery>
  103848:	10803fcc 	andi	r2,r2,255
  10384c:	d9400084 	addi	r5,sp,2
  103850:	1000191e 	bne	r2,zero,1038b8 <__malloc_lock+0xa0>
  103854:	d126fa17 	ldw	r4,-25624(gp)
  103858:	dc000e83 	ldbu	r16,58(sp)
  10385c:	d8000005 	stb	zero,0(sp)
  103860:	01069380 	call	106938 <OSSemQuery>
  103864:	0007303a 	rdctl	r3,status
  103868:	00bfff84 	movi	r2,-2
  10386c:	1884703a 	and	r2,r3,r2
  103870:	1001703a 	wrctl	status,r2
  103874:	d880008b 	ldhu	r2,2(sp)
  103878:	1000071e 	bne	r2,zero,103898 <__malloc_lock+0x80>
  10387c:	d0a00c17 	ldw	r2,-32720(gp)
  103880:	8080051e 	bne	r16,r2,103898 <__malloc_lock+0x80>
  103884:	d0a6f917 	ldw	r2,-25628(gp)
  103888:	1445883a 	add	r2,r2,r17
  10388c:	d0a6f915 	stw	r2,-25628(gp)
  103890:	1801703a 	wrctl	status,r3
  103894:	00000806 	br	1038b8 <__malloc_lock+0xa0>
  103898:	1801703a 	wrctl	status,r3
  10389c:	d126fa17 	ldw	r4,-25624(gp)
  1038a0:	000b883a 	mov	r5,zero
  1038a4:	d80d883a 	mov	r6,sp
  1038a8:	01066480 	call	106648 <OSSemPend>
  1038ac:	00800044 	movi	r2,1
  1038b0:	d0a6f915 	stw	r2,-25628(gp)
  1038b4:	d4200c15 	stw	r16,-32720(gp)
  1038b8:	dfc01f17 	ldw	ra,124(sp)
  1038bc:	dc401e17 	ldw	r17,120(sp)
  1038c0:	dc001d17 	ldw	r16,116(sp)
  1038c4:	dec02004 	addi	sp,sp,128
  1038c8:	f800283a 	ret

001038cc <OSVersion>:
  1038cc:	00804784 	movi	r2,286
  1038d0:	f800283a 	ret

001038d4 <OS_Dummy>:
  1038d4:	f800283a 	ret

001038d8 <OS_EventTaskWait>:
  1038d8:	d0a70e17 	ldw	r2,-25544(gp)
  1038dc:	10c00d03 	ldbu	r3,52(r2)
  1038e0:	11000715 	stw	r4,28(r2)
  1038e4:	11800d43 	ldbu	r6,53(r2)
  1038e8:	1907883a 	add	r3,r3,r4
  1038ec:	18c00204 	addi	r3,r3,8
  1038f0:	188000c3 	ldbu	r2,3(r3)
  1038f4:	21400283 	ldbu	r5,10(r4)
  1038f8:	1184b03a 	or	r2,r2,r6
  1038fc:	188000c5 	stb	r2,3(r3)
  103900:	d0a70e17 	ldw	r2,-25544(gp)
  103904:	d0e70b44 	addi	r3,gp,-25555
  103908:	10800d83 	ldbu	r2,54(r2)
  10390c:	288ab03a 	or	r5,r5,r2
  103910:	21400285 	stb	r5,10(r4)
  103914:	d1670e17 	ldw	r5,-25544(gp)
  103918:	29000d03 	ldbu	r4,52(r5)
  10391c:	28800d43 	ldbu	r2,53(r5)
  103920:	20c9883a 	add	r4,r4,r3
  103924:	20c00003 	ldbu	r3,0(r4)
  103928:	0084303a 	nor	r2,zero,r2
  10392c:	10c4703a 	and	r2,r2,r3
  103930:	10c03fcc 	andi	r3,r2,255
  103934:	18c0201c 	xori	r3,r3,128
  103938:	18ffe004 	addi	r3,r3,-128
  10393c:	20800005 	stb	r2,0(r4)
  103940:	1800051e 	bne	r3,zero,103958 <OS_EventTaskWait+0x80>
  103944:	28800d83 	ldbu	r2,54(r5)
  103948:	d0e70b03 	ldbu	r3,-25556(gp)
  10394c:	0084303a 	nor	r2,zero,r2
  103950:	10c4703a 	and	r2,r2,r3
  103954:	d0a70b05 	stb	r2,-25556(gp)
  103958:	f800283a 	ret

0010395c <OS_EventTaskWaitMulti>:
  10395c:	d0a70e17 	ldw	r2,-25544(gp)
  103960:	200f883a 	mov	r7,r4
  103964:	10000715 	stw	zero,28(r2)
  103968:	21800017 	ldw	r6,0(r4)
  10396c:	11000815 	stw	r4,32(r2)
  103970:	00000d06 	br	1039a8 <OS_EventTaskWaitMulti+0x4c>
  103974:	28c00d03 	ldbu	r3,52(r5)
  103978:	29400d43 	ldbu	r5,53(r5)
  10397c:	31000283 	ldbu	r4,10(r6)
  103980:	1987883a 	add	r3,r3,r6
  103984:	18c00204 	addi	r3,r3,8
  103988:	188000c3 	ldbu	r2,3(r3)
  10398c:	1144b03a 	or	r2,r2,r5
  103990:	188000c5 	stb	r2,3(r3)
  103994:	d0a70e17 	ldw	r2,-25544(gp)
  103998:	10800d83 	ldbu	r2,54(r2)
  10399c:	2088b03a 	or	r4,r4,r2
  1039a0:	31000285 	stb	r4,10(r6)
  1039a4:	39800017 	ldw	r6,0(r7)
  1039a8:	39c00104 	addi	r7,r7,4
  1039ac:	d1670e17 	ldw	r5,-25544(gp)
  1039b0:	303ff01e 	bne	r6,zero,103974 <OS_EventTaskWaitMulti+0x18>
  1039b4:	29000d03 	ldbu	r4,52(r5)
  1039b8:	d0e70b44 	addi	r3,gp,-25555
  1039bc:	28800d43 	ldbu	r2,53(r5)
  1039c0:	20c9883a 	add	r4,r4,r3
  1039c4:	20c00003 	ldbu	r3,0(r4)
  1039c8:	0084303a 	nor	r2,zero,r2
  1039cc:	10c4703a 	and	r2,r2,r3
  1039d0:	10c03fcc 	andi	r3,r2,255
  1039d4:	18c0201c 	xori	r3,r3,128
  1039d8:	18ffe004 	addi	r3,r3,-128
  1039dc:	20800005 	stb	r2,0(r4)
  1039e0:	1800051e 	bne	r3,zero,1039f8 <OS_EventTaskWaitMulti+0x9c>
  1039e4:	28800d83 	ldbu	r2,54(r5)
  1039e8:	d0e70b03 	ldbu	r3,-25556(gp)
  1039ec:	0084303a 	nor	r2,zero,r2
  1039f0:	10c4703a 	and	r2,r2,r3
  1039f4:	d0a70b05 	stb	r2,-25556(gp)
  1039f8:	f800283a 	ret

001039fc <OS_EventTaskRemove>:
  1039fc:	20c00d03 	ldbu	r3,52(r4)
  103a00:	20800d43 	ldbu	r2,53(r4)
  103a04:	200d883a 	mov	r6,r4
  103a08:	1947883a 	add	r3,r3,r5
  103a0c:	18c00204 	addi	r3,r3,8
  103a10:	190000c3 	ldbu	r4,3(r3)
  103a14:	0084303a 	nor	r2,zero,r2
  103a18:	1104703a 	and	r2,r2,r4
  103a1c:	11003fcc 	andi	r4,r2,255
  103a20:	2100201c 	xori	r4,r4,128
  103a24:	213fe004 	addi	r4,r4,-128
  103a28:	188000c5 	stb	r2,3(r3)
  103a2c:	2000051e 	bne	r4,zero,103a44 <OS_EventTaskRemove+0x48>
  103a30:	30800d83 	ldbu	r2,54(r6)
  103a34:	28c00283 	ldbu	r3,10(r5)
  103a38:	0084303a 	nor	r2,zero,r2
  103a3c:	10c4703a 	and	r2,r2,r3
  103a40:	28800285 	stb	r2,10(r5)
  103a44:	f800283a 	ret

00103a48 <OS_EventTaskRemoveMulti>:
  103a48:	20c00d83 	ldbu	r3,54(r4)
  103a4c:	20800d43 	ldbu	r2,53(r4)
  103a50:	22400d03 	ldbu	r9,52(r4)
  103a54:	29000017 	ldw	r4,0(r5)
  103a58:	0090303a 	nor	r8,zero,r2
  103a5c:	00ce303a 	nor	r7,zero,r3
  103a60:	00000b06 	br	103a90 <OS_EventTaskRemoveMulti+0x48>
  103a64:	308000c3 	ldbu	r2,3(r6)
  103a68:	4084703a 	and	r2,r8,r2
  103a6c:	10c03fcc 	andi	r3,r2,255
  103a70:	18c0201c 	xori	r3,r3,128
  103a74:	18ffe004 	addi	r3,r3,-128
  103a78:	308000c5 	stb	r2,3(r6)
  103a7c:	1800031e 	bne	r3,zero,103a8c <OS_EventTaskRemoveMulti+0x44>
  103a80:	20800283 	ldbu	r2,10(r4)
  103a84:	3884703a 	and	r2,r7,r2
  103a88:	20800285 	stb	r2,10(r4)
  103a8c:	29000017 	ldw	r4,0(r5)
  103a90:	4905883a 	add	r2,r9,r4
  103a94:	11800204 	addi	r6,r2,8
  103a98:	29400104 	addi	r5,r5,4
  103a9c:	203ff11e 	bne	r4,zero,103a64 <OS_EventTaskRemoveMulti+0x1c>
  103aa0:	f800283a 	ret

00103aa4 <OS_EventTaskRdy>:
  103aa4:	defffc04 	addi	sp,sp,-16
  103aa8:	dc800215 	stw	r18,8(sp)
  103aac:	dc400115 	stw	r17,4(sp)
  103ab0:	dc000015 	stw	r16,0(sp)
  103ab4:	dfc00315 	stw	ra,12(sp)
  103ab8:	20800283 	ldbu	r2,10(r4)
  103abc:	02400474 	movhi	r9,17
  103ac0:	4a6e1e84 	addi	r9,r9,-18310
  103ac4:	2025883a 	mov	r18,r4
  103ac8:	1245883a 	add	r2,r2,r9
  103acc:	11000003 	ldbu	r4,0(r2)
  103ad0:	018c303a 	nor	r6,zero,r6
  103ad4:	22003fcc 	andi	r8,r4,255
  103ad8:	4485883a 	add	r2,r8,r18
  103adc:	10c002c3 	ldbu	r3,11(r2)
  103ae0:	d0a70b44 	addi	r2,gp,-25555
  103ae4:	200890fa 	slli	r4,r4,3
  103ae8:	1a47883a 	add	r3,r3,r9
  103aec:	4091883a 	add	r8,r8,r2
  103af0:	18800003 	ldbu	r2,0(r3)
  103af4:	00c004b4 	movhi	r3,18
  103af8:	18e3b304 	addi	r3,r3,-28980
  103afc:	2089883a 	add	r4,r4,r2
  103b00:	24403fcc 	andi	r17,r4,255
  103b04:	8c45883a 	add	r2,r17,r17
  103b08:	1085883a 	add	r2,r2,r2
  103b0c:	10c5883a 	add	r2,r2,r3
  103b10:	14000017 	ldw	r16,0(r2)
  103b14:	80800c03 	ldbu	r2,48(r16)
  103b18:	81400915 	stw	r5,36(r16)
  103b1c:	8009883a 	mov	r4,r16
  103b20:	308c703a 	and	r6,r6,r2
  103b24:	30803fcc 	andi	r2,r6,255
  103b28:	1080020c 	andi	r2,r2,8
  103b2c:	81c00c45 	stb	r7,49(r16)
  103b30:	81800c05 	stb	r6,48(r16)
  103b34:	900b883a 	mov	r5,r18
  103b38:	80000b8d 	sth	zero,46(r16)
  103b3c:	1000081e 	bne	r2,zero,103b60 <OS_EventTaskRdy+0xbc>
  103b40:	81800d83 	ldbu	r6,54(r16)
  103b44:	d0a70b03 	ldbu	r2,-25556(gp)
  103b48:	40c00003 	ldbu	r3,0(r8)
  103b4c:	1184b03a 	or	r2,r2,r6
  103b50:	d0a70b05 	stb	r2,-25556(gp)
  103b54:	80800d43 	ldbu	r2,53(r16)
  103b58:	1886b03a 	or	r3,r3,r2
  103b5c:	40c00005 	stb	r3,0(r8)
  103b60:	01039fc0 	call	1039fc <OS_EventTaskRemove>
  103b64:	80800817 	ldw	r2,32(r16)
  103b68:	8009883a 	mov	r4,r16
  103b6c:	100b883a 	mov	r5,r2
  103b70:	10000226 	beq	r2,zero,103b7c <OS_EventTaskRdy+0xd8>
  103b74:	0103a480 	call	103a48 <OS_EventTaskRemoveMulti>
  103b78:	84800715 	stw	r18,28(r16)
  103b7c:	8805883a 	mov	r2,r17
  103b80:	dfc00317 	ldw	ra,12(sp)
  103b84:	dc800217 	ldw	r18,8(sp)
  103b88:	dc400117 	ldw	r17,4(sp)
  103b8c:	dc000017 	ldw	r16,0(sp)
  103b90:	dec00404 	addi	sp,sp,16
  103b94:	f800283a 	ret

00103b98 <OS_EventWaitListInit>:
  103b98:	20000285 	stb	zero,10(r4)
  103b9c:	210002c4 	addi	r4,r4,11
  103ba0:	20000005 	stb	zero,0(r4)
  103ba4:	21000044 	addi	r4,r4,1
  103ba8:	20000045 	stb	zero,1(r4)
  103bac:	20000005 	stb	zero,0(r4)
  103bb0:	f800283a 	ret

00103bb4 <OS_MemClr>:
  103bb4:	00000206 	br	103bc0 <OS_MemClr+0xc>
  103bb8:	20000005 	stb	zero,0(r4)
  103bbc:	21000044 	addi	r4,r4,1
  103bc0:	28bfffcc 	andi	r2,r5,65535
  103bc4:	297fffc4 	addi	r5,r5,-1
  103bc8:	103ffb1e 	bne	r2,zero,103bb8 <OS_MemClr+0x4>
  103bcc:	f800283a 	ret

00103bd0 <OS_MemCopy>:
  103bd0:	00000406 	br	103be4 <OS_MemCopy+0x14>
  103bd4:	28800003 	ldbu	r2,0(r5)
  103bd8:	29400044 	addi	r5,r5,1
  103bdc:	20800005 	stb	r2,0(r4)
  103be0:	21000044 	addi	r4,r4,1
  103be4:	30bfffcc 	andi	r2,r6,65535
  103be8:	31bfffc4 	addi	r6,r6,-1
  103bec:	103ff91e 	bne	r2,zero,103bd4 <OS_MemCopy+0x4>
  103bf0:	f800283a 	ret

00103bf4 <OS_StrCopy>:
  103bf4:	2007883a 	mov	r3,r4
  103bf8:	00000206 	br	103c04 <OS_StrCopy+0x10>
  103bfc:	18800005 	stb	r2,0(r3)
  103c00:	18c00044 	addi	r3,r3,1
  103c04:	28800003 	ldbu	r2,0(r5)
  103c08:	29400044 	addi	r5,r5,1
  103c0c:	103ffb1e 	bne	r2,zero,103bfc <OS_StrCopy+0x8>
  103c10:	1905c83a 	sub	r2,r3,r4
  103c14:	10803fcc 	andi	r2,r2,255
  103c18:	18000005 	stb	zero,0(r3)
  103c1c:	f800283a 	ret

00103c20 <OS_StrLen>:
  103c20:	2007883a 	mov	r3,r4
  103c24:	00000106 	br	103c2c <OS_StrLen+0xc>
  103c28:	18c00044 	addi	r3,r3,1
  103c2c:	18800003 	ldbu	r2,0(r3)
  103c30:	103ffd1e 	bne	r2,zero,103c28 <OS_StrLen+0x8>
  103c34:	1905c83a 	sub	r2,r3,r4
  103c38:	10803fcc 	andi	r2,r2,255
  103c3c:	f800283a 	ret

00103c40 <OS_TaskStatStkChk>:
  103c40:	defffb04 	addi	sp,sp,-20
  103c44:	dc400315 	stw	r17,12(sp)
  103c48:	dc000215 	stw	r16,8(sp)
  103c4c:	dfc00415 	stw	ra,16(sp)
  103c50:	0021883a 	mov	r16,zero
  103c54:	044004b4 	movhi	r17,18
  103c58:	8c63b304 	addi	r17,r17,-28980
  103c5c:	8009883a 	mov	r4,r16
  103c60:	d80b883a 	mov	r5,sp
  103c64:	01075e00 	call	1075e0 <OSTaskStkChk>
  103c68:	10803fcc 	andi	r2,r2,255
  103c6c:	84000044 	addi	r16,r16,1
  103c70:	10000c1e 	bne	r2,zero,103ca4 <OS_TaskStatStkChk+0x64>
  103c74:	89000017 	ldw	r4,0(r17)
  103c78:	20000a26 	beq	r4,zero,103ca4 <OS_TaskStatStkChk+0x64>
  103c7c:	00800044 	movi	r2,1
  103c80:	20800826 	beq	r4,r2,103ca4 <OS_TaskStatStkChk+0x64>
  103c84:	20800317 	ldw	r2,12(r4)
  103c88:	20c00217 	ldw	r3,8(r4)
  103c8c:	1085883a 	add	r2,r2,r2
  103c90:	1085883a 	add	r2,r2,r2
  103c94:	1887883a 	add	r3,r3,r2
  103c98:	d8800117 	ldw	r2,4(sp)
  103c9c:	20c01115 	stw	r3,68(r4)
  103ca0:	20801215 	stw	r2,72(r4)
  103ca4:	00800544 	movi	r2,21
  103ca8:	8c400104 	addi	r17,r17,4
  103cac:	80bfeb1e 	bne	r16,r2,103c5c <OS_TaskStatStkChk+0x1c>
  103cb0:	dfc00417 	ldw	ra,16(sp)
  103cb4:	dc400317 	ldw	r17,12(sp)
  103cb8:	dc000217 	ldw	r16,8(sp)
  103cbc:	dec00504 	addi	sp,sp,20
  103cc0:	f800283a 	ret

00103cc4 <OS_Sched>:
  103cc4:	defffe04 	addi	sp,sp,-8
  103cc8:	dfc00115 	stw	ra,4(sp)
  103ccc:	dc000015 	stw	r16,0(sp)
  103cd0:	0021303a 	rdctl	r16,status
  103cd4:	00bfff84 	movi	r2,-2
  103cd8:	8084703a 	and	r2,r16,r2
  103cdc:	1001703a 	wrctl	status,r2
  103ce0:	d0a70d03 	ldbu	r2,-25548(gp)
  103ce4:	1000201e 	bne	r2,zero,103d68 <OS_Sched+0xa4>
  103ce8:	d0a6fc03 	ldbu	r2,-25616(gp)
  103cec:	01400474 	movhi	r5,17
  103cf0:	296e1e84 	addi	r5,r5,-18310
  103cf4:	10001c1e 	bne	r2,zero,103d68 <OS_Sched+0xa4>
  103cf8:	d0a70b03 	ldbu	r2,-25556(gp)
  103cfc:	d0e70b44 	addi	r3,gp,-25555
  103d00:	d1a700c3 	ldbu	r6,-25597(gp)
  103d04:	1145883a 	add	r2,r2,r5
  103d08:	11000003 	ldbu	r4,0(r2)
  103d0c:	20c5883a 	add	r2,r4,r3
  103d10:	10800003 	ldbu	r2,0(r2)
  103d14:	200890fa 	slli	r4,r4,3
  103d18:	00c004b4 	movhi	r3,18
  103d1c:	18e3b304 	addi	r3,r3,-28980
  103d20:	1145883a 	add	r2,r2,r5
  103d24:	10800003 	ldbu	r2,0(r2)
  103d28:	2089883a 	add	r4,r4,r2
  103d2c:	21403fcc 	andi	r5,r4,255
  103d30:	2945883a 	add	r2,r5,r5
  103d34:	1085883a 	add	r2,r2,r2
  103d38:	10c5883a 	add	r2,r2,r3
  103d3c:	d1270085 	stb	r4,-25598(gp)
  103d40:	29800926 	beq	r5,r6,103d68 <OS_Sched+0xa4>
  103d44:	10800017 	ldw	r2,0(r2)
  103d48:	d1270317 	ldw	r4,-25588(gp)
  103d4c:	10c00e17 	ldw	r3,56(r2)
  103d50:	21000044 	addi	r4,r4,1
  103d54:	d0a70915 	stw	r2,-25564(gp)
  103d58:	18c00044 	addi	r3,r3,1
  103d5c:	10c00e15 	stw	r3,56(r2)
  103d60:	d1270315 	stw	r4,-25588(gp)
  103d64:	01098200 	call	109820 <OSCtxSw>
  103d68:	8001703a 	wrctl	status,r16
  103d6c:	dfc00117 	ldw	ra,4(sp)
  103d70:	dc000017 	ldw	r16,0(sp)
  103d74:	dec00204 	addi	sp,sp,8
  103d78:	f800283a 	ret

00103d7c <OSStart>:
  103d7c:	d0a6fe03 	ldbu	r2,-25608(gp)
  103d80:	01400474 	movhi	r5,17
  103d84:	296e1e84 	addi	r5,r5,-18310
  103d88:	1000161e 	bne	r2,zero,103de4 <OSStart+0x68>
  103d8c:	d0a70b03 	ldbu	r2,-25556(gp)
  103d90:	d0e70b44 	addi	r3,gp,-25555
  103d94:	1145883a 	add	r2,r2,r5
  103d98:	11000003 	ldbu	r4,0(r2)
  103d9c:	20c5883a 	add	r2,r4,r3
  103da0:	10800003 	ldbu	r2,0(r2)
  103da4:	200890fa 	slli	r4,r4,3
  103da8:	00c004b4 	movhi	r3,18
  103dac:	18e3b304 	addi	r3,r3,-28980
  103db0:	1145883a 	add	r2,r2,r5
  103db4:	10800003 	ldbu	r2,0(r2)
  103db8:	2089883a 	add	r4,r4,r2
  103dbc:	20803fcc 	andi	r2,r4,255
  103dc0:	1085883a 	add	r2,r2,r2
  103dc4:	1085883a 	add	r2,r2,r2
  103dc8:	10c5883a 	add	r2,r2,r3
  103dcc:	10800017 	ldw	r2,0(r2)
  103dd0:	d1270085 	stb	r4,-25598(gp)
  103dd4:	d12700c5 	stb	r4,-25597(gp)
  103dd8:	d0a70e15 	stw	r2,-25544(gp)
  103ddc:	d0a70915 	stw	r2,-25564(gp)
  103de0:	01098ac1 	jmpi	1098ac <OSStartHighRdy>
  103de4:	f800283a 	ret

00103de8 <OSInit>:
  103de8:	defff704 	addi	sp,sp,-36
  103dec:	dfc00815 	stw	ra,32(sp)
  103df0:	dc000615 	stw	r16,24(sp)
  103df4:	dc400715 	stw	r17,28(sp)
  103df8:	01099000 	call	109900 <OSInitHookBegin>
  103dfc:	d0a70b44 	addi	r2,gp,-25555
  103e00:	10000085 	stb	zero,2(r2)
  103e04:	10000045 	stb	zero,1(r2)
  103e08:	d0271015 	stw	zero,-25536(gp)
  103e0c:	010004b4 	movhi	r4,18
  103e10:	21226f04 	addi	r4,r4,-30276
  103e14:	01414404 	movi	r5,1296
  103e18:	d0270d05 	stb	zero,-25548(gp)
  103e1c:	d026fc05 	stb	zero,-25616(gp)
  103e20:	d0270745 	stb	zero,-25571(gp)
  103e24:	d026fe05 	stb	zero,-25608(gp)
  103e28:	d0270315 	stw	zero,-25588(gp)
  103e2c:	d026ff15 	stw	zero,-25604(gp)
  103e30:	d0271415 	stw	zero,-25520(gp)
  103e34:	d0270515 	stw	zero,-25580(gp)
  103e38:	d0271305 	stb	zero,-25524(gp)
  103e3c:	d0270b05 	stb	zero,-25556(gp)
  103e40:	d0270b45 	stb	zero,-25555(gp)
  103e44:	d02700c5 	stb	zero,-25597(gp)
  103e48:	d0270085 	stb	zero,-25598(gp)
  103e4c:	d0270915 	stw	zero,-25564(gp)
  103e50:	d0270e15 	stw	zero,-25544(gp)
  103e54:	0103bb40 	call	103bb4 <OS_MemClr>
  103e58:	010004b4 	movhi	r4,18
  103e5c:	2123b304 	addi	r4,r4,-28980
  103e60:	01401504 	movi	r5,84
  103e64:	0103bb40 	call	103bb4 <OS_MemClr>
  103e68:	008004b4 	movhi	r2,18
  103e6c:	10a28a04 	addi	r2,r2,-30168
  103e70:	04000fc4 	movi	r16,63
  103e74:	10c12904 	addi	r3,r2,1188
  103e78:	10bfea15 	stw	r2,-88(r2)
  103e7c:	143ff805 	stb	r16,-32(r2)
  103e80:	103ff845 	stb	zero,-31(r2)
  103e84:	10801b04 	addi	r2,r2,108
  103e88:	10fffb1e 	bne	r2,r3,103e78 <OSInit+0x90>
  103e8c:	10febc04 	addi	r3,r2,-1296
  103e90:	10bfe504 	addi	r2,r2,-108
  103e94:	10001345 	stb	zero,77(r2)
  103e98:	d0e70615 	stw	r3,-25576(gp)
  103e9c:	10000515 	stw	zero,20(r2)
  103ea0:	14001305 	stb	r16,76(r2)
  103ea4:	01000474 	movhi	r4,17
  103ea8:	211f9f04 	addi	r4,r4,32380
  103eac:	0142d004 	movi	r5,2880
  103eb0:	d0270115 	stw	zero,-25596(gp)
  103eb4:	0103bb40 	call	103bb4 <OS_MemClr>
  103eb8:	01000474 	movhi	r4,17
  103ebc:	211fab04 	addi	r4,r4,32428
  103ec0:	800b883a 	mov	r5,r16
  103ec4:	2082c404 	addi	r2,r4,2832
  103ec8:	203ff405 	stb	zero,-48(r4)
  103ecc:	213ff515 	stw	r4,-44(r4)
  103ed0:	217ff785 	stb	r5,-34(r4)
  103ed4:	203ff7c5 	stb	zero,-33(r4)
  103ed8:	21000c04 	addi	r4,r4,48
  103edc:	20bffa1e 	bne	r4,r2,103ec8 <OSInit+0xe0>
  103ee0:	20bff404 	addi	r2,r4,-48
  103ee4:	20fd3004 	addi	r3,r4,-2880
  103ee8:	11400385 	stb	r5,14(r2)
  103eec:	100003c5 	stb	zero,15(r2)
  103ef0:	d0e70c15 	stw	r3,-25552(gp)
  103ef4:	203ff405 	stb	zero,-48(r4)
  103ef8:	10000115 	stw	zero,4(r2)
  103efc:	0104b6c0 	call	104b6c <OS_FlagInit>
  103f00:	01056440 	call	105644 <OS_MemInit>
  103f04:	01059fc0 	call	1059fc <OS_QInit>
  103f08:	00c00474 	movhi	r3,17
  103f0c:	18dd9f04 	addi	r3,r3,30332
  103f10:	1981ff04 	addi	r6,r3,2044
  103f14:	01c00504 	movi	r7,20
  103f18:	04008004 	movi	r16,512
  103f1c:	044000c4 	movi	r17,3
  103f20:	01000434 	movhi	r4,16
  103f24:	21118704 	addi	r4,r4,17948
  103f28:	000b883a 	mov	r5,zero
  103f2c:	00bfffd4 	movui	r2,65535
  103f30:	d8c00115 	stw	r3,4(sp)
  103f34:	d8800015 	stw	r2,0(sp)
  103f38:	dc000215 	stw	r16,8(sp)
  103f3c:	d8000315 	stw	zero,12(sp)
  103f40:	dc400415 	stw	r17,16(sp)
  103f44:	0106e400 	call	106e40 <OSTaskCreateExt>
  103f48:	01000504 	movi	r4,20
  103f4c:	d90d883a 	add	r6,sp,r4
  103f50:	01400474 	movhi	r5,17
  103f54:	296e1704 	addi	r5,r5,-18340
  103f58:	01073c00 	call	1073c0 <OSTaskNameSet>
  103f5c:	00c00474 	movhi	r3,17
  103f60:	18d92704 	addi	r3,r3,25756
  103f64:	1981ff04 	addi	r6,r3,2044
  103f68:	01c004c4 	movi	r7,19
  103f6c:	01000434 	movhi	r4,16
  103f70:	21119304 	addi	r4,r4,17996
  103f74:	000b883a 	mov	r5,zero
  103f78:	00bfff94 	movui	r2,65534
  103f7c:	d8c00115 	stw	r3,4(sp)
  103f80:	d8800015 	stw	r2,0(sp)
  103f84:	dc000215 	stw	r16,8(sp)
  103f88:	dc400415 	stw	r17,16(sp)
  103f8c:	d8000315 	stw	zero,12(sp)
  103f90:	0106e400 	call	106e40 <OSTaskCreateExt>
  103f94:	010004c4 	movi	r4,19
  103f98:	01400474 	movhi	r5,17
  103f9c:	296e1b04 	addi	r5,r5,-18324
  103fa0:	d9800504 	addi	r6,sp,20
  103fa4:	01073c00 	call	1073c0 <OSTaskNameSet>
  103fa8:	0107cf80 	call	107cf8 <OSTmr_Init>
  103fac:	01099080 	call	109908 <OSInitHookEnd>
  103fb0:	01049e40 	call	1049e4 <OSDebugInit>
  103fb4:	dfc00817 	ldw	ra,32(sp)
  103fb8:	dc400717 	ldw	r17,28(sp)
  103fbc:	dc000617 	ldw	r16,24(sp)
  103fc0:	dec00904 	addi	sp,sp,36
  103fc4:	f800283a 	ret

00103fc8 <OSEventNameGet>:
  103fc8:	defffd04 	addi	sp,sp,-12
  103fcc:	dc400115 	stw	r17,4(sp)
  103fd0:	3023883a 	mov	r17,r6
  103fd4:	dfc00215 	stw	ra,8(sp)
  103fd8:	dc000015 	stw	r16,0(sp)
  103fdc:	200d883a 	mov	r6,r4
  103fe0:	8800021e 	bne	r17,zero,103fec <OSEventNameGet+0x24>
  103fe4:	0007883a 	mov	r3,zero
  103fe8:	00001f06 	br	104068 <OSEventNameGet+0xa0>
  103fec:	2000031e 	bne	r4,zero,103ffc <OSEventNameGet+0x34>
  103ff0:	0007883a 	mov	r3,zero
  103ff4:	00800104 	movi	r2,4
  103ff8:	00000306 	br	104008 <OSEventNameGet+0x40>
  103ffc:	2800041e 	bne	r5,zero,104010 <OSEventNameGet+0x48>
  104000:	0007883a 	mov	r3,zero
  104004:	00800304 	movi	r2,12
  104008:	88800005 	stb	r2,0(r17)
  10400c:	00001606 	br	104068 <OSEventNameGet+0xa0>
  104010:	d0a70d03 	ldbu	r2,-25548(gp)
  104014:	10000326 	beq	r2,zero,104024 <OSEventNameGet+0x5c>
  104018:	0007883a 	mov	r3,zero
  10401c:	00800444 	movi	r2,17
  104020:	003ff906 	br	104008 <OSEventNameGet+0x40>
  104024:	20800003 	ldbu	r2,0(r4)
  104028:	00c000c4 	movi	r3,3
  10402c:	10bfffc4 	addi	r2,r2,-1
  104030:	1880032e 	bgeu	r3,r2,104040 <OSEventNameGet+0x78>
  104034:	0007883a 	mov	r3,zero
  104038:	00800044 	movi	r2,1
  10403c:	003ff206 	br	104008 <OSEventNameGet+0x40>
  104040:	0021303a 	rdctl	r16,status
  104044:	00bfff84 	movi	r2,-2
  104048:	8084703a 	and	r2,r16,r2
  10404c:	1001703a 	wrctl	status,r2
  104050:	2809883a 	mov	r4,r5
  104054:	31400384 	addi	r5,r6,14
  104058:	0103bf40 	call	103bf4 <OS_StrCopy>
  10405c:	8001703a 	wrctl	status,r16
  104060:	88000005 	stb	zero,0(r17)
  104064:	10c03fcc 	andi	r3,r2,255
  104068:	1805883a 	mov	r2,r3
  10406c:	dfc00217 	ldw	ra,8(sp)
  104070:	dc400117 	ldw	r17,4(sp)
  104074:	dc000017 	ldw	r16,0(sp)
  104078:	dec00304 	addi	sp,sp,12
  10407c:	f800283a 	ret

00104080 <OSEventPendMulti>:
  104080:	defff704 	addi	sp,sp,-36
  104084:	dd400515 	stw	r21,20(sp)
  104088:	dd400917 	ldw	r21,36(sp)
  10408c:	dcc00315 	stw	r19,12(sp)
  104090:	dc800215 	stw	r18,8(sp)
  104094:	dc400115 	stw	r17,4(sp)
  104098:	dfc00815 	stw	ra,32(sp)
  10409c:	ddc00715 	stw	r23,28(sp)
  1040a0:	dd800615 	stw	r22,24(sp)
  1040a4:	dd000415 	stw	r20,16(sp)
  1040a8:	dc000015 	stw	r16,0(sp)
  1040ac:	2027883a 	mov	r19,r4
  1040b0:	2823883a 	mov	r17,r5
  1040b4:	3025883a 	mov	r18,r6
  1040b8:	a800021e 	bne	r21,zero,1040c4 <OSEventPendMulti+0x44>
  1040bc:	0007883a 	mov	r3,zero
  1040c0:	0000b906 	br	1043a8 <OSEventPendMulti+0x328>
  1040c4:	20000226 	beq	r4,zero,1040d0 <OSEventPendMulti+0x50>
  1040c8:	28000126 	beq	r5,zero,1040d0 <OSEventPendMulti+0x50>
  1040cc:	3000031e 	bne	r6,zero,1040dc <OSEventPendMulti+0x5c>
  1040d0:	0007883a 	mov	r3,zero
  1040d4:	00800104 	movi	r2,4
  1040d8:	0000a406 	br	10436c <OSEventPendMulti+0x2ec>
  1040dc:	28000015 	stw	zero,0(r5)
  1040e0:	20800017 	ldw	r2,0(r4)
  1040e4:	2007883a 	mov	r3,r4
  1040e8:	01000084 	movi	r4,2
  1040ec:	00000406 	br	104100 <OSEventPendMulti+0x80>
  1040f0:	10800003 	ldbu	r2,0(r2)
  1040f4:	10bfffc4 	addi	r2,r2,-1
  1040f8:	20809a36 	bltu	r4,r2,104364 <OSEventPendMulti+0x2e4>
  1040fc:	18800017 	ldw	r2,0(r3)
  104100:	18c00104 	addi	r3,r3,4
  104104:	103ffa1e 	bne	r2,zero,1040f0 <OSEventPendMulti+0x70>
  104108:	d0a70d03 	ldbu	r2,-25548(gp)
  10410c:	10000326 	beq	r2,zero,10411c <OSEventPendMulti+0x9c>
  104110:	0007883a 	mov	r3,zero
  104114:	00800084 	movi	r2,2
  104118:	00009406 	br	10436c <OSEventPendMulti+0x2ec>
  10411c:	d0a6fc03 	ldbu	r2,-25616(gp)
  104120:	10000326 	beq	r2,zero,104130 <OSEventPendMulti+0xb0>
  104124:	0007883a 	mov	r3,zero
  104128:	00800344 	movi	r2,13
  10412c:	00008f06 	br	10436c <OSEventPendMulti+0x2ec>
  104130:	002d303a 	rdctl	r22,status
  104134:	00bfff84 	movi	r2,-2
  104138:	b084703a 	and	r2,r22,r2
  10413c:	1001703a 	wrctl	status,r2
  104140:	9c000017 	ldw	r16,0(r19)
  104144:	9811883a 	mov	r8,r19
  104148:	0009883a 	mov	r4,zero
  10414c:	0029883a 	mov	r20,zero
  104150:	000d883a 	mov	r6,zero
  104154:	00003e06 	br	104250 <OSEventPendMulti+0x1d0>
  104158:	80c00003 	ldbu	r3,0(r16)
  10415c:	00800084 	movi	r2,2
  104160:	18801e26 	beq	r3,r2,1041dc <OSEventPendMulti+0x15c>
  104164:	008000c4 	movi	r2,3
  104168:	18800326 	beq	r3,r2,104178 <OSEventPendMulti+0xf8>
  10416c:	00800044 	movi	r2,1
  104170:	1880311e 	bne	r3,r2,104238 <OSEventPendMulti+0x1b8>
  104174:	00000d06 	br	1041ac <OSEventPendMulti+0x12c>
  104178:	8080020b 	ldhu	r2,8(r16)
  10417c:	10000926 	beq	r2,zero,1041a4 <OSEventPendMulti+0x124>
  104180:	8c000015 	stw	r16,0(r17)
  104184:	10bfffc4 	addi	r2,r2,-1
  104188:	90000015 	stw	zero,0(r18)
  10418c:	8c400104 	addi	r17,r17,4
  104190:	94800104 	addi	r18,r18,4
  104194:	a5000044 	addi	r20,r20,1
  104198:	01000044 	movi	r4,1
  10419c:	8080020d 	sth	r2,8(r16)
  1041a0:	00002906 	br	104248 <OSEventPendMulti+0x1c8>
  1041a4:	31800054 	ori	r6,r6,1
  1041a8:	00002706 	br	104248 <OSEventPendMulti+0x1c8>
  1041ac:	80800117 	ldw	r2,4(r16)
  1041b0:	10000826 	beq	r2,zero,1041d4 <OSEventPendMulti+0x154>
  1041b4:	90800015 	stw	r2,0(r18)
  1041b8:	8c000015 	stw	r16,0(r17)
  1041bc:	94800104 	addi	r18,r18,4
  1041c0:	8c400104 	addi	r17,r17,4
  1041c4:	1d29883a 	add	r20,r3,r20
  1041c8:	01000044 	movi	r4,1
  1041cc:	80000115 	stw	zero,4(r16)
  1041d0:	00001d06 	br	104248 <OSEventPendMulti+0x1c8>
  1041d4:	31800094 	ori	r6,r6,2
  1041d8:	00001b06 	br	104248 <OSEventPendMulti+0x1c8>
  1041dc:	81400117 	ldw	r5,4(r16)
  1041e0:	2880058b 	ldhu	r2,22(r5)
  1041e4:	10001226 	beq	r2,zero,104230 <OSEventPendMulti+0x1b0>
  1041e8:	28800417 	ldw	r2,16(r5)
  1041ec:	29000217 	ldw	r4,8(r5)
  1041f0:	10c00017 	ldw	r3,0(r2)
  1041f4:	10800104 	addi	r2,r2,4
  1041f8:	28800415 	stw	r2,16(r5)
  1041fc:	90c00015 	stw	r3,0(r18)
  104200:	1100021e 	bne	r2,r4,10420c <OSEventPendMulti+0x18c>
  104204:	28800117 	ldw	r2,4(r5)
  104208:	28800415 	stw	r2,16(r5)
  10420c:	2880058b 	ldhu	r2,22(r5)
  104210:	8c000015 	stw	r16,0(r17)
  104214:	94800104 	addi	r18,r18,4
  104218:	10bfffc4 	addi	r2,r2,-1
  10421c:	8c400104 	addi	r17,r17,4
  104220:	a5000044 	addi	r20,r20,1
  104224:	01000044 	movi	r4,1
  104228:	2880058d 	sth	r2,22(r5)
  10422c:	00000606 	br	104248 <OSEventPendMulti+0x1c8>
  104230:	31800114 	ori	r6,r6,4
  104234:	00000406 	br	104248 <OSEventPendMulti+0x1c8>
  104238:	b001703a 	wrctl	status,r22
  10423c:	a0ffffcc 	andi	r3,r20,65535
  104240:	88000015 	stw	zero,0(r17)
  104244:	00004906 	br	10436c <OSEventPendMulti+0x2ec>
  104248:	42000104 	addi	r8,r8,4
  10424c:	44000017 	ldw	r16,0(r8)
  104250:	803fc11e 	bne	r16,zero,104158 <OSEventPendMulti+0xd8>
  104254:	20803fcc 	andi	r2,r4,255
  104258:	05c00044 	movi	r23,1
  10425c:	15c0051e 	bne	r2,r23,104274 <OSEventPendMulti+0x1f4>
  104260:	88000015 	stw	zero,0(r17)
  104264:	b001703a 	wrctl	status,r22
  104268:	a0ffffcc 	andi	r3,r20,65535
  10426c:	a8000005 	stb	zero,0(r21)
  104270:	00004d06 	br	1043a8 <OSEventPendMulti+0x328>
  104274:	d1670e17 	ldw	r5,-25544(gp)
  104278:	00ffe004 	movi	r3,-128
  10427c:	9809883a 	mov	r4,r19
  104280:	28800c03 	ldbu	r2,48(r5)
  104284:	10c4b03a 	or	r2,r2,r3
  104288:	1184b03a 	or	r2,r2,r6
  10428c:	28800c05 	stb	r2,48(r5)
  104290:	d0a70e17 	ldw	r2,-25544(gp)
  104294:	10000c45 	stb	zero,49(r2)
  104298:	d0a70e17 	ldw	r2,-25544(gp)
  10429c:	11c00b8d 	sth	r7,46(r2)
  1042a0:	010395c0 	call	10395c <OS_EventTaskWaitMulti>
  1042a4:	b001703a 	wrctl	status,r22
  1042a8:	0103cc40 	call	103cc4 <OS_Sched>
  1042ac:	002d303a 	rdctl	r22,status
  1042b0:	00bfff84 	movi	r2,-2
  1042b4:	b084703a 	and	r2,r22,r2
  1042b8:	1001703a 	wrctl	status,r2
  1042bc:	d1270e17 	ldw	r4,-25544(gp)
  1042c0:	20c00c43 	ldbu	r3,49(r4)
  1042c4:	18000226 	beq	r3,zero,1042d0 <OSEventPendMulti+0x250>
  1042c8:	00800084 	movi	r2,2
  1042cc:	1880091e 	bne	r3,r2,1042f4 <OSEventPendMulti+0x274>
  1042d0:	24000717 	ldw	r16,28(r4)
  1042d4:	80000526 	beq	r16,zero,1042ec <OSEventPendMulti+0x26c>
  1042d8:	8c000015 	stw	r16,0(r17)
  1042dc:	a5000044 	addi	r20,r20,1
  1042e0:	8c400104 	addi	r17,r17,4
  1042e4:	88000015 	stw	zero,0(r17)
  1042e8:	00000406 	br	1042fc <OSEventPendMulti+0x27c>
  1042ec:	25c00c45 	stb	r23,49(r4)
  1042f0:	d1270e17 	ldw	r4,-25544(gp)
  1042f4:	980b883a 	mov	r5,r19
  1042f8:	0103a480 	call	103a48 <OS_EventTaskRemoveMulti>
  1042fc:	d1270e17 	ldw	r4,-25544(gp)
  104300:	20c00c43 	ldbu	r3,49(r4)
  104304:	18000326 	beq	r3,zero,104314 <OSEventPendMulti+0x294>
  104308:	00800084 	movi	r2,2
  10430c:	1880191e 	bne	r3,r2,104374 <OSEventPendMulti+0x2f4>
  104310:	00001106 	br	104358 <OSEventPendMulti+0x2d8>
  104314:	80c00003 	ldbu	r3,0(r16)
  104318:	18000926 	beq	r3,zero,104340 <OSEventPendMulti+0x2c0>
  10431c:	00800084 	movi	r2,2
  104320:	10c0042e 	bgeu	r2,r3,104334 <OSEventPendMulti+0x2b4>
  104324:	008000c4 	movi	r2,3
  104328:	1880051e 	bne	r3,r2,104340 <OSEventPendMulti+0x2c0>
  10432c:	90000015 	stw	zero,0(r18)
  104330:	00000706 	br	104350 <OSEventPendMulti+0x2d0>
  104334:	20800917 	ldw	r2,36(r4)
  104338:	90800015 	stw	r2,0(r18)
  10433c:	00000406 	br	104350 <OSEventPendMulti+0x2d0>
  104340:	b001703a 	wrctl	status,r22
  104344:	a0ffffcc 	andi	r3,r20,65535
  104348:	88000015 	stw	zero,0(r17)
  10434c:	00000606 	br	104368 <OSEventPendMulti+0x2e8>
  104350:	a8000005 	stb	zero,0(r21)
  104354:	00000a06 	br	104380 <OSEventPendMulti+0x300>
  104358:	00800384 	movi	r2,14
  10435c:	90000015 	stw	zero,0(r18)
  104360:	00000606 	br	10437c <OSEventPendMulti+0x2fc>
  104364:	0007883a 	mov	r3,zero
  104368:	00800044 	movi	r2,1
  10436c:	a8800005 	stb	r2,0(r21)
  104370:	00000d06 	br	1043a8 <OSEventPendMulti+0x328>
  104374:	90000015 	stw	zero,0(r18)
  104378:	00800284 	movi	r2,10
  10437c:	a8800005 	stb	r2,0(r21)
  104380:	d0a70e17 	ldw	r2,-25544(gp)
  104384:	10000c05 	stb	zero,48(r2)
  104388:	d0a70e17 	ldw	r2,-25544(gp)
  10438c:	10000c45 	stb	zero,49(r2)
  104390:	d0a70e17 	ldw	r2,-25544(gp)
  104394:	10000915 	stw	zero,36(r2)
  104398:	10000715 	stw	zero,28(r2)
  10439c:	10000815 	stw	zero,32(r2)
  1043a0:	b001703a 	wrctl	status,r22
  1043a4:	a0ffffcc 	andi	r3,r20,65535
  1043a8:	1805883a 	mov	r2,r3
  1043ac:	dfc00817 	ldw	ra,32(sp)
  1043b0:	ddc00717 	ldw	r23,28(sp)
  1043b4:	dd800617 	ldw	r22,24(sp)
  1043b8:	dd400517 	ldw	r21,20(sp)
  1043bc:	dd000417 	ldw	r20,16(sp)
  1043c0:	dcc00317 	ldw	r19,12(sp)
  1043c4:	dc800217 	ldw	r18,8(sp)
  1043c8:	dc400117 	ldw	r17,4(sp)
  1043cc:	dc000017 	ldw	r16,0(sp)
  1043d0:	dec00904 	addi	sp,sp,36
  1043d4:	f800283a 	ret

001043d8 <OSIntEnter>:
  1043d8:	d0e6fe03 	ldbu	r3,-25608(gp)
  1043dc:	00800044 	movi	r2,1
  1043e0:	18800b1e 	bne	r3,r2,104410 <OSIntEnter+0x38>
  1043e4:	000b303a 	rdctl	r5,status
  1043e8:	00bfff84 	movi	r2,-2
  1043ec:	2884703a 	and	r2,r5,r2
  1043f0:	1001703a 	wrctl	status,r2
  1043f4:	d0a70d03 	ldbu	r2,-25548(gp)
  1043f8:	10c9883a 	add	r4,r2,r3
  1043fc:	10803fcc 	andi	r2,r2,255
  104400:	00c03fc4 	movi	r3,255
  104404:	10c00126 	beq	r2,r3,10440c <OSIntEnter+0x34>
  104408:	d1270d05 	stb	r4,-25548(gp)
  10440c:	2801703a 	wrctl	status,r5
  104410:	f800283a 	ret

00104414 <OSSchedLock>:
  104414:	d0e6fe03 	ldbu	r3,-25608(gp)
  104418:	00800044 	movi	r2,1
  10441c:	18800d1e 	bne	r3,r2,104454 <OSSchedLock+0x40>
  104420:	000b303a 	rdctl	r5,status
  104424:	00bfff84 	movi	r2,-2
  104428:	2884703a 	and	r2,r5,r2
  10442c:	1001703a 	wrctl	status,r2
  104430:	d0a70d03 	ldbu	r2,-25548(gp)
  104434:	1000061e 	bne	r2,zero,104450 <OSSchedLock+0x3c>
  104438:	d0a6fc03 	ldbu	r2,-25616(gp)
  10443c:	10c9883a 	add	r4,r2,r3
  104440:	10803fcc 	andi	r2,r2,255
  104444:	00c03fc4 	movi	r3,255
  104448:	10c00126 	beq	r2,r3,104450 <OSSchedLock+0x3c>
  10444c:	d126fc05 	stb	r4,-25616(gp)
  104450:	2801703a 	wrctl	status,r5
  104454:	f800283a 	ret

00104458 <OSSchedUnlock>:
  104458:	d0e6fe03 	ldbu	r3,-25608(gp)
  10445c:	00800044 	movi	r2,1
  104460:	1880111e 	bne	r3,r2,1044a8 <OSSchedUnlock+0x50>
  104464:	000b303a 	rdctl	r5,status
  104468:	00bfff84 	movi	r2,-2
  10446c:	2884703a 	and	r2,r5,r2
  104470:	1001703a 	wrctl	status,r2
  104474:	d0a6fc03 	ldbu	r2,-25616(gp)
  104478:	10ffffc4 	addi	r3,r2,-1
  10447c:	19003fcc 	andi	r4,r3,255
  104480:	10000826 	beq	r2,zero,1044a4 <OSSchedUnlock+0x4c>
  104484:	d0e6fc05 	stb	r3,-25616(gp)
  104488:	2000041e 	bne	r4,zero,10449c <OSSchedUnlock+0x44>
  10448c:	d0a70d03 	ldbu	r2,-25548(gp)
  104490:	1000021e 	bne	r2,zero,10449c <OSSchedUnlock+0x44>
  104494:	2801703a 	wrctl	status,r5
  104498:	0103cc41 	jmpi	103cc4 <OS_Sched>
  10449c:	2801703a 	wrctl	status,r5
  1044a0:	f800283a 	ret
  1044a4:	2801703a 	wrctl	status,r5
  1044a8:	f800283a 	ret

001044ac <OSStatInit>:
  1044ac:	defffe04 	addi	sp,sp,-8
  1044b0:	01000084 	movi	r4,2
  1044b4:	dfc00115 	stw	ra,4(sp)
  1044b8:	dc000015 	stw	r16,0(sp)
  1044bc:	01078380 	call	107838 <OSTimeDly>
  1044c0:	0007303a 	rdctl	r3,status
  1044c4:	043fff84 	movi	r16,-2
  1044c8:	1c04703a 	and	r2,r3,r16
  1044cc:	1001703a 	wrctl	status,r2
  1044d0:	d026ff15 	stw	zero,-25604(gp)
  1044d4:	1801703a 	wrctl	status,r3
  1044d8:	01001904 	movi	r4,100
  1044dc:	01078380 	call	107838 <OSTimeDly>
  1044e0:	0009303a 	rdctl	r4,status
  1044e4:	2420703a 	and	r16,r4,r16
  1044e8:	8001703a 	wrctl	status,r16
  1044ec:	d0e6ff17 	ldw	r3,-25604(gp)
  1044f0:	00800044 	movi	r2,1
  1044f4:	d0a71305 	stb	r2,-25524(gp)
  1044f8:	d0e70515 	stw	r3,-25580(gp)
  1044fc:	2001703a 	wrctl	status,r4
  104500:	dfc00117 	ldw	ra,4(sp)
  104504:	dc000017 	ldw	r16,0(sp)
  104508:	dec00204 	addi	sp,sp,8
  10450c:	f800283a 	ret

00104510 <OSTimeTick>:
  104510:	deffff04 	addi	sp,sp,-4
  104514:	dfc00015 	stw	ra,0(sp)
  104518:	01099140 	call	109914 <OSTimeTickHook>
  10451c:	0007303a 	rdctl	r3,status
  104520:	00bfff84 	movi	r2,-2
  104524:	1884703a 	and	r2,r3,r2
  104528:	1001703a 	wrctl	status,r2
  10452c:	d0a71017 	ldw	r2,-25536(gp)
  104530:	10800044 	addi	r2,r2,1
  104534:	d0a71015 	stw	r2,-25536(gp)
  104538:	1801703a 	wrctl	status,r3
  10453c:	d126fe03 	ldbu	r4,-25608(gp)
  104540:	00800044 	movi	r2,1
  104544:	2080321e 	bne	r4,r2,104610 <OSTimeTick+0x100>
  104548:	d0e70203 	ldbu	r3,-25592(gp)
  10454c:	19003026 	beq	r3,r4,104610 <OSTimeTick+0x100>
  104550:	19002d36 	bltu	r3,r4,104608 <OSTimeTick+0xf8>
  104554:	00800084 	movi	r2,2
  104558:	1880021e 	bne	r3,r2,104564 <OSTimeTick+0x54>
  10455c:	d1270205 	stb	r4,-25592(gp)
  104560:	00002906 	br	104608 <OSTimeTick+0xf8>
  104564:	d0270205 	stb	zero,-25592(gp)
  104568:	00002706 	br	104608 <OSTimeTick+0xf8>
  10456c:	000d303a 	rdctl	r6,status
  104570:	00bfff84 	movi	r2,-2
  104574:	3084703a 	and	r2,r6,r2
  104578:	1001703a 	wrctl	status,r2
  10457c:	28800b8b 	ldhu	r2,46(r5)
  104580:	10ffffc4 	addi	r3,r2,-1
  104584:	193fffcc 	andi	r4,r3,65535
  104588:	10001926 	beq	r2,zero,1045f0 <OSTimeTick+0xe0>
  10458c:	28c00b8d 	sth	r3,46(r5)
  104590:	2000171e 	bne	r4,zero,1045f0 <OSTimeTick+0xe0>
  104594:	28800c03 	ldbu	r2,48(r5)
  104598:	10c0320c 	andi	r3,r2,200
  10459c:	10800dcc 	andi	r2,r2,55
  1045a0:	10000426 	beq	r2,zero,1045b4 <OSTimeTick+0xa4>
  1045a4:	00800044 	movi	r2,1
  1045a8:	28c00c05 	stb	r3,48(r5)
  1045ac:	28800c45 	stb	r2,49(r5)
  1045b0:	00000106 	br	1045b8 <OSTimeTick+0xa8>
  1045b4:	28000c45 	stb	zero,49(r5)
  1045b8:	28800c03 	ldbu	r2,48(r5)
  1045bc:	1080020c 	andi	r2,r2,8
  1045c0:	10000b1e 	bne	r2,zero,1045f0 <OSTimeTick+0xe0>
  1045c4:	28c00d83 	ldbu	r3,54(r5)
  1045c8:	d0a70b03 	ldbu	r2,-25556(gp)
  1045cc:	10c4b03a 	or	r2,r2,r3
  1045d0:	d0a70b05 	stb	r2,-25556(gp)
  1045d4:	28c00d03 	ldbu	r3,52(r5)
  1045d8:	d0a70b44 	addi	r2,gp,-25555
  1045dc:	29000d43 	ldbu	r4,53(r5)
  1045e0:	1887883a 	add	r3,r3,r2
  1045e4:	18800003 	ldbu	r2,0(r3)
  1045e8:	1104b03a 	or	r2,r2,r4
  1045ec:	18800005 	stb	r2,0(r3)
  1045f0:	29400517 	ldw	r5,20(r5)
  1045f4:	3001703a 	wrctl	status,r6
  1045f8:	28c00c83 	ldbu	r3,50(r5)
  1045fc:	00800504 	movi	r2,20
  104600:	18bfda1e 	bne	r3,r2,10456c <OSTimeTick+0x5c>
  104604:	00000206 	br	104610 <OSTimeTick+0x100>
  104608:	d1670117 	ldw	r5,-25596(gp)
  10460c:	003ffa06 	br	1045f8 <OSTimeTick+0xe8>
  104610:	dfc00017 	ldw	ra,0(sp)
  104614:	dec00104 	addi	sp,sp,4
  104618:	f800283a 	ret

0010461c <OS_TaskIdle>:
  10461c:	deffff04 	addi	sp,sp,-4
  104620:	dfc00015 	stw	ra,0(sp)
  104624:	0005303a 	rdctl	r2,status
  104628:	00ffff84 	movi	r3,-2
  10462c:	10c6703a 	and	r3,r2,r3
  104630:	1801703a 	wrctl	status,r3
  104634:	d0e6ff17 	ldw	r3,-25604(gp)
  104638:	18c00044 	addi	r3,r3,1
  10463c:	d0e6ff15 	stw	r3,-25604(gp)
  104640:	1001703a 	wrctl	status,r2
  104644:	010990c0 	call	10990c <OSTaskIdleHook>
  104648:	003ff606 	br	104624 <OS_TaskIdle+0x8>

0010464c <OS_TaskStat>:
  10464c:	deffff04 	addi	sp,sp,-4
  104650:	dfc00015 	stw	ra,0(sp)
  104654:	00000106 	br	10465c <OS_TaskStat+0x10>
  104658:	01078380 	call	107838 <OSTimeDly>
  10465c:	d0a71303 	ldbu	r2,-25524(gp)
  104660:	01003204 	movi	r4,200
  104664:	103ffc26 	beq	r2,zero,104658 <OS_TaskStat+0xc>
  104668:	d1270517 	ldw	r4,-25580(gp)
  10466c:	01401904 	movi	r5,100
  104670:	010b0ec0 	call	10b0ec <__udivsi3>
  104674:	d0a70515 	stw	r2,-25580(gp)
  104678:	1000031e 	bne	r2,zero,104688 <OS_TaskStat+0x3c>
  10467c:	01003fc4 	movi	r4,255
  104680:	d0270705 	stb	zero,-25572(gp)
  104684:	01076d00 	call	1076d0 <OSTaskSuspend>
  104688:	0007303a 	rdctl	r3,status
  10468c:	00bfff84 	movi	r2,-2
  104690:	1884703a 	and	r2,r3,r2
  104694:	1001703a 	wrctl	status,r2
  104698:	d126ff17 	ldw	r4,-25604(gp)
  10469c:	d026ff15 	stw	zero,-25604(gp)
  1046a0:	d1271415 	stw	r4,-25520(gp)
  1046a4:	1801703a 	wrctl	status,r3
  1046a8:	d1670517 	ldw	r5,-25580(gp)
  1046ac:	010b0ec0 	call	10b0ec <__udivsi3>
  1046b0:	00c01904 	movi	r3,100
  1046b4:	1887c83a 	sub	r3,r3,r2
  1046b8:	d0e70705 	stb	r3,-25572(gp)
  1046bc:	01098fc0 	call	1098fc <OSTaskStatHook>
  1046c0:	0103c400 	call	103c40 <OS_TaskStatStkChk>
  1046c4:	01001904 	movi	r4,100
  1046c8:	01078380 	call	107838 <OSTimeDly>
  1046cc:	003fee06 	br	104688 <OS_TaskStat+0x3c>

001046d0 <OS_TCBInit>:
  1046d0:	defffc04 	addi	sp,sp,-16
  1046d4:	da400617 	ldw	r9,24(sp)
  1046d8:	2011883a 	mov	r8,r4
  1046dc:	dfc00315 	stw	ra,12(sp)
  1046e0:	dc800215 	stw	r18,8(sp)
  1046e4:	dc400115 	stw	r17,4(sp)
  1046e8:	dc000015 	stw	r16,0(sp)
  1046ec:	0007303a 	rdctl	r3,status
  1046f0:	04bfff84 	movi	r18,-2
  1046f4:	1c84703a 	and	r2,r3,r18
  1046f8:	1001703a 	wrctl	status,r2
  1046fc:	d4670617 	ldw	r17,-25576(gp)
  104700:	88004c26 	beq	r17,zero,104834 <OS_TCBInit+0x164>
  104704:	88800517 	ldw	r2,20(r17)
  104708:	d0a70615 	stw	r2,-25576(gp)
  10470c:	1801703a 	wrctl	status,r3
  104710:	24003fcc 	andi	r16,r4,255
  104714:	8006d0fa 	srli	r3,r16,3
  104718:	208001cc 	andi	r2,r4,7
  10471c:	88800cc5 	stb	r2,51(r17)
  104720:	88c00d05 	stb	r3,52(r17)
  104724:	19003fcc 	andi	r4,r3,255
  104728:	10803fcc 	andi	r2,r2,255
  10472c:	00c00044 	movi	r3,1
  104730:	1908983a 	sll	r4,r3,r4
  104734:	1886983a 	sll	r3,r3,r2
  104738:	d8800517 	ldw	r2,20(sp)
  10473c:	89400015 	stw	r5,0(r17)
  104740:	89800215 	stw	r6,8(r17)
  104744:	88800115 	stw	r2,4(r17)
  104748:	d8800417 	ldw	r2,16(sp)
  10474c:	8a40040d 	sth	r9,16(r17)
  104750:	89c0048d 	sth	r7,18(r17)
  104754:	88800315 	stw	r2,12(r17)
  104758:	00800fc4 	movi	r2,63
  10475c:	89000d85 	stb	r4,54(r17)
  104760:	88c00d45 	stb	r3,53(r17)
  104764:	88801305 	stb	r2,76(r17)
  104768:	8a000c85 	stb	r8,50(r17)
  10476c:	8809883a 	mov	r4,r17
  104770:	88000c05 	stb	zero,48(r17)
  104774:	88000c45 	stb	zero,49(r17)
  104778:	88000b8d 	sth	zero,46(r17)
  10477c:	88000dc5 	stb	zero,55(r17)
  104780:	88000715 	stw	zero,28(r17)
  104784:	88000815 	stw	zero,32(r17)
  104788:	88000a15 	stw	zero,40(r17)
  10478c:	88000915 	stw	zero,36(r17)
  104790:	88000e15 	stw	zero,56(r17)
  104794:	88001015 	stw	zero,64(r17)
  104798:	88000f15 	stw	zero,60(r17)
  10479c:	88001115 	stw	zero,68(r17)
  1047a0:	88001215 	stw	zero,72(r17)
  1047a4:	88001345 	stb	zero,77(r17)
  1047a8:	01099100 	call	109910 <OSTCBInitHook>
  1047ac:	8809883a 	mov	r4,r17
  1047b0:	01098f00 	call	1098f0 <OSTaskCreateHook>
  1047b4:	000d303a 	rdctl	r6,status
  1047b8:	3484703a 	and	r2,r6,r18
  1047bc:	1001703a 	wrctl	status,r2
  1047c0:	d0a70743 	ldbu	r2,-25571(gp)
  1047c4:	8421883a 	add	r16,r16,r16
  1047c8:	d0e70117 	ldw	r3,-25596(gp)
  1047cc:	8421883a 	add	r16,r16,r16
  1047d0:	11400044 	addi	r5,r2,1
  1047d4:	008004b4 	movhi	r2,18
  1047d8:	10a3b304 	addi	r2,r2,-28980
  1047dc:	80a1883a 	add	r16,r16,r2
  1047e0:	84400015 	stw	r17,0(r16)
  1047e4:	d1270b03 	ldbu	r4,-25556(gp)
  1047e8:	88000615 	stw	zero,24(r17)
  1047ec:	88c00515 	stw	r3,20(r17)
  1047f0:	18000126 	beq	r3,zero,1047f8 <OS_TCBInit+0x128>
  1047f4:	1c400615 	stw	r17,24(r3)
  1047f8:	88800d83 	ldbu	r2,54(r17)
  1047fc:	d4670115 	stw	r17,-25596(gp)
  104800:	2084b03a 	or	r2,r4,r2
  104804:	d0a70b05 	stb	r2,-25556(gp)
  104808:	88c00d03 	ldbu	r3,52(r17)
  10480c:	d0a70b44 	addi	r2,gp,-25555
  104810:	89000d43 	ldbu	r4,53(r17)
  104814:	1887883a 	add	r3,r3,r2
  104818:	18800003 	ldbu	r2,0(r3)
  10481c:	d1670745 	stb	r5,-25571(gp)
  104820:	1104b03a 	or	r2,r2,r4
  104824:	18800005 	stb	r2,0(r3)
  104828:	3001703a 	wrctl	status,r6
  10482c:	0005883a 	mov	r2,zero
  104830:	00000206 	br	10483c <OS_TCBInit+0x16c>
  104834:	1801703a 	wrctl	status,r3
  104838:	00801084 	movi	r2,66
  10483c:	dfc00317 	ldw	ra,12(sp)
  104840:	dc800217 	ldw	r18,8(sp)
  104844:	dc400117 	ldw	r17,4(sp)
  104848:	dc000017 	ldw	r16,0(sp)
  10484c:	dec00404 	addi	sp,sp,16
  104850:	f800283a 	ret

00104854 <OSIntExit>:
  104854:	d1e6fe03 	ldbu	r7,-25608(gp)
  104858:	defffe04 	addi	sp,sp,-8
  10485c:	00800044 	movi	r2,1
  104860:	dfc00115 	stw	ra,4(sp)
  104864:	dc000015 	stw	r16,0(sp)
  104868:	38802b1e 	bne	r7,r2,104918 <OSIntExit+0xc4>
  10486c:	0021303a 	rdctl	r16,status
  104870:	00bfff84 	movi	r2,-2
  104874:	8084703a 	and	r2,r16,r2
  104878:	1001703a 	wrctl	status,r2
  10487c:	d0a70d03 	ldbu	r2,-25548(gp)
  104880:	10ffffc4 	addi	r3,r2,-1
  104884:	19003fcc 	andi	r4,r3,255
  104888:	10000226 	beq	r2,zero,104894 <OSIntExit+0x40>
  10488c:	d0e70d05 	stb	r3,-25548(gp)
  104890:	2000201e 	bne	r4,zero,104914 <OSIntExit+0xc0>
  104894:	d0a6fc03 	ldbu	r2,-25616(gp)
  104898:	01400474 	movhi	r5,17
  10489c:	296e1e84 	addi	r5,r5,-18310
  1048a0:	10001c1e 	bne	r2,zero,104914 <OSIntExit+0xc0>
  1048a4:	d0a70b03 	ldbu	r2,-25556(gp)
  1048a8:	d0e70b44 	addi	r3,gp,-25555
  1048ac:	d1a700c3 	ldbu	r6,-25597(gp)
  1048b0:	1145883a 	add	r2,r2,r5
  1048b4:	11000003 	ldbu	r4,0(r2)
  1048b8:	20c5883a 	add	r2,r4,r3
  1048bc:	10800003 	ldbu	r2,0(r2)
  1048c0:	200890fa 	slli	r4,r4,3
  1048c4:	00c004b4 	movhi	r3,18
  1048c8:	18e3b304 	addi	r3,r3,-28980
  1048cc:	1145883a 	add	r2,r2,r5
  1048d0:	10800003 	ldbu	r2,0(r2)
  1048d4:	2089883a 	add	r4,r4,r2
  1048d8:	21403fcc 	andi	r5,r4,255
  1048dc:	2945883a 	add	r2,r5,r5
  1048e0:	1085883a 	add	r2,r2,r2
  1048e4:	10c5883a 	add	r2,r2,r3
  1048e8:	d1270085 	stb	r4,-25598(gp)
  1048ec:	29800926 	beq	r5,r6,104914 <OSIntExit+0xc0>
  1048f0:	10800017 	ldw	r2,0(r2)
  1048f4:	d1270317 	ldw	r4,-25588(gp)
  1048f8:	10c00e17 	ldw	r3,56(r2)
  1048fc:	21c9883a 	add	r4,r4,r7
  104900:	d0a70915 	stw	r2,-25564(gp)
  104904:	19c7883a 	add	r3,r3,r7
  104908:	10c00e15 	stw	r3,56(r2)
  10490c:	d1270315 	stw	r4,-25588(gp)
  104910:	01098200 	call	109820 <OSCtxSw>
  104914:	8001703a 	wrctl	status,r16
  104918:	dfc00117 	ldw	ra,4(sp)
  10491c:	dc000017 	ldw	r16,0(sp)
  104920:	dec00204 	addi	sp,sp,8
  104924:	f800283a 	ret

00104928 <OSEventNameSet>:
  104928:	defffd04 	addi	sp,sp,-12
  10492c:	dfc00215 	stw	ra,8(sp)
  104930:	dc000115 	stw	r16,4(sp)
  104934:	30002726 	beq	r6,zero,1049d4 <OSEventNameSet+0xac>
  104938:	2000021e 	bne	r4,zero,104944 <OSEventNameSet+0x1c>
  10493c:	00800104 	movi	r2,4
  104940:	00000206 	br	10494c <OSEventNameSet+0x24>
  104944:	2800031e 	bne	r5,zero,104954 <OSEventNameSet+0x2c>
  104948:	00800304 	movi	r2,12
  10494c:	30800005 	stb	r2,0(r6)
  104950:	00002006 	br	1049d4 <OSEventNameSet+0xac>
  104954:	d0a70d03 	ldbu	r2,-25548(gp)
  104958:	10000226 	beq	r2,zero,104964 <OSEventNameSet+0x3c>
  10495c:	00800484 	movi	r2,18
  104960:	003ffa06 	br	10494c <OSEventNameSet+0x24>
  104964:	20800003 	ldbu	r2,0(r4)
  104968:	00c000c4 	movi	r3,3
  10496c:	10bfffc4 	addi	r2,r2,-1
  104970:	1880022e 	bgeu	r3,r2,10497c <OSEventNameSet+0x54>
  104974:	00800044 	movi	r2,1
  104978:	003ff406 	br	10494c <OSEventNameSet+0x24>
  10497c:	0021303a 	rdctl	r16,status
  104980:	00bfff84 	movi	r2,-2
  104984:	8084703a 	and	r2,r16,r2
  104988:	1001703a 	wrctl	status,r2
  10498c:	2807883a 	mov	r3,r5
  104990:	00000106 	br	104998 <OSEventNameSet+0x70>
  104994:	18c00044 	addi	r3,r3,1
  104998:	18800003 	ldbu	r2,0(r3)
  10499c:	103ffd1e 	bne	r2,zero,104994 <OSEventNameSet+0x6c>
  1049a0:	1945c83a 	sub	r2,r3,r5
  1049a4:	10803fcc 	andi	r2,r2,255
  1049a8:	00c007c4 	movi	r3,31
  1049ac:	1880032e 	bgeu	r3,r2,1049bc <OSEventNameSet+0x94>
  1049b0:	8001703a 	wrctl	status,r16
  1049b4:	008002c4 	movi	r2,11
  1049b8:	003fe406 	br	10494c <OSEventNameSet+0x24>
  1049bc:	21000384 	addi	r4,r4,14
  1049c0:	d9800015 	stw	r6,0(sp)
  1049c4:	0103bf40 	call	103bf4 <OS_StrCopy>
  1049c8:	8001703a 	wrctl	status,r16
  1049cc:	d9800017 	ldw	r6,0(sp)
  1049d0:	30000005 	stb	zero,0(r6)
  1049d4:	dfc00217 	ldw	ra,8(sp)
  1049d8:	dc000117 	ldw	r16,4(sp)
  1049dc:	dec00304 	addi	sp,sp,12
  1049e0:	f800283a 	ret

001049e4 <OSDebugInit>:
  1049e4:	f800283a 	ret

001049e8 <OS_FlagBlock>:
  1049e8:	02400474 	movhi	r9,17
  1049ec:	4a7c5604 	addi	r9,r9,-3752
  1049f0:	48c00017 	ldw	r3,0(r9)
  1049f4:	da000017 	ldw	r8,0(sp)
  1049f8:	02800474 	movhi	r10,17
  1049fc:	52bc5304 	addi	r10,r10,-3764
  104a00:	18800c03 	ldbu	r2,48(r3)
  104a04:	10800814 	ori	r2,r2,32
  104a08:	18800c05 	stb	r2,48(r3)
  104a0c:	48800017 	ldw	r2,0(r9)
  104a10:	10000c45 	stb	zero,49(r2)
  104a14:	48800017 	ldw	r2,0(r9)
  104a18:	12000b8d 	sth	r8,46(r2)
  104a1c:	11400a15 	stw	r5,40(r2)
  104a20:	29c00485 	stb	r7,18(r5)
  104a24:	48800017 	ldw	r2,0(r9)
  104a28:	2980040d 	sth	r6,16(r5)
  104a2c:	28800215 	stw	r2,8(r5)
  104a30:	20800117 	ldw	r2,4(r4)
  104a34:	28000115 	stw	zero,4(r5)
  104a38:	29000315 	stw	r4,12(r5)
  104a3c:	28800015 	stw	r2,0(r5)
  104a40:	20800117 	ldw	r2,4(r4)
  104a44:	10000126 	beq	r2,zero,104a4c <OS_FlagBlock+0x64>
  104a48:	11400115 	stw	r5,4(r2)
  104a4c:	21400115 	stw	r5,4(r4)
  104a50:	49400017 	ldw	r5,0(r9)
  104a54:	00c00474 	movhi	r3,17
  104a58:	18fc5344 	addi	r3,r3,-3763
  104a5c:	29000d03 	ldbu	r4,52(r5)
  104a60:	28800d43 	ldbu	r2,53(r5)
  104a64:	20c9883a 	add	r4,r4,r3
  104a68:	20c00003 	ldbu	r3,0(r4)
  104a6c:	0084303a 	nor	r2,zero,r2
  104a70:	10c4703a 	and	r2,r2,r3
  104a74:	10c03fcc 	andi	r3,r2,255
  104a78:	18c0201c 	xori	r3,r3,128
  104a7c:	18ffe004 	addi	r3,r3,-128
  104a80:	20800005 	stb	r2,0(r4)
  104a84:	1800051e 	bne	r3,zero,104a9c <OS_FlagBlock+0xb4>
  104a88:	28800d83 	ldbu	r2,54(r5)
  104a8c:	50c00003 	ldbu	r3,0(r10)
  104a90:	0084303a 	nor	r2,zero,r2
  104a94:	10c4703a 	and	r2,r2,r3
  104a98:	50800005 	stb	r2,0(r10)
  104a9c:	f800283a 	ret

00104aa0 <OS_FlagUnlink>:
  104aa0:	20c00017 	ldw	r3,0(r4)
  104aa4:	20800117 	ldw	r2,4(r4)
  104aa8:	180b003a 	cmpeq	r5,r3,zero
  104aac:	1000051e 	bne	r2,zero,104ac4 <OS_FlagUnlink+0x24>
  104ab0:	20800317 	ldw	r2,12(r4)
  104ab4:	10c00115 	stw	r3,4(r2)
  104ab8:	2800051e 	bne	r5,zero,104ad0 <OS_FlagUnlink+0x30>
  104abc:	18000115 	stw	zero,4(r3)
  104ac0:	00000306 	br	104ad0 <OS_FlagUnlink+0x30>
  104ac4:	10c00015 	stw	r3,0(r2)
  104ac8:	2800011e 	bne	r5,zero,104ad0 <OS_FlagUnlink+0x30>
  104acc:	18800115 	stw	r2,4(r3)
  104ad0:	20800217 	ldw	r2,8(r4)
  104ad4:	10000a15 	stw	zero,40(r2)
  104ad8:	f800283a 	ret

00104adc <OS_FlagTaskRdy>:
  104adc:	200d883a 	mov	r6,r4
  104ae0:	21000217 	ldw	r4,8(r4)
  104ae4:	defffe04 	addi	sp,sp,-8
  104ae8:	dc000015 	stw	r16,0(sp)
  104aec:	dfc00115 	stw	ra,4(sp)
  104af0:	20800c03 	ldbu	r2,48(r4)
  104af4:	01c00474 	movhi	r7,17
  104af8:	39fc5304 	addi	r7,r7,-3764
  104afc:	0021883a 	mov	r16,zero
  104b00:	108037cc 	andi	r2,r2,223
  104b04:	20800c05 	stb	r2,48(r4)
  104b08:	10803fcc 	andi	r2,r2,255
  104b0c:	21400b0d 	sth	r5,44(r4)
  104b10:	20000c45 	stb	zero,49(r4)
  104b14:	20000b8d 	sth	zero,46(r4)
  104b18:	10000d1e 	bne	r2,zero,104b50 <OS_FlagTaskRdy+0x74>
  104b1c:	20c00d83 	ldbu	r3,54(r4)
  104b20:	38800003 	ldbu	r2,0(r7)
  104b24:	04000044 	movi	r16,1
  104b28:	10c4b03a 	or	r2,r2,r3
  104b2c:	38800005 	stb	r2,0(r7)
  104b30:	20c00d03 	ldbu	r3,52(r4)
  104b34:	00800474 	movhi	r2,17
  104b38:	10bc5344 	addi	r2,r2,-3763
  104b3c:	21000d43 	ldbu	r4,53(r4)
  104b40:	1887883a 	add	r3,r3,r2
  104b44:	18800003 	ldbu	r2,0(r3)
  104b48:	1104b03a 	or	r2,r2,r4
  104b4c:	18800005 	stb	r2,0(r3)
  104b50:	3009883a 	mov	r4,r6
  104b54:	0104aa00 	call	104aa0 <OS_FlagUnlink>
  104b58:	80803fcc 	andi	r2,r16,255
  104b5c:	dfc00117 	ldw	ra,4(sp)
  104b60:	dc000017 	ldw	r16,0(sp)
  104b64:	dec00204 	addi	sp,sp,8
  104b68:	f800283a 	ret

00104b6c <OS_FlagInit>:
  104b6c:	deffff04 	addi	sp,sp,-4
  104b70:	0140dc04 	movi	r5,880
  104b74:	01000474 	movhi	r4,17
  104b78:	21146f04 	addi	r4,r4,20924
  104b7c:	dfc00015 	stw	ra,0(sp)
  104b80:	0103bb40 	call	103bb4 <OS_MemClr>
  104b84:	01400474 	movhi	r5,17
  104b88:	29547a04 	addi	r5,r5,20968
  104b8c:	01800fc4 	movi	r6,63
  104b90:	2880d104 	addi	r2,r5,836
  104b94:	283ff505 	stb	zero,-44(r5)
  104b98:	297ff615 	stw	r5,-40(r5)
  104b9c:	29bff785 	stb	r6,-34(r5)
  104ba0:	283ff7c5 	stb	zero,-33(r5)
  104ba4:	29400b04 	addi	r5,r5,44
  104ba8:	28bffa1e 	bne	r5,r2,104b94 <OS_FlagInit+0x28>
  104bac:	293f2404 	addi	r4,r5,-880
  104bb0:	00800474 	movhi	r2,17
  104bb4:	10bc5a04 	addi	r2,r2,-3736
  104bb8:	28fff504 	addi	r3,r5,-44
  104bbc:	11000015 	stw	r4,0(r2)
  104bc0:	19800285 	stb	r6,10(r3)
  104bc4:	180002c5 	stb	zero,11(r3)
  104bc8:	283ff505 	stb	zero,-44(r5)
  104bcc:	18000115 	stw	zero,4(r3)
  104bd0:	dfc00017 	ldw	ra,0(sp)
  104bd4:	dec00104 	addi	sp,sp,4
  104bd8:	f800283a 	ret

00104bdc <OSFlagQuery>:
  104bdc:	000d883a 	mov	r6,zero
  104be0:	28001326 	beq	r5,zero,104c30 <OSFlagQuery+0x54>
  104be4:	000d883a 	mov	r6,zero
  104be8:	2000021e 	bne	r4,zero,104bf4 <OSFlagQuery+0x18>
  104bec:	00801b84 	movi	r2,110
  104bf0:	00000506 	br	104c08 <OSFlagQuery+0x2c>
  104bf4:	20c00003 	ldbu	r3,0(r4)
  104bf8:	00800144 	movi	r2,5
  104bfc:	000d883a 	mov	r6,zero
  104c00:	18800326 	beq	r3,r2,104c10 <OSFlagQuery+0x34>
  104c04:	00800044 	movi	r2,1
  104c08:	28800005 	stb	r2,0(r5)
  104c0c:	00000806 	br	104c30 <OSFlagQuery+0x54>
  104c10:	0005303a 	rdctl	r2,status
  104c14:	00ffff84 	movi	r3,-2
  104c18:	10c6703a 	and	r3,r2,r3
  104c1c:	1801703a 	wrctl	status,r3
  104c20:	20c0020b 	ldhu	r3,8(r4)
  104c24:	1001703a 	wrctl	status,r2
  104c28:	28000005 	stb	zero,0(r5)
  104c2c:	180d883a 	mov	r6,r3
  104c30:	3005883a 	mov	r2,r6
  104c34:	f800283a 	ret

00104c38 <OSFlagAccept>:
  104c38:	3011883a 	mov	r8,r6
  104c3c:	3800021e 	bne	r7,zero,104c48 <OSFlagAccept+0x10>
  104c40:	0007883a 	mov	r3,zero
  104c44:	00005606 	br	104da0 <OSFlagAccept+0x168>
  104c48:	2000031e 	bne	r4,zero,104c58 <OSFlagAccept+0x20>
  104c4c:	0007883a 	mov	r3,zero
  104c50:	00801b84 	movi	r2,110
  104c54:	00000506 	br	104c6c <OSFlagAccept+0x34>
  104c58:	20c00003 	ldbu	r3,0(r4)
  104c5c:	00800144 	movi	r2,5
  104c60:	18800426 	beq	r3,r2,104c74 <OSFlagAccept+0x3c>
  104c64:	0007883a 	mov	r3,zero
  104c68:	00800044 	movi	r2,1
  104c6c:	38800005 	stb	r2,0(r7)
  104c70:	00004b06 	br	104da0 <OSFlagAccept+0x168>
  104c74:	00bfe004 	movi	r2,-128
  104c78:	3084703a 	and	r2,r6,r2
  104c7c:	10803fcc 	andi	r2,r2,255
  104c80:	1000021e 	bne	r2,zero,104c8c <OSFlagAccept+0x54>
  104c84:	0015883a 	mov	r10,zero
  104c88:	00000206 	br	104c94 <OSFlagAccept+0x5c>
  104c8c:	32001fcc 	andi	r8,r6,127
  104c90:	02800044 	movi	r10,1
  104c94:	38000005 	stb	zero,0(r7)
  104c98:	0017303a 	rdctl	r11,status
  104c9c:	00bfff84 	movi	r2,-2
  104ca0:	5884703a 	and	r2,r11,r2
  104ca4:	1001703a 	wrctl	status,r2
  104ca8:	41803fcc 	andi	r6,r8,255
  104cac:	02400044 	movi	r9,1
  104cb0:	32402526 	beq	r6,r9,104d48 <OSFlagAccept+0x110>
  104cb4:	32401936 	bltu	r6,r9,104d1c <OSFlagAccept+0xe4>
  104cb8:	00800084 	movi	r2,2
  104cbc:	30800326 	beq	r6,r2,104ccc <OSFlagAccept+0x94>
  104cc0:	008000c4 	movi	r2,3
  104cc4:	3080311e 	bne	r6,r2,104d8c <OSFlagAccept+0x154>
  104cc8:	00000a06 	br	104cf4 <OSFlagAccept+0xbc>
  104ccc:	2180020b 	ldhu	r6,8(r4)
  104cd0:	28ffffcc 	andi	r3,r5,65535
  104cd4:	314a703a 	and	r5,r6,r5
  104cd8:	28bfffcc 	andi	r2,r5,65535
  104cdc:	2811883a 	mov	r8,r5
  104ce0:	10c0261e 	bne	r2,r3,104d7c <OSFlagAccept+0x144>
  104ce4:	50803fcc 	andi	r2,r10,255
  104ce8:	1240261e 	bne	r2,r9,104d84 <OSFlagAccept+0x14c>
  104cec:	0144303a 	nor	r2,zero,r5
  104cf0:	00000806 	br	104d14 <OSFlagAccept+0xdc>
  104cf4:	2180020b 	ldhu	r6,8(r4)
  104cf8:	3146703a 	and	r3,r6,r5
  104cfc:	18bfffcc 	andi	r2,r3,65535
  104d00:	1811883a 	mov	r8,r3
  104d04:	10001d26 	beq	r2,zero,104d7c <OSFlagAccept+0x144>
  104d08:	50803fcc 	andi	r2,r10,255
  104d0c:	12401d1e 	bne	r2,r9,104d84 <OSFlagAccept+0x14c>
  104d10:	00c4303a 	nor	r2,zero,r3
  104d14:	1184703a 	and	r2,r2,r6
  104d18:	00001606 	br	104d74 <OSFlagAccept+0x13c>
  104d1c:	2180020b 	ldhu	r6,8(r4)
  104d20:	28bfffcc 	andi	r2,r5,65535
  104d24:	0186303a 	nor	r3,zero,r6
  104d28:	194a703a 	and	r5,r3,r5
  104d2c:	28ffffcc 	andi	r3,r5,65535
  104d30:	2811883a 	mov	r8,r5
  104d34:	1880111e 	bne	r3,r2,104d7c <OSFlagAccept+0x144>
  104d38:	50803fcc 	andi	r2,r10,255
  104d3c:	1240111e 	bne	r2,r9,104d84 <OSFlagAccept+0x14c>
  104d40:	2984b03a 	or	r2,r5,r6
  104d44:	00000b06 	br	104d74 <OSFlagAccept+0x13c>
  104d48:	2240020b 	ldhu	r9,8(r4)
  104d4c:	0244303a 	nor	r2,zero,r9
  104d50:	1146703a 	and	r3,r2,r5
  104d54:	18bfffcc 	andi	r2,r3,65535
  104d58:	10a0001c 	xori	r2,r2,32768
  104d5c:	10a00004 	addi	r2,r2,-32768
  104d60:	1811883a 	mov	r8,r3
  104d64:	10000526 	beq	r2,zero,104d7c <OSFlagAccept+0x144>
  104d68:	50803fcc 	andi	r2,r10,255
  104d6c:	1180051e 	bne	r2,r6,104d84 <OSFlagAccept+0x14c>
  104d70:	1a44b03a 	or	r2,r3,r9
  104d74:	2080020d 	sth	r2,8(r4)
  104d78:	00000206 	br	104d84 <OSFlagAccept+0x14c>
  104d7c:	00801c04 	movi	r2,112
  104d80:	38800005 	stb	r2,0(r7)
  104d84:	5801703a 	wrctl	status,r11
  104d88:	00000406 	br	104d9c <OSFlagAccept+0x164>
  104d8c:	5801703a 	wrctl	status,r11
  104d90:	00801bc4 	movi	r2,111
  104d94:	38800005 	stb	r2,0(r7)
  104d98:	0011883a 	mov	r8,zero
  104d9c:	40ffffcc 	andi	r3,r8,65535
  104da0:	1805883a 	mov	r2,r3
  104da4:	f800283a 	ret

00104da8 <OSFlagCreate>:
  104da8:	0007883a 	mov	r3,zero
  104dac:	28001e26 	beq	r5,zero,104e28 <OSFlagCreate+0x80>
  104db0:	00800474 	movhi	r2,17
  104db4:	10bc5504 	addi	r2,r2,-3756
  104db8:	10800003 	ldbu	r2,0(r2)
  104dbc:	0007883a 	mov	r3,zero
  104dc0:	10000226 	beq	r2,zero,104dcc <OSFlagCreate+0x24>
  104dc4:	00800404 	movi	r2,16
  104dc8:	00001606 	br	104e24 <OSFlagCreate+0x7c>
  104dcc:	000d303a 	rdctl	r6,status
  104dd0:	00bfff84 	movi	r2,-2
  104dd4:	3084703a 	and	r2,r6,r2
  104dd8:	1001703a 	wrctl	status,r2
  104ddc:	01c00474 	movhi	r7,17
  104de0:	39fc5a04 	addi	r7,r7,-3736
  104de4:	38c00017 	ldw	r3,0(r7)
  104de8:	18000c26 	beq	r3,zero,104e1c <OSFlagCreate+0x74>
  104dec:	18800117 	ldw	r2,4(r3)
  104df0:	1900020d 	sth	r4,8(r3)
  104df4:	18000115 	stw	zero,4(r3)
  104df8:	38800015 	stw	r2,0(r7)
  104dfc:	00800144 	movi	r2,5
  104e00:	18800005 	stb	r2,0(r3)
  104e04:	00800fc4 	movi	r2,63
  104e08:	18800285 	stb	r2,10(r3)
  104e0c:	180002c5 	stb	zero,11(r3)
  104e10:	3001703a 	wrctl	status,r6
  104e14:	28000005 	stb	zero,0(r5)
  104e18:	00000306 	br	104e28 <OSFlagCreate+0x80>
  104e1c:	3001703a 	wrctl	status,r6
  104e20:	00801c84 	movi	r2,114
  104e24:	28800005 	stb	r2,0(r5)
  104e28:	1805883a 	mov	r2,r3
  104e2c:	f800283a 	ret

00104e30 <OSFlagDel>:
  104e30:	defffa04 	addi	sp,sp,-24
  104e34:	dc400215 	stw	r17,8(sp)
  104e38:	dfc00515 	stw	ra,20(sp)
  104e3c:	dcc00415 	stw	r19,16(sp)
  104e40:	dc800315 	stw	r18,12(sp)
  104e44:	dc000115 	stw	r16,4(sp)
  104e48:	2023883a 	mov	r17,r4
  104e4c:	30004826 	beq	r6,zero,104f70 <OSFlagDel+0x140>
  104e50:	2000021e 	bne	r4,zero,104e5c <OSFlagDel+0x2c>
  104e54:	00801b84 	movi	r2,110
  104e58:	00004406 	br	104f6c <OSFlagDel+0x13c>
  104e5c:	00800474 	movhi	r2,17
  104e60:	10bc5504 	addi	r2,r2,-3756
  104e64:	10800003 	ldbu	r2,0(r2)
  104e68:	10000226 	beq	r2,zero,104e74 <OSFlagDel+0x44>
  104e6c:	008003c4 	movi	r2,15
  104e70:	00003e06 	br	104f6c <OSFlagDel+0x13c>
  104e74:	20c00003 	ldbu	r3,0(r4)
  104e78:	00800144 	movi	r2,5
  104e7c:	18800226 	beq	r3,r2,104e88 <OSFlagDel+0x58>
  104e80:	00800044 	movi	r2,1
  104e84:	00003906 	br	104f6c <OSFlagDel+0x13c>
  104e88:	0025303a 	rdctl	r18,status
  104e8c:	00bfff84 	movi	r2,-2
  104e90:	9084703a 	and	r2,r18,r2
  104e94:	1001703a 	wrctl	status,r2
  104e98:	21000117 	ldw	r4,4(r4)
  104e9c:	29403fcc 	andi	r5,r5,255
  104ea0:	2004c03a 	cmpne	r2,r4,zero
  104ea4:	1027883a 	mov	r19,r2
  104ea8:	28000326 	beq	r5,zero,104eb8 <OSFlagDel+0x88>
  104eac:	00800044 	movi	r2,1
  104eb0:	28802c1e 	bne	r5,r2,104f64 <OSFlagDel+0x134>
  104eb4:	00001006 	br	104ef8 <OSFlagDel+0xc8>
  104eb8:	10000c1e 	bne	r2,zero,104eec <OSFlagDel+0xbc>
  104ebc:	00800fc4 	movi	r2,63
  104ec0:	88800285 	stb	r2,10(r17)
  104ec4:	880002c5 	stb	zero,11(r17)
  104ec8:	88000005 	stb	zero,0(r17)
  104ecc:	00800474 	movhi	r2,17
  104ed0:	10bc5a04 	addi	r2,r2,-3736
  104ed4:	10c00017 	ldw	r3,0(r2)
  104ed8:	8800020d 	sth	zero,8(r17)
  104edc:	14400015 	stw	r17,0(r2)
  104ee0:	88c00115 	stw	r3,4(r17)
  104ee4:	9001703a 	wrctl	status,r18
  104ee8:	00001b06 	br	104f58 <OSFlagDel+0x128>
  104eec:	9001703a 	wrctl	status,r18
  104ef0:	00801244 	movi	r2,73
  104ef4:	00001d06 	br	104f6c <OSFlagDel+0x13c>
  104ef8:	2021883a 	mov	r16,r4
  104efc:	00000406 	br	104f10 <OSFlagDel+0xe0>
  104f00:	d9800015 	stw	r6,0(sp)
  104f04:	0104adc0 	call	104adc <OS_FlagTaskRdy>
  104f08:	84000017 	ldw	r16,0(r16)
  104f0c:	d9800017 	ldw	r6,0(sp)
  104f10:	8009883a 	mov	r4,r16
  104f14:	000b883a 	mov	r5,zero
  104f18:	803ff91e 	bne	r16,zero,104f00 <OSFlagDel+0xd0>
  104f1c:	00800fc4 	movi	r2,63
  104f20:	88800285 	stb	r2,10(r17)
  104f24:	880002c5 	stb	zero,11(r17)
  104f28:	88000005 	stb	zero,0(r17)
  104f2c:	00800474 	movhi	r2,17
  104f30:	10bc5a04 	addi	r2,r2,-3736
  104f34:	10c00017 	ldw	r3,0(r2)
  104f38:	8800020d 	sth	zero,8(r17)
  104f3c:	14400015 	stw	r17,0(r2)
  104f40:	88c00115 	stw	r3,4(r17)
  104f44:	9001703a 	wrctl	status,r18
  104f48:	98000326 	beq	r19,zero,104f58 <OSFlagDel+0x128>
  104f4c:	d9800015 	stw	r6,0(sp)
  104f50:	0103cc40 	call	103cc4 <OS_Sched>
  104f54:	d9800017 	ldw	r6,0(sp)
  104f58:	0023883a 	mov	r17,zero
  104f5c:	30000005 	stb	zero,0(r6)
  104f60:	00000306 	br	104f70 <OSFlagDel+0x140>
  104f64:	9001703a 	wrctl	status,r18
  104f68:	008001c4 	movi	r2,7
  104f6c:	30800005 	stb	r2,0(r6)
  104f70:	8805883a 	mov	r2,r17
  104f74:	dfc00517 	ldw	ra,20(sp)
  104f78:	dcc00417 	ldw	r19,16(sp)
  104f7c:	dc800317 	ldw	r18,12(sp)
  104f80:	dc400217 	ldw	r17,8(sp)
  104f84:	dc000117 	ldw	r16,4(sp)
  104f88:	dec00604 	addi	sp,sp,24
  104f8c:	f800283a 	ret

00104f90 <OSFlagNameGet>:
  104f90:	defffd04 	addi	sp,sp,-12
  104f94:	dc000015 	stw	r16,0(sp)
  104f98:	3021883a 	mov	r16,r6
  104f9c:	dfc00215 	stw	ra,8(sp)
  104fa0:	dc400115 	stw	r17,4(sp)
  104fa4:	200d883a 	mov	r6,r4
  104fa8:	8000021e 	bne	r16,zero,104fb4 <OSFlagNameGet+0x24>
  104fac:	0007883a 	mov	r3,zero
  104fb0:	00002106 	br	105038 <OSFlagNameGet+0xa8>
  104fb4:	2000031e 	bne	r4,zero,104fc4 <OSFlagNameGet+0x34>
  104fb8:	0007883a 	mov	r3,zero
  104fbc:	00801b84 	movi	r2,110
  104fc0:	00000306 	br	104fd0 <OSFlagNameGet+0x40>
  104fc4:	2800041e 	bne	r5,zero,104fd8 <OSFlagNameGet+0x48>
  104fc8:	0007883a 	mov	r3,zero
  104fcc:	00800304 	movi	r2,12
  104fd0:	80800005 	stb	r2,0(r16)
  104fd4:	00001806 	br	105038 <OSFlagNameGet+0xa8>
  104fd8:	00800474 	movhi	r2,17
  104fdc:	10bc5504 	addi	r2,r2,-3756
  104fe0:	10800003 	ldbu	r2,0(r2)
  104fe4:	10000326 	beq	r2,zero,104ff4 <OSFlagNameGet+0x64>
  104fe8:	0007883a 	mov	r3,zero
  104fec:	00800444 	movi	r2,17
  104ff0:	003ff706 	br	104fd0 <OSFlagNameGet+0x40>
  104ff4:	0023303a 	rdctl	r17,status
  104ff8:	00bfff84 	movi	r2,-2
  104ffc:	8884703a 	and	r2,r17,r2
  105000:	1001703a 	wrctl	status,r2
  105004:	20c00003 	ldbu	r3,0(r4)
  105008:	00800144 	movi	r2,5
  10500c:	18800426 	beq	r3,r2,105020 <OSFlagNameGet+0x90>
  105010:	8801703a 	wrctl	status,r17
  105014:	0007883a 	mov	r3,zero
  105018:	00800044 	movi	r2,1
  10501c:	003fec06 	br	104fd0 <OSFlagNameGet+0x40>
  105020:	2809883a 	mov	r4,r5
  105024:	31400284 	addi	r5,r6,10
  105028:	0103bf40 	call	103bf4 <OS_StrCopy>
  10502c:	8801703a 	wrctl	status,r17
  105030:	80000005 	stb	zero,0(r16)
  105034:	10c03fcc 	andi	r3,r2,255
  105038:	1805883a 	mov	r2,r3
  10503c:	dfc00217 	ldw	ra,8(sp)
  105040:	dc400117 	ldw	r17,4(sp)
  105044:	dc000017 	ldw	r16,0(sp)
  105048:	dec00304 	addi	sp,sp,12
  10504c:	f800283a 	ret

00105050 <OSFlagNameSet>:
  105050:	defffb04 	addi	sp,sp,-20
  105054:	dc800215 	stw	r18,8(sp)
  105058:	dc400115 	stw	r17,4(sp)
  10505c:	dc000015 	stw	r16,0(sp)
  105060:	dfc00415 	stw	ra,16(sp)
  105064:	dcc00315 	stw	r19,12(sp)
  105068:	3021883a 	mov	r16,r6
  10506c:	2023883a 	mov	r17,r4
  105070:	2825883a 	mov	r18,r5
  105074:	30002426 	beq	r6,zero,105108 <OSFlagNameSet+0xb8>
  105078:	2000021e 	bne	r4,zero,105084 <OSFlagNameSet+0x34>
  10507c:	00801b84 	movi	r2,110
  105080:	00000206 	br	10508c <OSFlagNameSet+0x3c>
  105084:	2800031e 	bne	r5,zero,105094 <OSFlagNameSet+0x44>
  105088:	00800304 	movi	r2,12
  10508c:	80800005 	stb	r2,0(r16)
  105090:	00001d06 	br	105108 <OSFlagNameSet+0xb8>
  105094:	00800474 	movhi	r2,17
  105098:	10bc5504 	addi	r2,r2,-3756
  10509c:	10800003 	ldbu	r2,0(r2)
  1050a0:	10000226 	beq	r2,zero,1050ac <OSFlagNameSet+0x5c>
  1050a4:	00800484 	movi	r2,18
  1050a8:	003ff806 	br	10508c <OSFlagNameSet+0x3c>
  1050ac:	0027303a 	rdctl	r19,status
  1050b0:	00bfff84 	movi	r2,-2
  1050b4:	9884703a 	and	r2,r19,r2
  1050b8:	1001703a 	wrctl	status,r2
  1050bc:	20c00003 	ldbu	r3,0(r4)
  1050c0:	00800144 	movi	r2,5
  1050c4:	18800326 	beq	r3,r2,1050d4 <OSFlagNameSet+0x84>
  1050c8:	9801703a 	wrctl	status,r19
  1050cc:	00800044 	movi	r2,1
  1050d0:	003fee06 	br	10508c <OSFlagNameSet+0x3c>
  1050d4:	2809883a 	mov	r4,r5
  1050d8:	0103c200 	call	103c20 <OS_StrLen>
  1050dc:	10803fcc 	andi	r2,r2,255
  1050e0:	00c007c4 	movi	r3,31
  1050e4:	1880032e 	bgeu	r3,r2,1050f4 <OSFlagNameSet+0xa4>
  1050e8:	9801703a 	wrctl	status,r19
  1050ec:	00801cc4 	movi	r2,115
  1050f0:	003fe606 	br	10508c <OSFlagNameSet+0x3c>
  1050f4:	89000284 	addi	r4,r17,10
  1050f8:	900b883a 	mov	r5,r18
  1050fc:	0103bf40 	call	103bf4 <OS_StrCopy>
  105100:	9801703a 	wrctl	status,r19
  105104:	80000005 	stb	zero,0(r16)
  105108:	dfc00417 	ldw	ra,16(sp)
  10510c:	dcc00317 	ldw	r19,12(sp)
  105110:	dc800217 	ldw	r18,8(sp)
  105114:	dc400117 	ldw	r17,4(sp)
  105118:	dc000017 	ldw	r16,0(sp)
  10511c:	dec00504 	addi	sp,sp,20
  105120:	f800283a 	ret

00105124 <OSFlagPend>:
  105124:	defff204 	addi	sp,sp,-56
  105128:	dd000a15 	stw	r20,40(sp)
  10512c:	dd000e17 	ldw	r20,56(sp)
  105130:	dd800c15 	stw	r22,48(sp)
  105134:	dc000615 	stw	r16,24(sp)
  105138:	dfc00d15 	stw	ra,52(sp)
  10513c:	dd400b15 	stw	r21,44(sp)
  105140:	dcc00915 	stw	r19,36(sp)
  105144:	dc800815 	stw	r18,32(sp)
  105148:	dc400715 	stw	r17,28(sp)
  10514c:	2021883a 	mov	r16,r4
  105150:	3813883a 	mov	r9,r7
  105154:	302d883a 	mov	r22,r6
  105158:	a000021e 	bne	r20,zero,105164 <OSFlagPend+0x40>
  10515c:	000d883a 	mov	r6,zero
  105160:	0000a506 	br	1053f8 <OSFlagPend+0x2d4>
  105164:	2000031e 	bne	r4,zero,105174 <OSFlagPend+0x50>
  105168:	000d883a 	mov	r6,zero
  10516c:	00801b84 	movi	r2,110
  105170:	00000606 	br	10518c <OSFlagPend+0x68>
  105174:	00800474 	movhi	r2,17
  105178:	10bc5504 	addi	r2,r2,-3756
  10517c:	10800003 	ldbu	r2,0(r2)
  105180:	10000426 	beq	r2,zero,105194 <OSFlagPend+0x70>
  105184:	000d883a 	mov	r6,zero
  105188:	00800084 	movi	r2,2
  10518c:	a0800005 	stb	r2,0(r20)
  105190:	00009906 	br	1053f8 <OSFlagPend+0x2d4>
  105194:	00800474 	movhi	r2,17
  105198:	10bc4404 	addi	r2,r2,-3824
  10519c:	10800003 	ldbu	r2,0(r2)
  1051a0:	10000326 	beq	r2,zero,1051b0 <OSFlagPend+0x8c>
  1051a4:	000d883a 	mov	r6,zero
  1051a8:	00800344 	movi	r2,13
  1051ac:	003ff706 	br	10518c <OSFlagPend+0x68>
  1051b0:	20c00003 	ldbu	r3,0(r4)
  1051b4:	00800144 	movi	r2,5
  1051b8:	18800326 	beq	r3,r2,1051c8 <OSFlagPend+0xa4>
  1051bc:	000d883a 	mov	r6,zero
  1051c0:	00800044 	movi	r2,1
  1051c4:	003ff106 	br	10518c <OSFlagPend+0x68>
  1051c8:	00bfe004 	movi	r2,-128
  1051cc:	3084703a 	and	r2,r6,r2
  1051d0:	10803fcc 	andi	r2,r2,255
  1051d4:	1000021e 	bne	r2,zero,1051e0 <OSFlagPend+0xbc>
  1051d8:	002b883a 	mov	r21,zero
  1051dc:	00000206 	br	1051e8 <OSFlagPend+0xc4>
  1051e0:	35801fcc 	andi	r22,r6,127
  1051e4:	05400044 	movi	r21,1
  1051e8:	0023303a 	rdctl	r17,status
  1051ec:	00bfff84 	movi	r2,-2
  1051f0:	8884703a 	and	r2,r17,r2
  1051f4:	1001703a 	wrctl	status,r2
  1051f8:	b1c03fcc 	andi	r7,r22,255
  1051fc:	02000044 	movi	r8,1
  105200:	3a003026 	beq	r7,r8,1052c4 <OSFlagPend+0x1a0>
  105204:	3a001d36 	bltu	r7,r8,10527c <OSFlagPend+0x158>
  105208:	00800084 	movi	r2,2
  10520c:	38800326 	beq	r7,r2,10521c <OSFlagPend+0xf8>
  105210:	008000c4 	movi	r2,3
  105214:	3880421e 	bne	r7,r2,105320 <OSFlagPend+0x1fc>
  105218:	00000a06 	br	105244 <OSFlagPend+0x120>
  10521c:	80c0020b 	ldhu	r3,8(r16)
  105220:	29bfffcc 	andi	r6,r5,65535
  105224:	194a703a 	and	r5,r3,r5
  105228:	28bfffcc 	andi	r2,r5,65535
  10522c:	1180231e 	bne	r2,r6,1052bc <OSFlagPend+0x198>
  105230:	a8803fcc 	andi	r2,r21,255
  105234:	12001b1e 	bne	r2,r8,1052a4 <OSFlagPend+0x180>
  105238:	0144303a 	nor	r2,zero,r5
  10523c:	10c4703a 	and	r2,r2,r3
  105240:	00001706 	br	1052a0 <OSFlagPend+0x17c>
  105244:	8100020b 	ldhu	r4,8(r16)
  105248:	2146703a 	and	r3,r4,r5
  10524c:	19bfffcc 	andi	r6,r3,65535
  105250:	30003026 	beq	r6,zero,105314 <OSFlagPend+0x1f0>
  105254:	a8803fcc 	andi	r2,r21,255
  105258:	1200031e 	bne	r2,r8,105268 <OSFlagPend+0x144>
  10525c:	00c4303a 	nor	r2,zero,r3
  105260:	1104703a 	and	r2,r2,r4
  105264:	8080020d 	sth	r2,8(r16)
  105268:	00800474 	movhi	r2,17
  10526c:	10bc5604 	addi	r2,r2,-3752
  105270:	10800017 	ldw	r2,0(r2)
  105274:	10c00b0d 	sth	r3,44(r2)
  105278:	00000e06 	br	1052b4 <OSFlagPend+0x190>
  10527c:	80c0020b 	ldhu	r3,8(r16)
  105280:	29bfffcc 	andi	r6,r5,65535
  105284:	00c4303a 	nor	r2,zero,r3
  105288:	114a703a 	and	r5,r2,r5
  10528c:	28bfffcc 	andi	r2,r5,65535
  105290:	11800a1e 	bne	r2,r6,1052bc <OSFlagPend+0x198>
  105294:	a8803fcc 	andi	r2,r21,255
  105298:	1200021e 	bne	r2,r8,1052a4 <OSFlagPend+0x180>
  10529c:	28c4b03a 	or	r2,r5,r3
  1052a0:	8080020d 	sth	r2,8(r16)
  1052a4:	00800474 	movhi	r2,17
  1052a8:	10bc5604 	addi	r2,r2,-3752
  1052ac:	10800017 	ldw	r2,0(r2)
  1052b0:	11400b0d 	sth	r5,44(r2)
  1052b4:	8801703a 	wrctl	status,r17
  1052b8:	00001406 	br	10530c <OSFlagPend+0x1e8>
  1052bc:	48bfffcc 	andi	r2,r9,65535
  1052c0:	00001906 	br	105328 <OSFlagPend+0x204>
  1052c4:	8100020b 	ldhu	r4,8(r16)
  1052c8:	0104303a 	nor	r2,zero,r4
  1052cc:	1146703a 	and	r3,r2,r5
  1052d0:	18bfffcc 	andi	r2,r3,65535
  1052d4:	10a0001c 	xori	r2,r2,32768
  1052d8:	10a00004 	addi	r2,r2,-32768
  1052dc:	180d883a 	mov	r6,r3
  1052e0:	10000c26 	beq	r2,zero,105314 <OSFlagPend+0x1f0>
  1052e4:	a8803fcc 	andi	r2,r21,255
  1052e8:	11c0021e 	bne	r2,r7,1052f4 <OSFlagPend+0x1d0>
  1052ec:	1904b03a 	or	r2,r3,r4
  1052f0:	8080020d 	sth	r2,8(r16)
  1052f4:	00800474 	movhi	r2,17
  1052f8:	10bc5604 	addi	r2,r2,-3752
  1052fc:	10800017 	ldw	r2,0(r2)
  105300:	10c00b0d 	sth	r3,44(r2)
  105304:	8801703a 	wrctl	status,r17
  105308:	31bfffcc 	andi	r6,r6,65535
  10530c:	a0000005 	stb	zero,0(r20)
  105310:	00003906 	br	1053f8 <OSFlagPend+0x2d4>
  105314:	48bfffcc 	andi	r2,r9,65535
  105318:	29bfffcc 	andi	r6,r5,65535
  10531c:	00000206 	br	105328 <OSFlagPend+0x204>
  105320:	8801703a 	wrctl	status,r17
  105324:	00002e06 	br	1053e0 <OSFlagPend+0x2bc>
  105328:	8009883a 	mov	r4,r16
  10532c:	d9400104 	addi	r5,sp,4
  105330:	d8800015 	stw	r2,0(sp)
  105334:	01049e80 	call	1049e8 <OS_FlagBlock>
  105338:	8801703a 	wrctl	status,r17
  10533c:	0103cc40 	call	103cc4 <OS_Sched>
  105340:	0027303a 	rdctl	r19,status
  105344:	00bfff84 	movi	r2,-2
  105348:	9884703a 	and	r2,r19,r2
  10534c:	1001703a 	wrctl	status,r2
  105350:	04800474 	movhi	r18,17
  105354:	94bc5604 	addi	r18,r18,-3752
  105358:	90800017 	ldw	r2,0(r18)
  10535c:	14400c43 	ldbu	r17,49(r2)
  105360:	88000e26 	beq	r17,zero,10539c <OSFlagPend+0x278>
  105364:	10000c45 	stb	zero,49(r2)
  105368:	d9000104 	addi	r4,sp,4
  10536c:	0104aa00 	call	104aa0 <OS_FlagUnlink>
  105370:	90800017 	ldw	r2,0(r18)
  105374:	10000c05 	stb	zero,48(r2)
  105378:	9801703a 	wrctl	status,r19
  10537c:	00800084 	movi	r2,2
  105380:	8880031e 	bne	r17,r2,105390 <OSFlagPend+0x26c>
  105384:	000d883a 	mov	r6,zero
  105388:	00800384 	movi	r2,14
  10538c:	003f7f06 	br	10518c <OSFlagPend+0x68>
  105390:	000d883a 	mov	r6,zero
  105394:	00800284 	movi	r2,10
  105398:	003f7c06 	br	10518c <OSFlagPend+0x68>
  10539c:	11800b0b 	ldhu	r6,44(r2)
  1053a0:	a9003fcc 	andi	r4,r21,255
  1053a4:	00800044 	movi	r2,1
  1053a8:	2080101e 	bne	r4,r2,1053ec <OSFlagPend+0x2c8>
  1053ac:	b0c03fcc 	andi	r3,r22,255
  1053b0:	20c0062e 	bgeu	r4,r3,1053cc <OSFlagPend+0x2a8>
  1053b4:	008000c4 	movi	r2,3
  1053b8:	10c00836 	bltu	r2,r3,1053dc <OSFlagPend+0x2b8>
  1053bc:	80c0020b 	ldhu	r3,8(r16)
  1053c0:	0184303a 	nor	r2,zero,r6
  1053c4:	10c4703a 	and	r2,r2,r3
  1053c8:	00000206 	br	1053d4 <OSFlagPend+0x2b0>
  1053cc:	8080020b 	ldhu	r2,8(r16)
  1053d0:	1184b03a 	or	r2,r2,r6
  1053d4:	8080020d 	sth	r2,8(r16)
  1053d8:	00000406 	br	1053ec <OSFlagPend+0x2c8>
  1053dc:	9801703a 	wrctl	status,r19
  1053e0:	000d883a 	mov	r6,zero
  1053e4:	00801bc4 	movi	r2,111
  1053e8:	003f6806 	br	10518c <OSFlagPend+0x68>
  1053ec:	9801703a 	wrctl	status,r19
  1053f0:	a0000005 	stb	zero,0(r20)
  1053f4:	31bfffcc 	andi	r6,r6,65535
  1053f8:	3005883a 	mov	r2,r6
  1053fc:	dfc00d17 	ldw	ra,52(sp)
  105400:	dd800c17 	ldw	r22,48(sp)
  105404:	dd400b17 	ldw	r21,44(sp)
  105408:	dd000a17 	ldw	r20,40(sp)
  10540c:	dcc00917 	ldw	r19,36(sp)
  105410:	dc800817 	ldw	r18,32(sp)
  105414:	dc400717 	ldw	r17,28(sp)
  105418:	dc000617 	ldw	r16,24(sp)
  10541c:	dec00e04 	addi	sp,sp,56
  105420:	f800283a 	ret

00105424 <OSFlagPendGetFlagsRdy>:
  105424:	0007303a 	rdctl	r3,status
  105428:	00bfff84 	movi	r2,-2
  10542c:	1884703a 	and	r2,r3,r2
  105430:	1001703a 	wrctl	status,r2
  105434:	00800474 	movhi	r2,17
  105438:	10bc5604 	addi	r2,r2,-3752
  10543c:	10800017 	ldw	r2,0(r2)
  105440:	10800b0b 	ldhu	r2,44(r2)
  105444:	1801703a 	wrctl	status,r3
  105448:	10bfffcc 	andi	r2,r2,65535
  10544c:	f800283a 	ret

00105450 <OSFlagPost>:
  105450:	defff804 	addi	sp,sp,-32
  105454:	dd000415 	stw	r20,16(sp)
  105458:	dc800215 	stw	r18,8(sp)
  10545c:	dfc00715 	stw	ra,28(sp)
  105460:	dd800615 	stw	r22,24(sp)
  105464:	dd400515 	stw	r21,20(sp)
  105468:	dcc00315 	stw	r19,12(sp)
  10546c:	dc400115 	stw	r17,4(sp)
  105470:	dc000015 	stw	r16,0(sp)
  105474:	3829883a 	mov	r20,r7
  105478:	2025883a 	mov	r18,r4
  10547c:	3800021e 	bne	r7,zero,105488 <OSFlagPost+0x38>
  105480:	0007883a 	mov	r3,zero
  105484:	00006406 	br	105618 <OSFlagPost+0x1c8>
  105488:	2000031e 	bne	r4,zero,105498 <OSFlagPost+0x48>
  10548c:	0007883a 	mov	r3,zero
  105490:	00801b84 	movi	r2,110
  105494:	00000506 	br	1054ac <OSFlagPost+0x5c>
  105498:	20c00003 	ldbu	r3,0(r4)
  10549c:	00800144 	movi	r2,5
  1054a0:	18800426 	beq	r3,r2,1054b4 <OSFlagPost+0x64>
  1054a4:	0007883a 	mov	r3,zero
  1054a8:	00800044 	movi	r2,1
  1054ac:	a0800005 	stb	r2,0(r20)
  1054b0:	00005906 	br	105618 <OSFlagPost+0x1c8>
  1054b4:	002b303a 	rdctl	r21,status
  1054b8:	00bfff84 	movi	r2,-2
  1054bc:	a884703a 	and	r2,r21,r2
  1054c0:	1001703a 	wrctl	status,r2
  1054c4:	31803fcc 	andi	r6,r6,255
  1054c8:	30000326 	beq	r6,zero,1054d8 <OSFlagPost+0x88>
  1054cc:	00800044 	movi	r2,1
  1054d0:	30800b1e 	bne	r6,r2,105500 <OSFlagPost+0xb0>
  1054d4:	00000406 	br	1054e8 <OSFlagPost+0x98>
  1054d8:	20c0020b 	ldhu	r3,8(r4)
  1054dc:	0144303a 	nor	r2,zero,r5
  1054e0:	10c4703a 	and	r2,r2,r3
  1054e4:	00000206 	br	1054f0 <OSFlagPost+0xa0>
  1054e8:	2080020b 	ldhu	r2,8(r4)
  1054ec:	2884b03a 	or	r2,r5,r2
  1054f0:	94400117 	ldw	r17,4(r18)
  1054f4:	002d883a 	mov	r22,zero
  1054f8:	9080020d 	sth	r2,8(r18)
  1054fc:	00003906 	br	1055e4 <OSFlagPost+0x194>
  105500:	a801703a 	wrctl	status,r21
  105504:	0007883a 	mov	r3,zero
  105508:	00801c44 	movi	r2,113
  10550c:	003fe706 	br	1054ac <OSFlagPost+0x5c>
  105510:	8c000483 	ldbu	r16,18(r17)
  105514:	04c00044 	movi	r19,1
  105518:	84c01e26 	beq	r16,r19,105594 <OSFlagPost+0x144>
  10551c:	84c01236 	bltu	r16,r19,105568 <OSFlagPost+0x118>
  105520:	00800084 	movi	r2,2
  105524:	80800326 	beq	r16,r2,105534 <OSFlagPost+0xe4>
  105528:	008000c4 	movi	r2,3
  10552c:	8080271e 	bne	r16,r2,1055cc <OSFlagPost+0x17c>
  105530:	00000706 	br	105550 <OSFlagPost+0x100>
  105534:	8880040b 	ldhu	r2,16(r17)
  105538:	90c0020b 	ldhu	r3,8(r18)
  10553c:	1009883a 	mov	r4,r2
  105540:	10c4703a 	and	r2,r2,r3
  105544:	117fffcc 	andi	r5,r2,65535
  105548:	2900251e 	bne	r5,r4,1055e0 <OSFlagPost+0x190>
  10554c:	00000c06 	br	105580 <OSFlagPost+0x130>
  105550:	9080020b 	ldhu	r2,8(r18)
  105554:	88c0040b 	ldhu	r3,16(r17)
  105558:	10c4703a 	and	r2,r2,r3
  10555c:	117fffcc 	andi	r5,r2,65535
  105560:	28001f26 	beq	r5,zero,1055e0 <OSFlagPost+0x190>
  105564:	00000606 	br	105580 <OSFlagPost+0x130>
  105568:	9080020b 	ldhu	r2,8(r18)
  10556c:	88c0040b 	ldhu	r3,16(r17)
  105570:	0084303a 	nor	r2,zero,r2
  105574:	10c4703a 	and	r2,r2,r3
  105578:	117fffcc 	andi	r5,r2,65535
  10557c:	28c0181e 	bne	r5,r3,1055e0 <OSFlagPost+0x190>
  105580:	8809883a 	mov	r4,r17
  105584:	0104adc0 	call	104adc <OS_FlagTaskRdy>
  105588:	10803fcc 	andi	r2,r2,255
  10558c:	14c0141e 	bne	r2,r19,1055e0 <OSFlagPost+0x190>
  105590:	00001206 	br	1055dc <OSFlagPost+0x18c>
  105594:	9080020b 	ldhu	r2,8(r18)
  105598:	88c0040b 	ldhu	r3,16(r17)
  10559c:	0084303a 	nor	r2,zero,r2
  1055a0:	10ca703a 	and	r5,r2,r3
  1055a4:	28bfffcc 	andi	r2,r5,65535
  1055a8:	10a0001c 	xori	r2,r2,32768
  1055ac:	10a00004 	addi	r2,r2,-32768
  1055b0:	10000b26 	beq	r2,zero,1055e0 <OSFlagPost+0x190>
  1055b4:	297fffcc 	andi	r5,r5,65535
  1055b8:	8809883a 	mov	r4,r17
  1055bc:	0104adc0 	call	104adc <OS_FlagTaskRdy>
  1055c0:	10803fcc 	andi	r2,r2,255
  1055c4:	1400061e 	bne	r2,r16,1055e0 <OSFlagPost+0x190>
  1055c8:	00000406 	br	1055dc <OSFlagPost+0x18c>
  1055cc:	a801703a 	wrctl	status,r21
  1055d0:	0007883a 	mov	r3,zero
  1055d4:	00801bc4 	movi	r2,111
  1055d8:	003fb406 	br	1054ac <OSFlagPost+0x5c>
  1055dc:	05800044 	movi	r22,1
  1055e0:	8c400017 	ldw	r17,0(r17)
  1055e4:	883fca1e 	bne	r17,zero,105510 <OSFlagPost+0xc0>
  1055e8:	a801703a 	wrctl	status,r21
  1055ec:	b0c03fcc 	andi	r3,r22,255
  1055f0:	00800044 	movi	r2,1
  1055f4:	1880011e 	bne	r3,r2,1055fc <OSFlagPost+0x1ac>
  1055f8:	0103cc40 	call	103cc4 <OS_Sched>
  1055fc:	0005303a 	rdctl	r2,status
  105600:	00ffff84 	movi	r3,-2
  105604:	10c6703a 	and	r3,r2,r3
  105608:	1801703a 	wrctl	status,r3
  10560c:	90c0020b 	ldhu	r3,8(r18)
  105610:	1001703a 	wrctl	status,r2
  105614:	a0000005 	stb	zero,0(r20)
  105618:	1805883a 	mov	r2,r3
  10561c:	dfc00717 	ldw	ra,28(sp)
  105620:	dd800617 	ldw	r22,24(sp)
  105624:	dd400517 	ldw	r21,20(sp)
  105628:	dd000417 	ldw	r20,16(sp)
  10562c:	dcc00317 	ldw	r19,12(sp)
  105630:	dc800217 	ldw	r18,8(sp)
  105634:	dc400117 	ldw	r17,4(sp)
  105638:	dc000017 	ldw	r16,0(sp)
  10563c:	dec00804 	addi	sp,sp,32
  105640:	f800283a 	ret

00105644 <OS_MemInit>:
  105644:	deffff04 	addi	sp,sp,-4
  105648:	01430c04 	movi	r5,3120
  10564c:	01000474 	movhi	r4,17
  105650:	21161b04 	addi	r4,r4,22636
  105654:	dfc00015 	stw	ra,0(sp)
  105658:	0103bb40 	call	103bb4 <OS_MemClr>
  10565c:	00c00474 	movhi	r3,17
  105660:	18d62804 	addi	r3,r3,22688
  105664:	01400fc4 	movi	r5,63
  105668:	1882ff04 	addi	r2,r3,3068
  10566c:	18fff415 	stw	r3,-48(r3)
  105670:	197ff805 	stb	r5,-32(r3)
  105674:	183ff845 	stb	zero,-31(r3)
  105678:	18c00d04 	addi	r3,r3,52
  10567c:	18bffb1e 	bne	r3,r2,10566c <OS_MemInit+0x28>
  105680:	193cf404 	addi	r4,r3,-3120
  105684:	00800474 	movhi	r2,17
  105688:	10bc5004 	addi	r2,r2,-3776
  10568c:	18fff304 	addi	r3,r3,-52
  105690:	11000015 	stw	r4,0(r2)
  105694:	19400505 	stb	r5,20(r3)
  105698:	18000545 	stb	zero,21(r3)
  10569c:	18000115 	stw	zero,4(r3)
  1056a0:	dfc00017 	ldw	ra,0(sp)
  1056a4:	dec00104 	addi	sp,sp,4
  1056a8:	f800283a 	ret

001056ac <OSMemQuery>:
  1056ac:	200f883a 	mov	r7,r4
  1056b0:	00801804 	movi	r2,96
  1056b4:	280d883a 	mov	r6,r5
  1056b8:	20001426 	beq	r4,zero,10570c <OSMemQuery+0x60>
  1056bc:	00801844 	movi	r2,97
  1056c0:	28001226 	beq	r5,zero,10570c <OSMemQuery+0x60>
  1056c4:	000b303a 	rdctl	r5,status
  1056c8:	00bfff84 	movi	r2,-2
  1056cc:	2884703a 	and	r2,r5,r2
  1056d0:	1001703a 	wrctl	status,r2
  1056d4:	20800217 	ldw	r2,8(r4)
  1056d8:	20c00017 	ldw	r3,0(r4)
  1056dc:	30800215 	stw	r2,8(r6)
  1056e0:	20800317 	ldw	r2,12(r4)
  1056e4:	30c00015 	stw	r3,0(r6)
  1056e8:	21000117 	ldw	r4,4(r4)
  1056ec:	30800315 	stw	r2,12(r6)
  1056f0:	38c00417 	ldw	r3,16(r7)
  1056f4:	31000115 	stw	r4,4(r6)
  1056f8:	30c00415 	stw	r3,16(r6)
  1056fc:	2801703a 	wrctl	status,r5
  105700:	10c5c83a 	sub	r2,r2,r3
  105704:	30800515 	stw	r2,20(r6)
  105708:	0005883a 	mov	r2,zero
  10570c:	f800283a 	ret

00105710 <OSMemCreate>:
  105710:	3800021e 	bne	r7,zero,10571c <OSMemCreate+0xc>
  105714:	0015883a 	mov	r10,zero
  105718:	00002f06 	br	1057d8 <OSMemCreate+0xc8>
  10571c:	20000226 	beq	r4,zero,105728 <OSMemCreate+0x18>
  105720:	208000cc 	andi	r2,r4,3
  105724:	10000326 	beq	r2,zero,105734 <OSMemCreate+0x24>
  105728:	0015883a 	mov	r10,zero
  10572c:	00801884 	movi	r2,98
  105730:	00001b06 	br	1057a0 <OSMemCreate+0x90>
  105734:	02400044 	movi	r9,1
  105738:	49400336 	bltu	r9,r5,105748 <OSMemCreate+0x38>
  10573c:	0015883a 	mov	r10,zero
  105740:	008016c4 	movi	r2,91
  105744:	00001606 	br	1057a0 <OSMemCreate+0x90>
  105748:	008000c4 	movi	r2,3
  10574c:	11800336 	bltu	r2,r6,10575c <OSMemCreate+0x4c>
  105750:	0015883a 	mov	r10,zero
  105754:	00801704 	movi	r2,92
  105758:	00001106 	br	1057a0 <OSMemCreate+0x90>
  10575c:	0007303a 	rdctl	r3,status
  105760:	00bfff84 	movi	r2,-2
  105764:	1884703a 	and	r2,r3,r2
  105768:	1001703a 	wrctl	status,r2
  10576c:	02000474 	movhi	r8,17
  105770:	423c5004 	addi	r8,r8,-3776
  105774:	42800017 	ldw	r10,0(r8)
  105778:	50000726 	beq	r10,zero,105798 <OSMemCreate+0x88>
  10577c:	50800117 	ldw	r2,4(r10)
  105780:	40800015 	stw	r2,0(r8)
  105784:	1801703a 	wrctl	status,r3
  105788:	4811883a 	mov	r8,r9
  10578c:	2005883a 	mov	r2,r4
  105790:	2187883a 	add	r3,r4,r6
  105794:	00000406 	br	1057a8 <OSMemCreate+0x98>
  105798:	1801703a 	wrctl	status,r3
  10579c:	00801684 	movi	r2,90
  1057a0:	38800005 	stb	r2,0(r7)
  1057a4:	00000c06 	br	1057d8 <OSMemCreate+0xc8>
  1057a8:	42000044 	addi	r8,r8,1
  1057ac:	10c00015 	stw	r3,0(r2)
  1057b0:	1805883a 	mov	r2,r3
  1057b4:	1987883a 	add	r3,r3,r6
  1057b8:	417ffb1e 	bne	r8,r5,1057a8 <OSMemCreate+0x98>
  1057bc:	10000015 	stw	zero,0(r2)
  1057c0:	51000115 	stw	r4,4(r10)
  1057c4:	51400315 	stw	r5,12(r10)
  1057c8:	51800215 	stw	r6,8(r10)
  1057cc:	51000015 	stw	r4,0(r10)
  1057d0:	51400415 	stw	r5,16(r10)
  1057d4:	38000005 	stb	zero,0(r7)
  1057d8:	5005883a 	mov	r2,r10
  1057dc:	f800283a 	ret

001057e0 <OSMemGet>:
  1057e0:	000f883a 	mov	r7,zero
  1057e4:	28001726 	beq	r5,zero,105844 <OSMemGet+0x64>
  1057e8:	000f883a 	mov	r7,zero
  1057ec:	2000031e 	bne	r4,zero,1057fc <OSMemGet+0x1c>
  1057f0:	00801804 	movi	r2,96
  1057f4:	28800005 	stb	r2,0(r5)
  1057f8:	00001206 	br	105844 <OSMemGet+0x64>
  1057fc:	000d303a 	rdctl	r6,status
  105800:	00bfff84 	movi	r2,-2
  105804:	3084703a 	and	r2,r6,r2
  105808:	1001703a 	wrctl	status,r2
  10580c:	20800417 	ldw	r2,16(r4)
  105810:	10ffffc4 	addi	r3,r2,-1
  105814:	10000726 	beq	r2,zero,105834 <OSMemGet+0x54>
  105818:	21c00117 	ldw	r7,4(r4)
  10581c:	20c00415 	stw	r3,16(r4)
  105820:	38800017 	ldw	r2,0(r7)
  105824:	20800115 	stw	r2,4(r4)
  105828:	3001703a 	wrctl	status,r6
  10582c:	28000005 	stb	zero,0(r5)
  105830:	00000406 	br	105844 <OSMemGet+0x64>
  105834:	3001703a 	wrctl	status,r6
  105838:	00801744 	movi	r2,93
  10583c:	28800005 	stb	r2,0(r5)
  105840:	000f883a 	mov	r7,zero
  105844:	3805883a 	mov	r2,r7
  105848:	f800283a 	ret

0010584c <OSMemNameGet>:
  10584c:	defffd04 	addi	sp,sp,-12
  105850:	dfc00215 	stw	ra,8(sp)
  105854:	dc000115 	stw	r16,4(sp)
  105858:	000f883a 	mov	r7,zero
  10585c:	2007883a 	mov	r3,r4
  105860:	30001c26 	beq	r6,zero,1058d4 <OSMemNameGet+0x88>
  105864:	000f883a 	mov	r7,zero
  105868:	2000021e 	bne	r4,zero,105874 <OSMemNameGet+0x28>
  10586c:	00801804 	movi	r2,96
  105870:	00000306 	br	105880 <OSMemNameGet+0x34>
  105874:	000f883a 	mov	r7,zero
  105878:	2800031e 	bne	r5,zero,105888 <OSMemNameGet+0x3c>
  10587c:	00800304 	movi	r2,12
  105880:	30800005 	stb	r2,0(r6)
  105884:	00001306 	br	1058d4 <OSMemNameGet+0x88>
  105888:	00800474 	movhi	r2,17
  10588c:	10bc5504 	addi	r2,r2,-3756
  105890:	10800003 	ldbu	r2,0(r2)
  105894:	000f883a 	mov	r7,zero
  105898:	10000226 	beq	r2,zero,1058a4 <OSMemNameGet+0x58>
  10589c:	00800444 	movi	r2,17
  1058a0:	003ff706 	br	105880 <OSMemNameGet+0x34>
  1058a4:	0021303a 	rdctl	r16,status
  1058a8:	00bfff84 	movi	r2,-2
  1058ac:	8084703a 	and	r2,r16,r2
  1058b0:	1001703a 	wrctl	status,r2
  1058b4:	2809883a 	mov	r4,r5
  1058b8:	19400504 	addi	r5,r3,20
  1058bc:	d9800015 	stw	r6,0(sp)
  1058c0:	0103bf40 	call	103bf4 <OS_StrCopy>
  1058c4:	8001703a 	wrctl	status,r16
  1058c8:	d9800017 	ldw	r6,0(sp)
  1058cc:	11c03fcc 	andi	r7,r2,255
  1058d0:	30000005 	stb	zero,0(r6)
  1058d4:	3805883a 	mov	r2,r7
  1058d8:	dfc00217 	ldw	ra,8(sp)
  1058dc:	dc000117 	ldw	r16,4(sp)
  1058e0:	dec00304 	addi	sp,sp,12
  1058e4:	f800283a 	ret

001058e8 <OSMemNameSet>:
  1058e8:	defffb04 	addi	sp,sp,-20
  1058ec:	dcc00315 	stw	r19,12(sp)
  1058f0:	dc400115 	stw	r17,4(sp)
  1058f4:	dc000015 	stw	r16,0(sp)
  1058f8:	dfc00415 	stw	ra,16(sp)
  1058fc:	dc800215 	stw	r18,8(sp)
  105900:	3023883a 	mov	r17,r6
  105904:	2027883a 	mov	r19,r4
  105908:	2821883a 	mov	r16,r5
  10590c:	30001e26 	beq	r6,zero,105988 <OSMemNameSet+0xa0>
  105910:	2000021e 	bne	r4,zero,10591c <OSMemNameSet+0x34>
  105914:	00801804 	movi	r2,96
  105918:	00000206 	br	105924 <OSMemNameSet+0x3c>
  10591c:	2800031e 	bne	r5,zero,10592c <OSMemNameSet+0x44>
  105920:	00800304 	movi	r2,12
  105924:	88800005 	stb	r2,0(r17)
  105928:	00001706 	br	105988 <OSMemNameSet+0xa0>
  10592c:	00800474 	movhi	r2,17
  105930:	10bc5504 	addi	r2,r2,-3756
  105934:	10800003 	ldbu	r2,0(r2)
  105938:	10000226 	beq	r2,zero,105944 <OSMemNameSet+0x5c>
  10593c:	00800484 	movi	r2,18
  105940:	003ff806 	br	105924 <OSMemNameSet+0x3c>
  105944:	0025303a 	rdctl	r18,status
  105948:	00bfff84 	movi	r2,-2
  10594c:	9084703a 	and	r2,r18,r2
  105950:	1001703a 	wrctl	status,r2
  105954:	2809883a 	mov	r4,r5
  105958:	0103c200 	call	103c20 <OS_StrLen>
  10595c:	10803fcc 	andi	r2,r2,255
  105960:	00c007c4 	movi	r3,31
  105964:	1880032e 	bgeu	r3,r2,105974 <OSMemNameSet+0x8c>
  105968:	9001703a 	wrctl	status,r18
  10596c:	008018c4 	movi	r2,99
  105970:	003fec06 	br	105924 <OSMemNameSet+0x3c>
  105974:	99000504 	addi	r4,r19,20
  105978:	800b883a 	mov	r5,r16
  10597c:	0103bf40 	call	103bf4 <OS_StrCopy>
  105980:	9001703a 	wrctl	status,r18
  105984:	88000005 	stb	zero,0(r17)
  105988:	dfc00417 	ldw	ra,16(sp)
  10598c:	dcc00317 	ldw	r19,12(sp)
  105990:	dc800217 	ldw	r18,8(sp)
  105994:	dc400117 	ldw	r17,4(sp)
  105998:	dc000017 	ldw	r16,0(sp)
  10599c:	dec00504 	addi	sp,sp,20
  1059a0:	f800283a 	ret

001059a4 <OSMemPut>:
  1059a4:	00801804 	movi	r2,96
  1059a8:	20001326 	beq	r4,zero,1059f8 <OSMemPut+0x54>
  1059ac:	008017c4 	movi	r2,95
  1059b0:	28001126 	beq	r5,zero,1059f8 <OSMemPut+0x54>
  1059b4:	000f303a 	rdctl	r7,status
  1059b8:	00bfff84 	movi	r2,-2
  1059bc:	3884703a 	and	r2,r7,r2
  1059c0:	1001703a 	wrctl	status,r2
  1059c4:	20800417 	ldw	r2,16(r4)
  1059c8:	20c00317 	ldw	r3,12(r4)
  1059cc:	11800044 	addi	r6,r2,1
  1059d0:	10c00336 	bltu	r2,r3,1059e0 <OSMemPut+0x3c>
  1059d4:	3801703a 	wrctl	status,r7
  1059d8:	00801784 	movi	r2,94
  1059dc:	f800283a 	ret
  1059e0:	20800117 	ldw	r2,4(r4)
  1059e4:	21800415 	stw	r6,16(r4)
  1059e8:	28800015 	stw	r2,0(r5)
  1059ec:	21400115 	stw	r5,4(r4)
  1059f0:	3801703a 	wrctl	status,r7
  1059f4:	0005883a 	mov	r2,zero
  1059f8:	f800283a 	ret

001059fc <OS_QInit>:
  1059fc:	deffff04 	addi	sp,sp,-4
  105a00:	01000474 	movhi	r4,17
  105a04:	211b2704 	addi	r4,r4,27804
  105a08:	01407804 	movi	r5,480
  105a0c:	dfc00015 	stw	ra,0(sp)
  105a10:	0103bb40 	call	103bb4 <OS_MemClr>
  105a14:	01000474 	movhi	r4,17
  105a18:	211b2d04 	addi	r4,r4,27828
  105a1c:	20807204 	addi	r2,r4,456
  105a20:	213ffa15 	stw	r4,-24(r4)
  105a24:	21000604 	addi	r4,r4,24
  105a28:	20bffd1e 	bne	r4,r2,105a20 <OS_QInit+0x24>
  105a2c:	20ff8804 	addi	r3,r4,-480
  105a30:	00800474 	movhi	r2,17
  105a34:	10bc5204 	addi	r2,r2,-3768
  105a38:	10c00015 	stw	r3,0(r2)
  105a3c:	203ffa15 	stw	zero,-24(r4)
  105a40:	dfc00017 	ldw	ra,0(sp)
  105a44:	dec00104 	addi	sp,sp,4
  105a48:	f800283a 	ret

00105a4c <OSQQuery>:
  105a4c:	2000021e 	bne	r4,zero,105a58 <OSQQuery+0xc>
  105a50:	00800104 	movi	r2,4
  105a54:	f800283a 	ret
  105a58:	2800021e 	bne	r5,zero,105a64 <OSQQuery+0x18>
  105a5c:	00800244 	movi	r2,9
  105a60:	f800283a 	ret
  105a64:	20c00003 	ldbu	r3,0(r4)
  105a68:	00800084 	movi	r2,2
  105a6c:	18800226 	beq	r3,r2,105a78 <OSQQuery+0x2c>
  105a70:	00800044 	movi	r2,1
  105a74:	f800283a 	ret
  105a78:	0007303a 	rdctl	r3,status
  105a7c:	00bfff84 	movi	r2,-2
  105a80:	1884703a 	and	r2,r3,r2
  105a84:	1001703a 	wrctl	status,r2
  105a88:	20800283 	ldbu	r2,10(r4)
  105a8c:	288002c5 	stb	r2,11(r5)
  105a90:	208002c3 	ldbu	r2,11(r4)
  105a94:	28800205 	stb	r2,8(r5)
  105a98:	20800303 	ldbu	r2,12(r4)
  105a9c:	28800245 	stb	r2,9(r5)
  105aa0:	20800343 	ldbu	r2,13(r4)
  105aa4:	28800285 	stb	r2,10(r5)
  105aa8:	21000117 	ldw	r4,4(r4)
  105aac:	2080058b 	ldhu	r2,22(r4)
  105ab0:	10000426 	beq	r2,zero,105ac4 <OSQQuery+0x78>
  105ab4:	20800417 	ldw	r2,16(r4)
  105ab8:	10800017 	ldw	r2,0(r2)
  105abc:	28800015 	stw	r2,0(r5)
  105ac0:	00000106 	br	105ac8 <OSQQuery+0x7c>
  105ac4:	28000015 	stw	zero,0(r5)
  105ac8:	2080058b 	ldhu	r2,22(r4)
  105acc:	2880010d 	sth	r2,4(r5)
  105ad0:	2080050b 	ldhu	r2,20(r4)
  105ad4:	2880018d 	sth	r2,6(r5)
  105ad8:	1801703a 	wrctl	status,r3
  105adc:	0005883a 	mov	r2,zero
  105ae0:	f800283a 	ret

00105ae4 <OSQAccept>:
  105ae4:	280f883a 	mov	r7,r5
  105ae8:	2800021e 	bne	r5,zero,105af4 <OSQAccept+0x10>
  105aec:	0009883a 	mov	r4,zero
  105af0:	00002106 	br	105b78 <OSQAccept+0x94>
  105af4:	2000021e 	bne	r4,zero,105b00 <OSQAccept+0x1c>
  105af8:	00800104 	movi	r2,4
  105afc:	00000506 	br	105b14 <OSQAccept+0x30>
  105b00:	20c00003 	ldbu	r3,0(r4)
  105b04:	00800084 	movi	r2,2
  105b08:	18800426 	beq	r3,r2,105b1c <OSQAccept+0x38>
  105b0c:	0009883a 	mov	r4,zero
  105b10:	00800044 	movi	r2,1
  105b14:	38800005 	stb	r2,0(r7)
  105b18:	00001706 	br	105b78 <OSQAccept+0x94>
  105b1c:	0011303a 	rdctl	r8,status
  105b20:	00bfff84 	movi	r2,-2
  105b24:	4084703a 	and	r2,r8,r2
  105b28:	1001703a 	wrctl	status,r2
  105b2c:	21800117 	ldw	r6,4(r4)
  105b30:	3080058b 	ldhu	r2,22(r6)
  105b34:	10000c26 	beq	r2,zero,105b68 <OSQAccept+0x84>
  105b38:	31000417 	ldw	r4,16(r6)
  105b3c:	31400217 	ldw	r5,8(r6)
  105b40:	10bfffc4 	addi	r2,r2,-1
  105b44:	20c00104 	addi	r3,r4,4
  105b48:	3080058d 	sth	r2,22(r6)
  105b4c:	30c00415 	stw	r3,16(r6)
  105b50:	21000017 	ldw	r4,0(r4)
  105b54:	1940021e 	bne	r3,r5,105b60 <OSQAccept+0x7c>
  105b58:	30800117 	ldw	r2,4(r6)
  105b5c:	30800415 	stw	r2,16(r6)
  105b60:	38000005 	stb	zero,0(r7)
  105b64:	00000306 	br	105b74 <OSQAccept+0x90>
  105b68:	008007c4 	movi	r2,31
  105b6c:	28800005 	stb	r2,0(r5)
  105b70:	0009883a 	mov	r4,zero
  105b74:	4001703a 	wrctl	status,r8
  105b78:	2005883a 	mov	r2,r4
  105b7c:	f800283a 	ret

00105b80 <OSQCreate>:
  105b80:	defffe04 	addi	sp,sp,-8
  105b84:	dc000015 	stw	r16,0(sp)
  105b88:	dfc00115 	stw	ra,4(sp)
  105b8c:	00800474 	movhi	r2,17
  105b90:	10bc5504 	addi	r2,r2,-3756
  105b94:	10800003 	ldbu	r2,0(r2)
  105b98:	0021883a 	mov	r16,zero
  105b9c:	1000331e 	bne	r2,zero,105c6c <OSQCreate+0xec>
  105ba0:	0007303a 	rdctl	r3,status
  105ba4:	023fff84 	movi	r8,-2
  105ba8:	1a04703a 	and	r2,r3,r8
  105bac:	1001703a 	wrctl	status,r2
  105bb0:	01800474 	movhi	r6,17
  105bb4:	31bc5404 	addi	r6,r6,-3760
  105bb8:	34000017 	ldw	r16,0(r6)
  105bbc:	80000b26 	beq	r16,zero,105bec <OSQCreate+0x6c>
  105bc0:	80800117 	ldw	r2,4(r16)
  105bc4:	30800015 	stw	r2,0(r6)
  105bc8:	1801703a 	wrctl	status,r3
  105bcc:	000f303a 	rdctl	r7,status
  105bd0:	3a04703a 	and	r2,r7,r8
  105bd4:	1001703a 	wrctl	status,r2
  105bd8:	01800474 	movhi	r6,17
  105bdc:	31bc5204 	addi	r6,r6,-3768
  105be0:	30c00017 	ldw	r3,0(r6)
  105be4:	1800031e 	bne	r3,zero,105bf4 <OSQCreate+0x74>
  105be8:	00001906 	br	105c50 <OSQCreate+0xd0>
  105bec:	1801703a 	wrctl	status,r3
  105bf0:	00001e06 	br	105c6c <OSQCreate+0xec>
  105bf4:	18800017 	ldw	r2,0(r3)
  105bf8:	30800015 	stw	r2,0(r6)
  105bfc:	3801703a 	wrctl	status,r7
  105c00:	28bfffcc 	andi	r2,r5,65535
  105c04:	1085883a 	add	r2,r2,r2
  105c08:	1085883a 	add	r2,r2,r2
  105c0c:	2085883a 	add	r2,r4,r2
  105c10:	1940050d 	sth	r5,20(r3)
  105c14:	18800215 	stw	r2,8(r3)
  105c18:	19000415 	stw	r4,16(r3)
  105c1c:	1800058d 	sth	zero,22(r3)
  105c20:	19000115 	stw	r4,4(r3)
  105c24:	19000315 	stw	r4,12(r3)
  105c28:	00800084 	movi	r2,2
  105c2c:	80800005 	stb	r2,0(r16)
  105c30:	00800fc4 	movi	r2,63
  105c34:	80c00115 	stw	r3,4(r16)
  105c38:	80800385 	stb	r2,14(r16)
  105c3c:	8000020d 	sth	zero,8(r16)
  105c40:	800003c5 	stb	zero,15(r16)
  105c44:	8009883a 	mov	r4,r16
  105c48:	0103b980 	call	103b98 <OS_EventWaitListInit>
  105c4c:	00000706 	br	105c6c <OSQCreate+0xec>
  105c50:	00800474 	movhi	r2,17
  105c54:	10bc5404 	addi	r2,r2,-3760
  105c58:	10c00017 	ldw	r3,0(r2)
  105c5c:	14000015 	stw	r16,0(r2)
  105c60:	80c00115 	stw	r3,4(r16)
  105c64:	3801703a 	wrctl	status,r7
  105c68:	0021883a 	mov	r16,zero
  105c6c:	8005883a 	mov	r2,r16
  105c70:	dfc00117 	ldw	ra,4(sp)
  105c74:	dc000017 	ldw	r16,0(sp)
  105c78:	dec00204 	addi	sp,sp,8
  105c7c:	f800283a 	ret

00105c80 <OSQDel>:
  105c80:	defffb04 	addi	sp,sp,-20
  105c84:	dc400115 	stw	r17,4(sp)
  105c88:	dc000015 	stw	r16,0(sp)
  105c8c:	dfc00415 	stw	ra,16(sp)
  105c90:	dcc00315 	stw	r19,12(sp)
  105c94:	dc800215 	stw	r18,8(sp)
  105c98:	3023883a 	mov	r17,r6
  105c9c:	2021883a 	mov	r16,r4
  105ca0:	30005026 	beq	r6,zero,105de4 <OSQDel+0x164>
  105ca4:	2000021e 	bne	r4,zero,105cb0 <OSQDel+0x30>
  105ca8:	00800104 	movi	r2,4
  105cac:	00004c06 	br	105de0 <OSQDel+0x160>
  105cb0:	20c00003 	ldbu	r3,0(r4)
  105cb4:	00800084 	movi	r2,2
  105cb8:	18800226 	beq	r3,r2,105cc4 <OSQDel+0x44>
  105cbc:	00800044 	movi	r2,1
  105cc0:	00004706 	br	105de0 <OSQDel+0x160>
  105cc4:	00800474 	movhi	r2,17
  105cc8:	10bc5504 	addi	r2,r2,-3756
  105ccc:	10800003 	ldbu	r2,0(r2)
  105cd0:	10000226 	beq	r2,zero,105cdc <OSQDel+0x5c>
  105cd4:	008003c4 	movi	r2,15
  105cd8:	00004106 	br	105de0 <OSQDel+0x160>
  105cdc:	0025303a 	rdctl	r18,status
  105ce0:	00bfff84 	movi	r2,-2
  105ce4:	9084703a 	and	r2,r18,r2
  105ce8:	1001703a 	wrctl	status,r2
  105cec:	20800283 	ldbu	r2,10(r4)
  105cf0:	29403fcc 	andi	r5,r5,255
  105cf4:	1004c03a 	cmpne	r2,r2,zero
  105cf8:	1027883a 	mov	r19,r2
  105cfc:	28000326 	beq	r5,zero,105d0c <OSQDel+0x8c>
  105d00:	00800044 	movi	r2,1
  105d04:	2880341e 	bne	r5,r2,105dd8 <OSQDel+0x158>
  105d08:	00001706 	br	105d68 <OSQDel+0xe8>
  105d0c:	1000121e 	bne	r2,zero,105d58 <OSQDel+0xd8>
  105d10:	00800fc4 	movi	r2,63
  105d14:	20800385 	stb	r2,14(r4)
  105d18:	200003c5 	stb	zero,15(r4)
  105d1c:	01000474 	movhi	r4,17
  105d20:	213c5204 	addi	r4,r4,-3768
  105d24:	20800017 	ldw	r2,0(r4)
  105d28:	80c00117 	ldw	r3,4(r16)
  105d2c:	01400474 	movhi	r5,17
  105d30:	297c5404 	addi	r5,r5,-3760
  105d34:	8000020d 	sth	zero,8(r16)
  105d38:	18800015 	stw	r2,0(r3)
  105d3c:	20c00015 	stw	r3,0(r4)
  105d40:	80000005 	stb	zero,0(r16)
  105d44:	28800017 	ldw	r2,0(r5)
  105d48:	2c000015 	stw	r16,0(r5)
  105d4c:	80800115 	stw	r2,4(r16)
  105d50:	9001703a 	wrctl	status,r18
  105d54:	00001d06 	br	105dcc <OSQDel+0x14c>
  105d58:	9001703a 	wrctl	status,r18
  105d5c:	00801244 	movi	r2,73
  105d60:	00001f06 	br	105de0 <OSQDel+0x160>
  105d64:	0103aa40 	call	103aa4 <OS_EventTaskRdy>
  105d68:	80800283 	ldbu	r2,10(r16)
  105d6c:	8009883a 	mov	r4,r16
  105d70:	000b883a 	mov	r5,zero
  105d74:	01800104 	movi	r6,4
  105d78:	000f883a 	mov	r7,zero
  105d7c:	103ff91e 	bne	r2,zero,105d64 <OSQDel+0xe4>
  105d80:	00800fc4 	movi	r2,63
  105d84:	80800385 	stb	r2,14(r16)
  105d88:	800003c5 	stb	zero,15(r16)
  105d8c:	01000474 	movhi	r4,17
  105d90:	213c5204 	addi	r4,r4,-3768
  105d94:	20800017 	ldw	r2,0(r4)
  105d98:	80c00117 	ldw	r3,4(r16)
  105d9c:	01400474 	movhi	r5,17
  105da0:	297c5404 	addi	r5,r5,-3760
  105da4:	8000020d 	sth	zero,8(r16)
  105da8:	18800015 	stw	r2,0(r3)
  105dac:	20c00015 	stw	r3,0(r4)
  105db0:	80000005 	stb	zero,0(r16)
  105db4:	28800017 	ldw	r2,0(r5)
  105db8:	2c000015 	stw	r16,0(r5)
  105dbc:	80800115 	stw	r2,4(r16)
  105dc0:	9001703a 	wrctl	status,r18
  105dc4:	98000126 	beq	r19,zero,105dcc <OSQDel+0x14c>
  105dc8:	0103cc40 	call	103cc4 <OS_Sched>
  105dcc:	0021883a 	mov	r16,zero
  105dd0:	88000005 	stb	zero,0(r17)
  105dd4:	00000306 	br	105de4 <OSQDel+0x164>
  105dd8:	9001703a 	wrctl	status,r18
  105ddc:	008001c4 	movi	r2,7
  105de0:	88800005 	stb	r2,0(r17)
  105de4:	8005883a 	mov	r2,r16
  105de8:	dfc00417 	ldw	ra,16(sp)
  105dec:	dcc00317 	ldw	r19,12(sp)
  105df0:	dc800217 	ldw	r18,8(sp)
  105df4:	dc400117 	ldw	r17,4(sp)
  105df8:	dc000017 	ldw	r16,0(sp)
  105dfc:	dec00504 	addi	sp,sp,20
  105e00:	f800283a 	ret

00105e04 <OSQFlush>:
  105e04:	200b883a 	mov	r5,r4
  105e08:	01000104 	movi	r4,4
  105e0c:	28000f26 	beq	r5,zero,105e4c <OSQFlush+0x48>
  105e10:	28c00003 	ldbu	r3,0(r5)
  105e14:	00800084 	movi	r2,2
  105e18:	01000044 	movi	r4,1
  105e1c:	18800b1e 	bne	r3,r2,105e4c <OSQFlush+0x48>
  105e20:	0009303a 	rdctl	r4,status
  105e24:	00bfff84 	movi	r2,-2
  105e28:	2084703a 	and	r2,r4,r2
  105e2c:	1001703a 	wrctl	status,r2
  105e30:	28800117 	ldw	r2,4(r5)
  105e34:	10c00117 	ldw	r3,4(r2)
  105e38:	1000058d 	sth	zero,22(r2)
  105e3c:	10c00415 	stw	r3,16(r2)
  105e40:	10c00315 	stw	r3,12(r2)
  105e44:	2001703a 	wrctl	status,r4
  105e48:	0009883a 	mov	r4,zero
  105e4c:	2005883a 	mov	r2,r4
  105e50:	f800283a 	ret

00105e54 <OSQPend>:
  105e54:	defff904 	addi	sp,sp,-28
  105e58:	dc800215 	stw	r18,8(sp)
  105e5c:	dc400115 	stw	r17,4(sp)
  105e60:	dfc00615 	stw	ra,24(sp)
  105e64:	dd400515 	stw	r21,20(sp)
  105e68:	dd000415 	stw	r20,16(sp)
  105e6c:	dcc00315 	stw	r19,12(sp)
  105e70:	dc000015 	stw	r16,0(sp)
  105e74:	3023883a 	mov	r17,r6
  105e78:	2025883a 	mov	r18,r4
  105e7c:	3000021e 	bne	r6,zero,105e88 <OSQPend+0x34>
  105e80:	0009883a 	mov	r4,zero
  105e84:	00005906 	br	105fec <OSQPend+0x198>
  105e88:	2000031e 	bne	r4,zero,105e98 <OSQPend+0x44>
  105e8c:	0009883a 	mov	r4,zero
  105e90:	00800104 	movi	r2,4
  105e94:	00000506 	br	105eac <OSQPend+0x58>
  105e98:	24c00003 	ldbu	r19,0(r4)
  105e9c:	00800084 	movi	r2,2
  105ea0:	98800426 	beq	r19,r2,105eb4 <OSQPend+0x60>
  105ea4:	0009883a 	mov	r4,zero
  105ea8:	00800044 	movi	r2,1
  105eac:	88800005 	stb	r2,0(r17)
  105eb0:	00004e06 	br	105fec <OSQPend+0x198>
  105eb4:	00800474 	movhi	r2,17
  105eb8:	10bc5504 	addi	r2,r2,-3756
  105ebc:	10800003 	ldbu	r2,0(r2)
  105ec0:	10000326 	beq	r2,zero,105ed0 <OSQPend+0x7c>
  105ec4:	0009883a 	mov	r4,zero
  105ec8:	34c00005 	stb	r19,0(r6)
  105ecc:	00004706 	br	105fec <OSQPend+0x198>
  105ed0:	00800474 	movhi	r2,17
  105ed4:	10bc4404 	addi	r2,r2,-3824
  105ed8:	10800003 	ldbu	r2,0(r2)
  105edc:	10000326 	beq	r2,zero,105eec <OSQPend+0x98>
  105ee0:	0009883a 	mov	r4,zero
  105ee4:	00800344 	movi	r2,13
  105ee8:	003ff006 	br	105eac <OSQPend+0x58>
  105eec:	0029303a 	rdctl	r20,status
  105ef0:	057fff84 	movi	r21,-2
  105ef4:	a544703a 	and	r2,r20,r21
  105ef8:	1001703a 	wrctl	status,r2
  105efc:	21800117 	ldw	r6,4(r4)
  105f00:	3080058b 	ldhu	r2,22(r6)
  105f04:	10000d26 	beq	r2,zero,105f3c <OSQPend+0xe8>
  105f08:	31000417 	ldw	r4,16(r6)
  105f0c:	31400217 	ldw	r5,8(r6)
  105f10:	10bfffc4 	addi	r2,r2,-1
  105f14:	20c00104 	addi	r3,r4,4
  105f18:	3080058d 	sth	r2,22(r6)
  105f1c:	30c00415 	stw	r3,16(r6)
  105f20:	21000017 	ldw	r4,0(r4)
  105f24:	1940021e 	bne	r3,r5,105f30 <OSQPend+0xdc>
  105f28:	30800117 	ldw	r2,4(r6)
  105f2c:	30800415 	stw	r2,16(r6)
  105f30:	a001703a 	wrctl	status,r20
  105f34:	88000005 	stb	zero,0(r17)
  105f38:	00002c06 	br	105fec <OSQPend+0x198>
  105f3c:	04000474 	movhi	r16,17
  105f40:	843c5604 	addi	r16,r16,-3752
  105f44:	80c00017 	ldw	r3,0(r16)
  105f48:	18800c03 	ldbu	r2,48(r3)
  105f4c:	10800114 	ori	r2,r2,4
  105f50:	18800c05 	stb	r2,48(r3)
  105f54:	80800017 	ldw	r2,0(r16)
  105f58:	10000c45 	stb	zero,49(r2)
  105f5c:	80800017 	ldw	r2,0(r16)
  105f60:	11400b8d 	sth	r5,46(r2)
  105f64:	01038d80 	call	1038d8 <OS_EventTaskWait>
  105f68:	a001703a 	wrctl	status,r20
  105f6c:	0103cc40 	call	103cc4 <OS_Sched>
  105f70:	0029303a 	rdctl	r20,status
  105f74:	a544703a 	and	r2,r20,r21
  105f78:	1001703a 	wrctl	status,r2
  105f7c:	81000017 	ldw	r4,0(r16)
  105f80:	20800c43 	ldbu	r2,49(r4)
  105f84:	10000226 	beq	r2,zero,105f90 <OSQPend+0x13c>
  105f88:	14c0081e 	bne	r2,r19,105fac <OSQPend+0x158>
  105f8c:	00000306 	br	105f9c <OSQPend+0x148>
  105f90:	21000917 	ldw	r4,36(r4)
  105f94:	88000005 	stb	zero,0(r17)
  105f98:	00000906 	br	105fc0 <OSQPend+0x16c>
  105f9c:	00800384 	movi	r2,14
  105fa0:	0009883a 	mov	r4,zero
  105fa4:	88800005 	stb	r2,0(r17)
  105fa8:	00000506 	br	105fc0 <OSQPend+0x16c>
  105fac:	900b883a 	mov	r5,r18
  105fb0:	01039fc0 	call	1039fc <OS_EventTaskRemove>
  105fb4:	00800284 	movi	r2,10
  105fb8:	88800005 	stb	r2,0(r17)
  105fbc:	0009883a 	mov	r4,zero
  105fc0:	00c00474 	movhi	r3,17
  105fc4:	18fc5604 	addi	r3,r3,-3752
  105fc8:	18800017 	ldw	r2,0(r3)
  105fcc:	10000c05 	stb	zero,48(r2)
  105fd0:	18800017 	ldw	r2,0(r3)
  105fd4:	10000c45 	stb	zero,49(r2)
  105fd8:	18800017 	ldw	r2,0(r3)
  105fdc:	10000915 	stw	zero,36(r2)
  105fe0:	10000715 	stw	zero,28(r2)
  105fe4:	10000815 	stw	zero,32(r2)
  105fe8:	a001703a 	wrctl	status,r20
  105fec:	2005883a 	mov	r2,r4
  105ff0:	dfc00617 	ldw	ra,24(sp)
  105ff4:	dd400517 	ldw	r21,20(sp)
  105ff8:	dd000417 	ldw	r20,16(sp)
  105ffc:	dcc00317 	ldw	r19,12(sp)
  106000:	dc800217 	ldw	r18,8(sp)
  106004:	dc400117 	ldw	r17,4(sp)
  106008:	dc000017 	ldw	r16,0(sp)
  10600c:	dec00704 	addi	sp,sp,28
  106010:	f800283a 	ret

00106014 <OSQPendAbort>:
  106014:	defffb04 	addi	sp,sp,-20
  106018:	dc800215 	stw	r18,8(sp)
  10601c:	dc000015 	stw	r16,0(sp)
  106020:	dfc00415 	stw	ra,16(sp)
  106024:	dcc00315 	stw	r19,12(sp)
  106028:	dc400115 	stw	r17,4(sp)
  10602c:	3025883a 	mov	r18,r6
  106030:	2021883a 	mov	r16,r4
  106034:	30002826 	beq	r6,zero,1060d8 <OSQPendAbort+0xc4>
  106038:	2000031e 	bne	r4,zero,106048 <OSQPendAbort+0x34>
  10603c:	0007883a 	mov	r3,zero
  106040:	00800104 	movi	r2,4
  106044:	00002006 	br	1060c8 <OSQPendAbort+0xb4>
  106048:	21c00003 	ldbu	r7,0(r4)
  10604c:	00800084 	movi	r2,2
  106050:	38800326 	beq	r7,r2,106060 <OSQPendAbort+0x4c>
  106054:	0007883a 	mov	r3,zero
  106058:	00800044 	movi	r2,1
  10605c:	00001a06 	br	1060c8 <OSQPendAbort+0xb4>
  106060:	0027303a 	rdctl	r19,status
  106064:	00bfff84 	movi	r2,-2
  106068:	9884703a 	and	r2,r19,r2
  10606c:	1001703a 	wrctl	status,r2
  106070:	20800283 	ldbu	r2,10(r4)
  106074:	10001626 	beq	r2,zero,1060d0 <OSQPendAbort+0xbc>
  106078:	28803fcc 	andi	r2,r5,255
  10607c:	04400044 	movi	r17,1
  106080:	14400a1e 	bne	r2,r17,1060ac <OSQPendAbort+0x98>
  106084:	0023883a 	mov	r17,zero
  106088:	8009883a 	mov	r4,r16
  10608c:	000b883a 	mov	r5,zero
  106090:	01800104 	movi	r6,4
  106094:	01c00084 	movi	r7,2
  106098:	0103aa40 	call	103aa4 <OS_EventTaskRdy>
  10609c:	80800283 	ldbu	r2,10(r16)
  1060a0:	8c400044 	addi	r17,r17,1
  1060a4:	10000426 	beq	r2,zero,1060b8 <OSQPendAbort+0xa4>
  1060a8:	003ff706 	br	106088 <OSQPendAbort+0x74>
  1060ac:	000b883a 	mov	r5,zero
  1060b0:	01800104 	movi	r6,4
  1060b4:	0103aa40 	call	103aa4 <OS_EventTaskRdy>
  1060b8:	9801703a 	wrctl	status,r19
  1060bc:	0103cc40 	call	103cc4 <OS_Sched>
  1060c0:	88c03fcc 	andi	r3,r17,255
  1060c4:	00800384 	movi	r2,14
  1060c8:	90800005 	stb	r2,0(r18)
  1060cc:	00000306 	br	1060dc <OSQPendAbort+0xc8>
  1060d0:	9801703a 	wrctl	status,r19
  1060d4:	30000005 	stb	zero,0(r6)
  1060d8:	0007883a 	mov	r3,zero
  1060dc:	1805883a 	mov	r2,r3
  1060e0:	dfc00417 	ldw	ra,16(sp)
  1060e4:	dcc00317 	ldw	r19,12(sp)
  1060e8:	dc800217 	ldw	r18,8(sp)
  1060ec:	dc400117 	ldw	r17,4(sp)
  1060f0:	dc000017 	ldw	r16,0(sp)
  1060f4:	dec00504 	addi	sp,sp,20
  1060f8:	f800283a 	ret

001060fc <OSQPost>:
  1060fc:	defffe04 	addi	sp,sp,-8
  106100:	dfc00115 	stw	ra,4(sp)
  106104:	dc000015 	stw	r16,0(sp)
  106108:	280f883a 	mov	r7,r5
  10610c:	2000021e 	bne	r4,zero,106118 <OSQPost+0x1c>
  106110:	00800104 	movi	r2,4
  106114:	00002406 	br	1061a8 <OSQPost+0xac>
  106118:	20c00003 	ldbu	r3,0(r4)
  10611c:	00800084 	movi	r2,2
  106120:	18800226 	beq	r3,r2,10612c <OSQPost+0x30>
  106124:	00800044 	movi	r2,1
  106128:	00001f06 	br	1061a8 <OSQPost+0xac>
  10612c:	0021303a 	rdctl	r16,status
  106130:	00bfff84 	movi	r2,-2
  106134:	8084703a 	and	r2,r16,r2
  106138:	1001703a 	wrctl	status,r2
  10613c:	20800283 	ldbu	r2,10(r4)
  106140:	10000626 	beq	r2,zero,10615c <OSQPost+0x60>
  106144:	01800104 	movi	r6,4
  106148:	000f883a 	mov	r7,zero
  10614c:	0103aa40 	call	103aa4 <OS_EventTaskRdy>
  106150:	8001703a 	wrctl	status,r16
  106154:	0103cc40 	call	103cc4 <OS_Sched>
  106158:	00001206 	br	1061a4 <OSQPost+0xa8>
  10615c:	21800117 	ldw	r6,4(r4)
  106160:	3100058b 	ldhu	r4,22(r6)
  106164:	3080050b 	ldhu	r2,20(r6)
  106168:	20800336 	bltu	r4,r2,106178 <OSQPost+0x7c>
  10616c:	8001703a 	wrctl	status,r16
  106170:	00800784 	movi	r2,30
  106174:	00000c06 	br	1061a8 <OSQPost+0xac>
  106178:	30800317 	ldw	r2,12(r6)
  10617c:	31400217 	ldw	r5,8(r6)
  106180:	21000044 	addi	r4,r4,1
  106184:	10c00104 	addi	r3,r2,4
  106188:	11c00015 	stw	r7,0(r2)
  10618c:	3100058d 	sth	r4,22(r6)
  106190:	30c00315 	stw	r3,12(r6)
  106194:	1940021e 	bne	r3,r5,1061a0 <OSQPost+0xa4>
  106198:	30800117 	ldw	r2,4(r6)
  10619c:	30800315 	stw	r2,12(r6)
  1061a0:	8001703a 	wrctl	status,r16
  1061a4:	0005883a 	mov	r2,zero
  1061a8:	dfc00117 	ldw	ra,4(sp)
  1061ac:	dc000017 	ldw	r16,0(sp)
  1061b0:	dec00204 	addi	sp,sp,8
  1061b4:	f800283a 	ret

001061b8 <OSQPostFront>:
  1061b8:	defffe04 	addi	sp,sp,-8
  1061bc:	dfc00115 	stw	ra,4(sp)
  1061c0:	dc000015 	stw	r16,0(sp)
  1061c4:	280f883a 	mov	r7,r5
  1061c8:	2000021e 	bne	r4,zero,1061d4 <OSQPostFront+0x1c>
  1061cc:	00800104 	movi	r2,4
  1061d0:	00002606 	br	10626c <OSQPostFront+0xb4>
  1061d4:	20c00003 	ldbu	r3,0(r4)
  1061d8:	00800084 	movi	r2,2
  1061dc:	18800226 	beq	r3,r2,1061e8 <OSQPostFront+0x30>
  1061e0:	00800044 	movi	r2,1
  1061e4:	00002106 	br	10626c <OSQPostFront+0xb4>
  1061e8:	0021303a 	rdctl	r16,status
  1061ec:	00bfff84 	movi	r2,-2
  1061f0:	8084703a 	and	r2,r16,r2
  1061f4:	1001703a 	wrctl	status,r2
  1061f8:	20800283 	ldbu	r2,10(r4)
  1061fc:	10000626 	beq	r2,zero,106218 <OSQPostFront+0x60>
  106200:	01800104 	movi	r6,4
  106204:	000f883a 	mov	r7,zero
  106208:	0103aa40 	call	103aa4 <OS_EventTaskRdy>
  10620c:	8001703a 	wrctl	status,r16
  106210:	0103cc40 	call	103cc4 <OS_Sched>
  106214:	00001406 	br	106268 <OSQPostFront+0xb0>
  106218:	21400117 	ldw	r5,4(r4)
  10621c:	28c0058b 	ldhu	r3,22(r5)
  106220:	2880050b 	ldhu	r2,20(r5)
  106224:	18800336 	bltu	r3,r2,106234 <OSQPostFront+0x7c>
  106228:	8001703a 	wrctl	status,r16
  10622c:	00800784 	movi	r2,30
  106230:	00000e06 	br	10626c <OSQPostFront+0xb4>
  106234:	28c00417 	ldw	r3,16(r5)
  106238:	28800117 	ldw	r2,4(r5)
  10623c:	1880021e 	bne	r3,r2,106248 <OSQPostFront+0x90>
  106240:	28800217 	ldw	r2,8(r5)
  106244:	28800415 	stw	r2,16(r5)
  106248:	28800417 	ldw	r2,16(r5)
  10624c:	28c0058b 	ldhu	r3,22(r5)
  106250:	113fff04 	addi	r4,r2,-4
  106254:	18c00044 	addi	r3,r3,1
  106258:	11ffff15 	stw	r7,-4(r2)
  10625c:	28c0058d 	sth	r3,22(r5)
  106260:	29000415 	stw	r4,16(r5)
  106264:	8001703a 	wrctl	status,r16
  106268:	0005883a 	mov	r2,zero
  10626c:	dfc00117 	ldw	ra,4(sp)
  106270:	dc000017 	ldw	r16,0(sp)
  106274:	dec00204 	addi	sp,sp,8
  106278:	f800283a 	ret

0010627c <OSQPostOpt>:
  10627c:	defffb04 	addi	sp,sp,-20
  106280:	dc800215 	stw	r18,8(sp)
  106284:	dc400115 	stw	r17,4(sp)
  106288:	dc000015 	stw	r16,0(sp)
  10628c:	dfc00415 	stw	ra,16(sp)
  106290:	dcc00315 	stw	r19,12(sp)
  106294:	2021883a 	mov	r16,r4
  106298:	3023883a 	mov	r17,r6
  10629c:	2825883a 	mov	r18,r5
  1062a0:	2000021e 	bne	r4,zero,1062ac <OSQPostOpt+0x30>
  1062a4:	00800104 	movi	r2,4
  1062a8:	00003e06 	br	1063a4 <OSQPostOpt+0x128>
  1062ac:	21800003 	ldbu	r6,0(r4)
  1062b0:	00800084 	movi	r2,2
  1062b4:	30800226 	beq	r6,r2,1062c0 <OSQPostOpt+0x44>
  1062b8:	00800044 	movi	r2,1
  1062bc:	00003906 	br	1063a4 <OSQPostOpt+0x128>
  1062c0:	0027303a 	rdctl	r19,status
  1062c4:	00bfff84 	movi	r2,-2
  1062c8:	9884703a 	and	r2,r19,r2
  1062cc:	1001703a 	wrctl	status,r2
  1062d0:	20800283 	ldbu	r2,10(r4)
  1062d4:	10001326 	beq	r2,zero,106324 <OSQPostOpt+0xa8>
  1062d8:	8880004c 	andi	r2,r17,1
  1062dc:	1005003a 	cmpeq	r2,r2,zero
  1062e0:	1000081e 	bne	r2,zero,106304 <OSQPostOpt+0x88>
  1062e4:	8009883a 	mov	r4,r16
  1062e8:	900b883a 	mov	r5,r18
  1062ec:	01800104 	movi	r6,4
  1062f0:	000f883a 	mov	r7,zero
  1062f4:	0103aa40 	call	103aa4 <OS_EventTaskRdy>
  1062f8:	80800283 	ldbu	r2,10(r16)
  1062fc:	10000426 	beq	r2,zero,106310 <OSQPostOpt+0x94>
  106300:	003ff806 	br	1062e4 <OSQPostOpt+0x68>
  106304:	01800104 	movi	r6,4
  106308:	000f883a 	mov	r7,zero
  10630c:	0103aa40 	call	103aa4 <OS_EventTaskRdy>
  106310:	9801703a 	wrctl	status,r19
  106314:	8880010c 	andi	r2,r17,4
  106318:	1000211e 	bne	r2,zero,1063a0 <OSQPostOpt+0x124>
  10631c:	0103cc40 	call	103cc4 <OS_Sched>
  106320:	00001f06 	br	1063a0 <OSQPostOpt+0x124>
  106324:	21400117 	ldw	r5,4(r4)
  106328:	28c0058b 	ldhu	r3,22(r5)
  10632c:	2880050b 	ldhu	r2,20(r5)
  106330:	18800336 	bltu	r3,r2,106340 <OSQPostOpt+0xc4>
  106334:	9801703a 	wrctl	status,r19
  106338:	00800784 	movi	r2,30
  10633c:	00001906 	br	1063a4 <OSQPostOpt+0x128>
  106340:	3444703a 	and	r2,r6,r17
  106344:	10000a26 	beq	r2,zero,106370 <OSQPostOpt+0xf4>
  106348:	28c00417 	ldw	r3,16(r5)
  10634c:	28800117 	ldw	r2,4(r5)
  106350:	1880021e 	bne	r3,r2,10635c <OSQPostOpt+0xe0>
  106354:	28800217 	ldw	r2,8(r5)
  106358:	28800415 	stw	r2,16(r5)
  10635c:	28800417 	ldw	r2,16(r5)
  106360:	10ffff04 	addi	r3,r2,-4
  106364:	14bfff15 	stw	r18,-4(r2)
  106368:	28c00415 	stw	r3,16(r5)
  10636c:	00000806 	br	106390 <OSQPostOpt+0x114>
  106370:	28800317 	ldw	r2,12(r5)
  106374:	29000217 	ldw	r4,8(r5)
  106378:	10c00104 	addi	r3,r2,4
  10637c:	14800015 	stw	r18,0(r2)
  106380:	28c00315 	stw	r3,12(r5)
  106384:	1900021e 	bne	r3,r4,106390 <OSQPostOpt+0x114>
  106388:	28800117 	ldw	r2,4(r5)
  10638c:	28800315 	stw	r2,12(r5)
  106390:	2880058b 	ldhu	r2,22(r5)
  106394:	10800044 	addi	r2,r2,1
  106398:	2880058d 	sth	r2,22(r5)
  10639c:	9801703a 	wrctl	status,r19
  1063a0:	0005883a 	mov	r2,zero
  1063a4:	dfc00417 	ldw	ra,16(sp)
  1063a8:	dcc00317 	ldw	r19,12(sp)
  1063ac:	dc800217 	ldw	r18,8(sp)
  1063b0:	dc400117 	ldw	r17,4(sp)
  1063b4:	dc000017 	ldw	r16,0(sp)
  1063b8:	dec00504 	addi	sp,sp,20
  1063bc:	f800283a 	ret

001063c0 <OSSemSet>:
  1063c0:	30001726 	beq	r6,zero,106420 <OSSemSet+0x60>
  1063c4:	2000021e 	bne	r4,zero,1063d0 <OSSemSet+0x10>
  1063c8:	00800104 	movi	r2,4
  1063cc:	00000406 	br	1063e0 <OSSemSet+0x20>
  1063d0:	20c00003 	ldbu	r3,0(r4)
  1063d4:	008000c4 	movi	r2,3
  1063d8:	18800326 	beq	r3,r2,1063e8 <OSSemSet+0x28>
  1063dc:	00800044 	movi	r2,1
  1063e0:	30800005 	stb	r2,0(r6)
  1063e4:	f800283a 	ret
  1063e8:	0007303a 	rdctl	r3,status
  1063ec:	00bfff84 	movi	r2,-2
  1063f0:	1884703a 	and	r2,r3,r2
  1063f4:	1001703a 	wrctl	status,r2
  1063f8:	30000005 	stb	zero,0(r6)
  1063fc:	2080020b 	ldhu	r2,8(r4)
  106400:	1000021e 	bne	r2,zero,10640c <OSSemSet+0x4c>
  106404:	20800283 	ldbu	r2,10(r4)
  106408:	1000021e 	bne	r2,zero,106414 <OSSemSet+0x54>
  10640c:	2140020d 	sth	r5,8(r4)
  106410:	00000206 	br	10641c <OSSemSet+0x5c>
  106414:	00801244 	movi	r2,73
  106418:	30800005 	stb	r2,0(r6)
  10641c:	1801703a 	wrctl	status,r3
  106420:	f800283a 	ret

00106424 <OSSemAccept>:
  106424:	20000e26 	beq	r4,zero,106460 <OSSemAccept+0x3c>
  106428:	20c00003 	ldbu	r3,0(r4)
  10642c:	008000c4 	movi	r2,3
  106430:	18800b1e 	bne	r3,r2,106460 <OSSemAccept+0x3c>
  106434:	000b303a 	rdctl	r5,status
  106438:	00bfff84 	movi	r2,-2
  10643c:	2884703a 	and	r2,r5,r2
  106440:	1001703a 	wrctl	status,r2
  106444:	2080020b 	ldhu	r2,8(r4)
  106448:	10ffffc4 	addi	r3,r2,-1
  10644c:	10bfffcc 	andi	r2,r2,65535
  106450:	10000126 	beq	r2,zero,106458 <OSSemAccept+0x34>
  106454:	20c0020d 	sth	r3,8(r4)
  106458:	2801703a 	wrctl	status,r5
  10645c:	f800283a 	ret
  106460:	0005883a 	mov	r2,zero
  106464:	f800283a 	ret

00106468 <OSSemCreate>:
  106468:	defffe04 	addi	sp,sp,-8
  10646c:	dc000015 	stw	r16,0(sp)
  106470:	dfc00115 	stw	ra,4(sp)
  106474:	00800474 	movhi	r2,17
  106478:	10bc5504 	addi	r2,r2,-3756
  10647c:	10800003 	ldbu	r2,0(r2)
  106480:	0021883a 	mov	r16,zero
  106484:	1000161e 	bne	r2,zero,1064e0 <OSSemCreate+0x78>
  106488:	0007303a 	rdctl	r3,status
  10648c:	00bfff84 	movi	r2,-2
  106490:	1884703a 	and	r2,r3,r2
  106494:	1001703a 	wrctl	status,r2
  106498:	01400474 	movhi	r5,17
  10649c:	297c5404 	addi	r5,r5,-3760
  1064a0:	2c000017 	ldw	r16,0(r5)
  1064a4:	80000d26 	beq	r16,zero,1064dc <OSSemCreate+0x74>
  1064a8:	80800117 	ldw	r2,4(r16)
  1064ac:	28800015 	stw	r2,0(r5)
  1064b0:	1801703a 	wrctl	status,r3
  1064b4:	008000c4 	movi	r2,3
  1064b8:	80800005 	stb	r2,0(r16)
  1064bc:	00800fc4 	movi	r2,63
  1064c0:	8100020d 	sth	r4,8(r16)
  1064c4:	80800385 	stb	r2,14(r16)
  1064c8:	80000115 	stw	zero,4(r16)
  1064cc:	800003c5 	stb	zero,15(r16)
  1064d0:	8009883a 	mov	r4,r16
  1064d4:	0103b980 	call	103b98 <OS_EventWaitListInit>
  1064d8:	00000106 	br	1064e0 <OSSemCreate+0x78>
  1064dc:	1801703a 	wrctl	status,r3
  1064e0:	8005883a 	mov	r2,r16
  1064e4:	dfc00117 	ldw	ra,4(sp)
  1064e8:	dc000017 	ldw	r16,0(sp)
  1064ec:	dec00204 	addi	sp,sp,8
  1064f0:	f800283a 	ret

001064f4 <OSSemDel>:
  1064f4:	defffb04 	addi	sp,sp,-20
  1064f8:	dc400115 	stw	r17,4(sp)
  1064fc:	dc000015 	stw	r16,0(sp)
  106500:	dfc00415 	stw	ra,16(sp)
  106504:	dcc00315 	stw	r19,12(sp)
  106508:	dc800215 	stw	r18,8(sp)
  10650c:	3023883a 	mov	r17,r6
  106510:	2021883a 	mov	r16,r4
  106514:	30004426 	beq	r6,zero,106628 <OSSemDel+0x134>
  106518:	2000021e 	bne	r4,zero,106524 <OSSemDel+0x30>
  10651c:	00800104 	movi	r2,4
  106520:	00004006 	br	106624 <OSSemDel+0x130>
  106524:	20c00003 	ldbu	r3,0(r4)
  106528:	008000c4 	movi	r2,3
  10652c:	18800226 	beq	r3,r2,106538 <OSSemDel+0x44>
  106530:	00800044 	movi	r2,1
  106534:	00003b06 	br	106624 <OSSemDel+0x130>
  106538:	00800474 	movhi	r2,17
  10653c:	10bc5504 	addi	r2,r2,-3756
  106540:	10800003 	ldbu	r2,0(r2)
  106544:	10000226 	beq	r2,zero,106550 <OSSemDel+0x5c>
  106548:	008003c4 	movi	r2,15
  10654c:	00003506 	br	106624 <OSSemDel+0x130>
  106550:	0025303a 	rdctl	r18,status
  106554:	00bfff84 	movi	r2,-2
  106558:	9084703a 	and	r2,r18,r2
  10655c:	1001703a 	wrctl	status,r2
  106560:	20800283 	ldbu	r2,10(r4)
  106564:	29403fcc 	andi	r5,r5,255
  106568:	1004c03a 	cmpne	r2,r2,zero
  10656c:	1027883a 	mov	r19,r2
  106570:	28000326 	beq	r5,zero,106580 <OSSemDel+0x8c>
  106574:	00800044 	movi	r2,1
  106578:	2880281e 	bne	r5,r2,10661c <OSSemDel+0x128>
  10657c:	00001106 	br	1065c4 <OSSemDel+0xd0>
  106580:	10000c1e 	bne	r2,zero,1065b4 <OSSemDel+0xc0>
  106584:	00800fc4 	movi	r2,63
  106588:	20800385 	stb	r2,14(r4)
  10658c:	200003c5 	stb	zero,15(r4)
  106590:	20000005 	stb	zero,0(r4)
  106594:	00800474 	movhi	r2,17
  106598:	10bc5404 	addi	r2,r2,-3760
  10659c:	10c00017 	ldw	r3,0(r2)
  1065a0:	2000020d 	sth	zero,8(r4)
  1065a4:	11000015 	stw	r4,0(r2)
  1065a8:	20c00115 	stw	r3,4(r4)
  1065ac:	9001703a 	wrctl	status,r18
  1065b0:	00001706 	br	106610 <OSSemDel+0x11c>
  1065b4:	9001703a 	wrctl	status,r18
  1065b8:	00801244 	movi	r2,73
  1065bc:	00001906 	br	106624 <OSSemDel+0x130>
  1065c0:	0103aa40 	call	103aa4 <OS_EventTaskRdy>
  1065c4:	80800283 	ldbu	r2,10(r16)
  1065c8:	8009883a 	mov	r4,r16
  1065cc:	000b883a 	mov	r5,zero
  1065d0:	01800044 	movi	r6,1
  1065d4:	000f883a 	mov	r7,zero
  1065d8:	103ff91e 	bne	r2,zero,1065c0 <OSSemDel+0xcc>
  1065dc:	00800fc4 	movi	r2,63
  1065e0:	80800385 	stb	r2,14(r16)
  1065e4:	800003c5 	stb	zero,15(r16)
  1065e8:	80000005 	stb	zero,0(r16)
  1065ec:	00800474 	movhi	r2,17
  1065f0:	10bc5404 	addi	r2,r2,-3760
  1065f4:	10c00017 	ldw	r3,0(r2)
  1065f8:	8000020d 	sth	zero,8(r16)
  1065fc:	14000015 	stw	r16,0(r2)
  106600:	80c00115 	stw	r3,4(r16)
  106604:	9001703a 	wrctl	status,r18
  106608:	98000126 	beq	r19,zero,106610 <OSSemDel+0x11c>
  10660c:	0103cc40 	call	103cc4 <OS_Sched>
  106610:	0021883a 	mov	r16,zero
  106614:	88000005 	stb	zero,0(r17)
  106618:	00000306 	br	106628 <OSSemDel+0x134>
  10661c:	9001703a 	wrctl	status,r18
  106620:	008001c4 	movi	r2,7
  106624:	88800005 	stb	r2,0(r17)
  106628:	8005883a 	mov	r2,r16
  10662c:	dfc00417 	ldw	ra,16(sp)
  106630:	dcc00317 	ldw	r19,12(sp)
  106634:	dc800217 	ldw	r18,8(sp)
  106638:	dc400117 	ldw	r17,4(sp)
  10663c:	dc000017 	ldw	r16,0(sp)
  106640:	dec00504 	addi	sp,sp,20
  106644:	f800283a 	ret

00106648 <OSSemPend>:
  106648:	defffa04 	addi	sp,sp,-24
  10664c:	dc800215 	stw	r18,8(sp)
  106650:	dc400115 	stw	r17,4(sp)
  106654:	dfc00515 	stw	ra,20(sp)
  106658:	dd000415 	stw	r20,16(sp)
  10665c:	dcc00315 	stw	r19,12(sp)
  106660:	dc000015 	stw	r16,0(sp)
  106664:	3023883a 	mov	r17,r6
  106668:	2025883a 	mov	r18,r4
  10666c:	30004826 	beq	r6,zero,106790 <OSSemPend+0x148>
  106670:	2000021e 	bne	r4,zero,10667c <OSSemPend+0x34>
  106674:	00800104 	movi	r2,4
  106678:	00000406 	br	10668c <OSSemPend+0x44>
  10667c:	20c00003 	ldbu	r3,0(r4)
  106680:	008000c4 	movi	r2,3
  106684:	18800326 	beq	r3,r2,106694 <OSSemPend+0x4c>
  106688:	00800044 	movi	r2,1
  10668c:	88800005 	stb	r2,0(r17)
  106690:	00003f06 	br	106790 <OSSemPend+0x148>
  106694:	00800474 	movhi	r2,17
  106698:	10bc5504 	addi	r2,r2,-3756
  10669c:	10800003 	ldbu	r2,0(r2)
  1066a0:	10000226 	beq	r2,zero,1066ac <OSSemPend+0x64>
  1066a4:	00800084 	movi	r2,2
  1066a8:	003ff806 	br	10668c <OSSemPend+0x44>
  1066ac:	00800474 	movhi	r2,17
  1066b0:	10bc4404 	addi	r2,r2,-3824
  1066b4:	10800003 	ldbu	r2,0(r2)
  1066b8:	10000226 	beq	r2,zero,1066c4 <OSSemPend+0x7c>
  1066bc:	00800344 	movi	r2,13
  1066c0:	003ff206 	br	10668c <OSSemPend+0x44>
  1066c4:	0027303a 	rdctl	r19,status
  1066c8:	053fff84 	movi	r20,-2
  1066cc:	9d04703a 	and	r2,r19,r20
  1066d0:	1001703a 	wrctl	status,r2
  1066d4:	2080020b 	ldhu	r2,8(r4)
  1066d8:	10000526 	beq	r2,zero,1066f0 <OSSemPend+0xa8>
  1066dc:	10bfffc4 	addi	r2,r2,-1
  1066e0:	2080020d 	sth	r2,8(r4)
  1066e4:	9801703a 	wrctl	status,r19
  1066e8:	30000005 	stb	zero,0(r6)
  1066ec:	00002806 	br	106790 <OSSemPend+0x148>
  1066f0:	04000474 	movhi	r16,17
  1066f4:	843c5604 	addi	r16,r16,-3752
  1066f8:	80c00017 	ldw	r3,0(r16)
  1066fc:	18800c03 	ldbu	r2,48(r3)
  106700:	10800054 	ori	r2,r2,1
  106704:	18800c05 	stb	r2,48(r3)
  106708:	80800017 	ldw	r2,0(r16)
  10670c:	10000c45 	stb	zero,49(r2)
  106710:	80800017 	ldw	r2,0(r16)
  106714:	11400b8d 	sth	r5,46(r2)
  106718:	01038d80 	call	1038d8 <OS_EventTaskWait>
  10671c:	9801703a 	wrctl	status,r19
  106720:	0103cc40 	call	103cc4 <OS_Sched>
  106724:	0027303a 	rdctl	r19,status
  106728:	9d04703a 	and	r2,r19,r20
  10672c:	1001703a 	wrctl	status,r2
  106730:	81000017 	ldw	r4,0(r16)
  106734:	20c00c43 	ldbu	r3,49(r4)
  106738:	18000326 	beq	r3,zero,106748 <OSSemPend+0x100>
  10673c:	00800084 	movi	r2,2
  106740:	1880051e 	bne	r3,r2,106758 <OSSemPend+0x110>
  106744:	00000206 	br	106750 <OSSemPend+0x108>
  106748:	88000005 	stb	zero,0(r17)
  10674c:	00000606 	br	106768 <OSSemPend+0x120>
  106750:	00800384 	movi	r2,14
  106754:	00000306 	br	106764 <OSSemPend+0x11c>
  106758:	900b883a 	mov	r5,r18
  10675c:	01039fc0 	call	1039fc <OS_EventTaskRemove>
  106760:	00800284 	movi	r2,10
  106764:	88800005 	stb	r2,0(r17)
  106768:	00c00474 	movhi	r3,17
  10676c:	18fc5604 	addi	r3,r3,-3752
  106770:	18800017 	ldw	r2,0(r3)
  106774:	10000c05 	stb	zero,48(r2)
  106778:	18800017 	ldw	r2,0(r3)
  10677c:	10000c45 	stb	zero,49(r2)
  106780:	18800017 	ldw	r2,0(r3)
  106784:	10000815 	stw	zero,32(r2)
  106788:	10000715 	stw	zero,28(r2)
  10678c:	9801703a 	wrctl	status,r19
  106790:	dfc00517 	ldw	ra,20(sp)
  106794:	dd000417 	ldw	r20,16(sp)
  106798:	dcc00317 	ldw	r19,12(sp)
  10679c:	dc800217 	ldw	r18,8(sp)
  1067a0:	dc400117 	ldw	r17,4(sp)
  1067a4:	dc000017 	ldw	r16,0(sp)
  1067a8:	dec00604 	addi	sp,sp,24
  1067ac:	f800283a 	ret

001067b0 <OSSemPendAbort>:
  1067b0:	defffb04 	addi	sp,sp,-20
  1067b4:	dc800215 	stw	r18,8(sp)
  1067b8:	dc400115 	stw	r17,4(sp)
  1067bc:	dfc00415 	stw	ra,16(sp)
  1067c0:	dcc00315 	stw	r19,12(sp)
  1067c4:	dc000015 	stw	r16,0(sp)
  1067c8:	3025883a 	mov	r18,r6
  1067cc:	2023883a 	mov	r17,r4
  1067d0:	30002926 	beq	r6,zero,106878 <OSSemPendAbort+0xc8>
  1067d4:	2000031e 	bne	r4,zero,1067e4 <OSSemPendAbort+0x34>
  1067d8:	0007883a 	mov	r3,zero
  1067dc:	00800104 	movi	r2,4
  1067e0:	00002106 	br	106868 <OSSemPendAbort+0xb8>
  1067e4:	20c00003 	ldbu	r3,0(r4)
  1067e8:	008000c4 	movi	r2,3
  1067ec:	18800326 	beq	r3,r2,1067fc <OSSemPendAbort+0x4c>
  1067f0:	0007883a 	mov	r3,zero
  1067f4:	00800044 	movi	r2,1
  1067f8:	00001b06 	br	106868 <OSSemPendAbort+0xb8>
  1067fc:	0027303a 	rdctl	r19,status
  106800:	00bfff84 	movi	r2,-2
  106804:	9884703a 	and	r2,r19,r2
  106808:	1001703a 	wrctl	status,r2
  10680c:	20800283 	ldbu	r2,10(r4)
  106810:	10001726 	beq	r2,zero,106870 <OSSemPendAbort+0xc0>
  106814:	28803fcc 	andi	r2,r5,255
  106818:	04000044 	movi	r16,1
  10681c:	14000a1e 	bne	r2,r16,106848 <OSSemPendAbort+0x98>
  106820:	0021883a 	mov	r16,zero
  106824:	8809883a 	mov	r4,r17
  106828:	000b883a 	mov	r5,zero
  10682c:	01800044 	movi	r6,1
  106830:	01c00084 	movi	r7,2
  106834:	0103aa40 	call	103aa4 <OS_EventTaskRdy>
  106838:	88800283 	ldbu	r2,10(r17)
  10683c:	84000044 	addi	r16,r16,1
  106840:	10000526 	beq	r2,zero,106858 <OSSemPendAbort+0xa8>
  106844:	003ff706 	br	106824 <OSSemPendAbort+0x74>
  106848:	000b883a 	mov	r5,zero
  10684c:	800d883a 	mov	r6,r16
  106850:	01c00084 	movi	r7,2
  106854:	0103aa40 	call	103aa4 <OS_EventTaskRdy>
  106858:	9801703a 	wrctl	status,r19
  10685c:	0103cc40 	call	103cc4 <OS_Sched>
  106860:	80c03fcc 	andi	r3,r16,255
  106864:	00800384 	movi	r2,14
  106868:	90800005 	stb	r2,0(r18)
  10686c:	00000306 	br	10687c <OSSemPendAbort+0xcc>
  106870:	9801703a 	wrctl	status,r19
  106874:	30000005 	stb	zero,0(r6)
  106878:	0007883a 	mov	r3,zero
  10687c:	1805883a 	mov	r2,r3
  106880:	dfc00417 	ldw	ra,16(sp)
  106884:	dcc00317 	ldw	r19,12(sp)
  106888:	dc800217 	ldw	r18,8(sp)
  10688c:	dc400117 	ldw	r17,4(sp)
  106890:	dc000017 	ldw	r16,0(sp)
  106894:	dec00504 	addi	sp,sp,20
  106898:	f800283a 	ret

0010689c <OSSemPost>:
  10689c:	defffe04 	addi	sp,sp,-8
  1068a0:	dfc00115 	stw	ra,4(sp)
  1068a4:	dc000015 	stw	r16,0(sp)
  1068a8:	2011883a 	mov	r8,r4
  1068ac:	01400104 	movi	r5,4
  1068b0:	20001c26 	beq	r4,zero,106924 <OSSemPost+0x88>
  1068b4:	20c00003 	ldbu	r3,0(r4)
  1068b8:	008000c4 	movi	r2,3
  1068bc:	01400044 	movi	r5,1
  1068c0:	1880181e 	bne	r3,r2,106924 <OSSemPost+0x88>
  1068c4:	0021303a 	rdctl	r16,status
  1068c8:	00bfff84 	movi	r2,-2
  1068cc:	8084703a 	and	r2,r16,r2
  1068d0:	1001703a 	wrctl	status,r2
  1068d4:	20800283 	ldbu	r2,10(r4)
  1068d8:	000b883a 	mov	r5,zero
  1068dc:	01800044 	movi	r6,1
  1068e0:	000f883a 	mov	r7,zero
  1068e4:	10000426 	beq	r2,zero,1068f8 <OSSemPost+0x5c>
  1068e8:	0103aa40 	call	103aa4 <OS_EventTaskRdy>
  1068ec:	8001703a 	wrctl	status,r16
  1068f0:	0103cc40 	call	103cc4 <OS_Sched>
  1068f4:	00000706 	br	106914 <OSSemPost+0x78>
  1068f8:	2080020b 	ldhu	r2,8(r4)
  1068fc:	00ffffd4 	movui	r3,65535
  106900:	11000044 	addi	r4,r2,1
  106904:	10bfffcc 	andi	r2,r2,65535
  106908:	10c00426 	beq	r2,r3,10691c <OSSemPost+0x80>
  10690c:	4100020d 	sth	r4,8(r8)
  106910:	8001703a 	wrctl	status,r16
  106914:	000b883a 	mov	r5,zero
  106918:	00000206 	br	106924 <OSSemPost+0x88>
  10691c:	8001703a 	wrctl	status,r16
  106920:	01400c84 	movi	r5,50
  106924:	2805883a 	mov	r2,r5
  106928:	dfc00117 	ldw	ra,4(sp)
  10692c:	dc000017 	ldw	r16,0(sp)
  106930:	dec00204 	addi	sp,sp,8
  106934:	f800283a 	ret

00106938 <OSSemQuery>:
  106938:	01800104 	movi	r6,4
  10693c:	20001626 	beq	r4,zero,106998 <OSSemQuery+0x60>
  106940:	01800244 	movi	r6,9
  106944:	28001426 	beq	r5,zero,106998 <OSSemQuery+0x60>
  106948:	20c00003 	ldbu	r3,0(r4)
  10694c:	008000c4 	movi	r2,3
  106950:	01800044 	movi	r6,1
  106954:	1880101e 	bne	r3,r2,106998 <OSSemQuery+0x60>
  106958:	0007303a 	rdctl	r3,status
  10695c:	00bfff84 	movi	r2,-2
  106960:	1884703a 	and	r2,r3,r2
  106964:	1001703a 	wrctl	status,r2
  106968:	20800283 	ldbu	r2,10(r4)
  10696c:	28800145 	stb	r2,5(r5)
  106970:	208002c3 	ldbu	r2,11(r4)
  106974:	28800085 	stb	r2,2(r5)
  106978:	20800303 	ldbu	r2,12(r4)
  10697c:	288000c5 	stb	r2,3(r5)
  106980:	20800343 	ldbu	r2,13(r4)
  106984:	28800105 	stb	r2,4(r5)
  106988:	2080020b 	ldhu	r2,8(r4)
  10698c:	2880000d 	sth	r2,0(r5)
  106990:	1801703a 	wrctl	status,r3
  106994:	000d883a 	mov	r6,zero
  106998:	3005883a 	mov	r2,r6
  10699c:	f800283a 	ret

001069a0 <OS_TaskStkClr>:
  1069a0:	31bfffcc 	andi	r6,r6,65535
  1069a4:	3080004c 	andi	r2,r6,1
  1069a8:	1005003a 	cmpeq	r2,r2,zero
  1069ac:	1000071e 	bne	r2,zero,1069cc <OS_TaskStkClr+0x2c>
  1069b0:	3080008c 	andi	r2,r6,2
  1069b4:	1000041e 	bne	r2,zero,1069c8 <OS_TaskStkClr+0x28>
  1069b8:	f800283a 	ret
  1069bc:	20000015 	stw	zero,0(r4)
  1069c0:	297fffc4 	addi	r5,r5,-1
  1069c4:	21000104 	addi	r4,r4,4
  1069c8:	283ffc1e 	bne	r5,zero,1069bc <OS_TaskStkClr+0x1c>
  1069cc:	f800283a 	ret

001069d0 <OSTaskQuery>:
  1069d0:	defffe04 	addi	sp,sp,-8
  1069d4:	20c03fcc 	andi	r3,r4,255
  1069d8:	00800504 	movi	r2,20
  1069dc:	dfc00115 	stw	ra,4(sp)
  1069e0:	dc000015 	stw	r16,0(sp)
  1069e4:	280d883a 	mov	r6,r5
  1069e8:	10c0042e 	bgeu	r2,r3,1069fc <OSTaskQuery+0x2c>
  1069ec:	00803fc4 	movi	r2,255
  1069f0:	18800226 	beq	r3,r2,1069fc <OSTaskQuery+0x2c>
  1069f4:	00800a84 	movi	r2,42
  1069f8:	00002306 	br	106a88 <OSTaskQuery+0xb8>
  1069fc:	3000021e 	bne	r6,zero,106a08 <OSTaskQuery+0x38>
  106a00:	00800244 	movi	r2,9
  106a04:	00002006 	br	106a88 <OSTaskQuery+0xb8>
  106a08:	0021303a 	rdctl	r16,status
  106a0c:	00bfff84 	movi	r2,-2
  106a10:	8084703a 	and	r2,r16,r2
  106a14:	1001703a 	wrctl	status,r2
  106a18:	20c03fcc 	andi	r3,r4,255
  106a1c:	00803fc4 	movi	r2,255
  106a20:	1880041e 	bne	r3,r2,106a34 <OSTaskQuery+0x64>
  106a24:	00800474 	movhi	r2,17
  106a28:	10bc5604 	addi	r2,r2,-3752
  106a2c:	10800017 	ldw	r2,0(r2)
  106a30:	11000c83 	ldbu	r4,50(r2)
  106a34:	20803fcc 	andi	r2,r4,255
  106a38:	1085883a 	add	r2,r2,r2
  106a3c:	1085883a 	add	r2,r2,r2
  106a40:	00c004b4 	movhi	r3,18
  106a44:	18e3b304 	addi	r3,r3,-28980
  106a48:	10c5883a 	add	r2,r2,r3
  106a4c:	11400017 	ldw	r5,0(r2)
  106a50:	2800031e 	bne	r5,zero,106a60 <OSTaskQuery+0x90>
  106a54:	8001703a 	wrctl	status,r16
  106a58:	00800a44 	movi	r2,41
  106a5c:	00000a06 	br	106a88 <OSTaskQuery+0xb8>
  106a60:	00800044 	movi	r2,1
  106a64:	2880031e 	bne	r5,r2,106a74 <OSTaskQuery+0xa4>
  106a68:	8001703a 	wrctl	status,r16
  106a6c:	008010c4 	movi	r2,67
  106a70:	00000506 	br	106a88 <OSTaskQuery+0xb8>
  106a74:	3009883a 	mov	r4,r6
  106a78:	01801b04 	movi	r6,108
  106a7c:	0103bd00 	call	103bd0 <OS_MemCopy>
  106a80:	8001703a 	wrctl	status,r16
  106a84:	0005883a 	mov	r2,zero
  106a88:	dfc00117 	ldw	ra,4(sp)
  106a8c:	dc000017 	ldw	r16,0(sp)
  106a90:	dec00204 	addi	sp,sp,8
  106a94:	f800283a 	ret

00106a98 <OSTaskChangePrio>:
  106a98:	defffa04 	addi	sp,sp,-24
  106a9c:	20c03fcc 	andi	r3,r4,255
  106aa0:	018004c4 	movi	r6,19
  106aa4:	dd000415 	stw	r20,16(sp)
  106aa8:	dfc00515 	stw	ra,20(sp)
  106aac:	dcc00315 	stw	r19,12(sp)
  106ab0:	dc800215 	stw	r18,8(sp)
  106ab4:	dc400115 	stw	r17,4(sp)
  106ab8:	dc000015 	stw	r16,0(sp)
  106abc:	2829883a 	mov	r20,r5
  106ac0:	30c0022e 	bgeu	r6,r3,106acc <OSTaskChangePrio+0x34>
  106ac4:	00803fc4 	movi	r2,255
  106ac8:	1880911e 	bne	r3,r2,106d10 <OSTaskChangePrio+0x278>
  106acc:	a1c03fcc 	andi	r7,r20,255
  106ad0:	31c08f36 	bltu	r6,r7,106d10 <OSTaskChangePrio+0x278>
  106ad4:	0023303a 	rdctl	r17,status
  106ad8:	00bfff84 	movi	r2,-2
  106adc:	8884703a 	and	r2,r17,r2
  106ae0:	1001703a 	wrctl	status,r2
  106ae4:	39c5883a 	add	r2,r7,r7
  106ae8:	1085883a 	add	r2,r2,r2
  106aec:	018004b4 	movhi	r6,18
  106af0:	31a3b304 	addi	r6,r6,-28980
  106af4:	1191883a 	add	r8,r2,r6
  106af8:	40800017 	ldw	r2,0(r8)
  106afc:	10000326 	beq	r2,zero,106b0c <OSTaskChangePrio+0x74>
  106b00:	8801703a 	wrctl	status,r17
  106b04:	00800a04 	movi	r2,40
  106b08:	00008206 	br	106d14 <OSTaskChangePrio+0x27c>
  106b0c:	00803fc4 	movi	r2,255
  106b10:	1880041e 	bne	r3,r2,106b24 <OSTaskChangePrio+0x8c>
  106b14:	00800474 	movhi	r2,17
  106b18:	10bc5604 	addi	r2,r2,-3752
  106b1c:	10800017 	ldw	r2,0(r2)
  106b20:	11000c83 	ldbu	r4,50(r2)
  106b24:	20803fcc 	andi	r2,r4,255
  106b28:	1085883a 	add	r2,r2,r2
  106b2c:	1085883a 	add	r2,r2,r2
  106b30:	1185883a 	add	r2,r2,r6
  106b34:	11800017 	ldw	r6,0(r2)
  106b38:	3000031e 	bne	r6,zero,106b48 <OSTaskChangePrio+0xb0>
  106b3c:	8801703a 	wrctl	status,r17
  106b40:	00800a44 	movi	r2,41
  106b44:	00007306 	br	106d14 <OSTaskChangePrio+0x27c>
  106b48:	00c00044 	movi	r3,1
  106b4c:	30c0031e 	bne	r6,r3,106b5c <OSTaskChangePrio+0xc4>
  106b50:	8801703a 	wrctl	status,r17
  106b54:	008010c4 	movi	r2,67
  106b58:	00006e06 	br	106d14 <OSTaskChangePrio+0x27c>
  106b5c:	10000015 	stw	zero,0(r2)
  106b60:	41800015 	stw	r6,0(r8)
  106b64:	33c00d03 	ldbu	r15,52(r6)
  106b68:	3826d0fa 	srli	r19,r7,3
  106b6c:	04000474 	movhi	r16,17
  106b70:	843c5344 	addi	r16,r16,-3763
  106b74:	7c13883a 	add	r9,r15,r16
  106b78:	2c8001cc 	andi	r18,r5,7
  106b7c:	31c00d43 	ldbu	r7,53(r6)
  106b80:	49000003 	ldbu	r4,0(r9)
  106b84:	90803fcc 	andi	r2,r18,255
  106b88:	9ac03fcc 	andi	r11,r19,255
  106b8c:	1898983a 	sll	r12,r3,r2
  106b90:	1ad4983a 	sll	r10,r3,r11
  106b94:	21c4703a 	and	r2,r4,r7
  106b98:	10803fcc 	andi	r2,r2,255
  106b9c:	501d883a 	mov	r14,r10
  106ba0:	601b883a 	mov	r13,r12
  106ba4:	32000d83 	ldbu	r8,54(r6)
  106ba8:	10001626 	beq	r2,zero,106c04 <OSTaskChangePrio+0x16c>
  106bac:	01c4303a 	nor	r2,zero,r7
  106bb0:	1104703a 	and	r2,r2,r4
  106bb4:	10c03fcc 	andi	r3,r2,255
  106bb8:	18c0201c 	xori	r3,r3,128
  106bbc:	18ffe004 	addi	r3,r3,-128
  106bc0:	48800005 	stb	r2,0(r9)
  106bc4:	1800061e 	bne	r3,zero,106be0 <OSTaskChangePrio+0x148>
  106bc8:	01000474 	movhi	r4,17
  106bcc:	213c5304 	addi	r4,r4,-3764
  106bd0:	20c00003 	ldbu	r3,0(r4)
  106bd4:	0204303a 	nor	r2,zero,r8
  106bd8:	10c4703a 	and	r2,r2,r3
  106bdc:	20800005 	stb	r2,0(r4)
  106be0:	5c0b883a 	add	r5,r11,r16
  106be4:	01000474 	movhi	r4,17
  106be8:	213c5304 	addi	r4,r4,-3764
  106bec:	20800003 	ldbu	r2,0(r4)
  106bf0:	28c00003 	ldbu	r3,0(r5)
  106bf4:	5084b03a 	or	r2,r10,r2
  106bf8:	60c6b03a 	or	r3,r12,r3
  106bfc:	20800005 	stb	r2,0(r4)
  106c00:	28c00005 	stb	r3,0(r5)
  106c04:	31400717 	ldw	r5,28(r6)
  106c08:	28001626 	beq	r5,zero,106c64 <OSTaskChangePrio+0x1cc>
  106c0c:	7947883a 	add	r3,r15,r5
  106c10:	18c00204 	addi	r3,r3,8
  106c14:	190000c3 	ldbu	r4,3(r3)
  106c18:	01c4303a 	nor	r2,zero,r7
  106c1c:	1104703a 	and	r2,r2,r4
  106c20:	11003fcc 	andi	r4,r2,255
  106c24:	2100201c 	xori	r4,r4,128
  106c28:	213fe004 	addi	r4,r4,-128
  106c2c:	188000c5 	stb	r2,3(r3)
  106c30:	2000041e 	bne	r4,zero,106c44 <OSTaskChangePrio+0x1ac>
  106c34:	28c00283 	ldbu	r3,10(r5)
  106c38:	0204303a 	nor	r2,zero,r8
  106c3c:	10c4703a 	and	r2,r2,r3
  106c40:	28800285 	stb	r2,10(r5)
  106c44:	5945883a 	add	r2,r11,r5
  106c48:	10800204 	addi	r2,r2,8
  106c4c:	29000283 	ldbu	r4,10(r5)
  106c50:	10c000c3 	ldbu	r3,3(r2)
  106c54:	2388b03a 	or	r4,r4,r14
  106c58:	1b46b03a 	or	r3,r3,r13
  106c5c:	10c000c5 	stb	r3,3(r2)
  106c60:	29000285 	stb	r4,10(r5)
  106c64:	31400817 	ldw	r5,32(r6)
  106c68:	28001b26 	beq	r5,zero,106cd8 <OSTaskChangePrio+0x240>
  106c6c:	29000017 	ldw	r4,0(r5)
  106c70:	01d4303a 	nor	r10,zero,r7
  106c74:	0212303a 	nor	r9,zero,r8
  106c78:	00001106 	br	106cc0 <OSTaskChangePrio+0x228>
  106c7c:	388000c3 	ldbu	r2,3(r7)
  106c80:	5084703a 	and	r2,r10,r2
  106c84:	10c03fcc 	andi	r3,r2,255
  106c88:	18c0201c 	xori	r3,r3,128
  106c8c:	18ffe004 	addi	r3,r3,-128
  106c90:	388000c5 	stb	r2,3(r7)
  106c94:	1800031e 	bne	r3,zero,106ca4 <OSTaskChangePrio+0x20c>
  106c98:	20800283 	ldbu	r2,10(r4)
  106c9c:	4884703a 	and	r2,r9,r2
  106ca0:	20800285 	stb	r2,10(r4)
  106ca4:	20800283 	ldbu	r2,10(r4)
  106ca8:	40c000c3 	ldbu	r3,3(r8)
  106cac:	1384b03a 	or	r2,r2,r14
  106cb0:	1b46b03a 	or	r3,r3,r13
  106cb4:	20800285 	stb	r2,10(r4)
  106cb8:	40c000c5 	stb	r3,3(r8)
  106cbc:	29000017 	ldw	r4,0(r5)
  106cc0:	5905883a 	add	r2,r11,r4
  106cc4:	12000204 	addi	r8,r2,8
  106cc8:	7905883a 	add	r2,r15,r4
  106ccc:	11c00204 	addi	r7,r2,8
  106cd0:	29400104 	addi	r5,r5,4
  106cd4:	203fe91e 	bne	r4,zero,106c7c <OSTaskChangePrio+0x1e4>
  106cd8:	33400d45 	stb	r13,53(r6)
  106cdc:	35000c85 	stb	r20,50(r6)
  106ce0:	34c00d05 	stb	r19,52(r6)
  106ce4:	34800cc5 	stb	r18,51(r6)
  106ce8:	33800d85 	stb	r14,54(r6)
  106cec:	8801703a 	wrctl	status,r17
  106cf0:	00800474 	movhi	r2,17
  106cf4:	10bc4604 	addi	r2,r2,-3816
  106cf8:	10c00003 	ldbu	r3,0(r2)
  106cfc:	00800044 	movi	r2,1
  106d00:	1880011e 	bne	r3,r2,106d08 <OSTaskChangePrio+0x270>
  106d04:	0103cc40 	call	103cc4 <OS_Sched>
  106d08:	0005883a 	mov	r2,zero
  106d0c:	00000106 	br	106d14 <OSTaskChangePrio+0x27c>
  106d10:	00800a84 	movi	r2,42
  106d14:	dfc00517 	ldw	ra,20(sp)
  106d18:	dd000417 	ldw	r20,16(sp)
  106d1c:	dcc00317 	ldw	r19,12(sp)
  106d20:	dc800217 	ldw	r18,8(sp)
  106d24:	dc400117 	ldw	r17,4(sp)
  106d28:	dc000017 	ldw	r16,0(sp)
  106d2c:	dec00604 	addi	sp,sp,24
  106d30:	f800283a 	ret

00106d34 <OSTaskCreate>:
  106d34:	defff804 	addi	sp,sp,-32
  106d38:	dc000315 	stw	r16,12(sp)
  106d3c:	00800504 	movi	r2,20
  106d40:	3c003fcc 	andi	r16,r7,255
  106d44:	dfc00715 	stw	ra,28(sp)
  106d48:	dcc00615 	stw	r19,24(sp)
  106d4c:	dc800515 	stw	r18,20(sp)
  106d50:	dc400415 	stw	r17,16(sp)
  106d54:	1400022e 	bgeu	r2,r16,106d60 <OSTaskCreate+0x2c>
  106d58:	00800a84 	movi	r2,42
  106d5c:	00003106 	br	106e24 <OSTaskCreate+0xf0>
  106d60:	000f303a 	rdctl	r7,status
  106d64:	04ffff84 	movi	r19,-2
  106d68:	3cc4703a 	and	r2,r7,r19
  106d6c:	1001703a 	wrctl	status,r2
  106d70:	00800474 	movhi	r2,17
  106d74:	10bc5504 	addi	r2,r2,-3756
  106d78:	10800003 	ldbu	r2,0(r2)
  106d7c:	10000326 	beq	r2,zero,106d8c <OSTaskCreate+0x58>
  106d80:	3801703a 	wrctl	status,r7
  106d84:	00800f04 	movi	r2,60
  106d88:	00002606 	br	106e24 <OSTaskCreate+0xf0>
  106d8c:	8405883a 	add	r2,r16,r16
  106d90:	1085883a 	add	r2,r2,r2
  106d94:	00c004b4 	movhi	r3,18
  106d98:	18e3b304 	addi	r3,r3,-28980
  106d9c:	10e3883a 	add	r17,r2,r3
  106da0:	88800017 	ldw	r2,0(r17)
  106da4:	10001d1e 	bne	r2,zero,106e1c <OSTaskCreate+0xe8>
  106da8:	04800044 	movi	r18,1
  106dac:	8c800015 	stw	r18,0(r17)
  106db0:	3801703a 	wrctl	status,r7
  106db4:	000f883a 	mov	r7,zero
  106db8:	010996c0 	call	10996c <OSTaskStkInit>
  106dbc:	100b883a 	mov	r5,r2
  106dc0:	8009883a 	mov	r4,r16
  106dc4:	000d883a 	mov	r6,zero
  106dc8:	000f883a 	mov	r7,zero
  106dcc:	d8000015 	stw	zero,0(sp)
  106dd0:	d8000115 	stw	zero,4(sp)
  106dd4:	d8000215 	stw	zero,8(sp)
  106dd8:	01046d00 	call	1046d0 <OS_TCBInit>
  106ddc:	1021883a 	mov	r16,r2
  106de0:	10803fcc 	andi	r2,r2,255
  106de4:	1000061e 	bne	r2,zero,106e00 <OSTaskCreate+0xcc>
  106de8:	00800474 	movhi	r2,17
  106dec:	10bc4604 	addi	r2,r2,-3816
  106df0:	10800003 	ldbu	r2,0(r2)
  106df4:	1480071e 	bne	r2,r18,106e14 <OSTaskCreate+0xe0>
  106df8:	0103cc40 	call	103cc4 <OS_Sched>
  106dfc:	00000506 	br	106e14 <OSTaskCreate+0xe0>
  106e00:	0007303a 	rdctl	r3,status
  106e04:	1cc4703a 	and	r2,r3,r19
  106e08:	1001703a 	wrctl	status,r2
  106e0c:	88000015 	stw	zero,0(r17)
  106e10:	1801703a 	wrctl	status,r3
  106e14:	80803fcc 	andi	r2,r16,255
  106e18:	00000206 	br	106e24 <OSTaskCreate+0xf0>
  106e1c:	3801703a 	wrctl	status,r7
  106e20:	00800a04 	movi	r2,40
  106e24:	dfc00717 	ldw	ra,28(sp)
  106e28:	dcc00617 	ldw	r19,24(sp)
  106e2c:	dc800517 	ldw	r18,20(sp)
  106e30:	dc400417 	ldw	r17,16(sp)
  106e34:	dc000317 	ldw	r16,12(sp)
  106e38:	dec00804 	addi	sp,sp,32
  106e3c:	f800283a 	ret

00106e40 <OSTaskCreateExt>:
  106e40:	defff304 	addi	sp,sp,-52
  106e44:	dc800515 	stw	r18,20(sp)
  106e48:	00800504 	movi	r2,20
  106e4c:	3c803fcc 	andi	r18,r7,255
  106e50:	df000b15 	stw	fp,44(sp)
  106e54:	dd800915 	stw	r22,36(sp)
  106e58:	dd400815 	stw	r21,32(sp)
  106e5c:	dd000715 	stw	r20,28(sp)
  106e60:	dcc00615 	stw	r19,24(sp)
  106e64:	dc000315 	stw	r16,12(sp)
  106e68:	dfc00c15 	stw	ra,48(sp)
  106e6c:	ddc00a15 	stw	r23,40(sp)
  106e70:	dc400415 	stw	r17,16(sp)
  106e74:	2027883a 	mov	r19,r4
  106e78:	2829883a 	mov	r20,r5
  106e7c:	302b883a 	mov	r21,r6
  106e80:	df000e17 	ldw	fp,56(sp)
  106e84:	dd800d0b 	ldhu	r22,52(sp)
  106e88:	dc00110b 	ldhu	r16,68(sp)
  106e8c:	1480022e 	bgeu	r2,r18,106e98 <OSTaskCreateExt+0x58>
  106e90:	00800a84 	movi	r2,42
  106e94:	00003c06 	br	106f88 <OSTaskCreateExt+0x148>
  106e98:	0009303a 	rdctl	r4,status
  106e9c:	00ffff84 	movi	r3,-2
  106ea0:	20c4703a 	and	r2,r4,r3
  106ea4:	1001703a 	wrctl	status,r2
  106ea8:	00800474 	movhi	r2,17
  106eac:	10bc5504 	addi	r2,r2,-3756
  106eb0:	10800003 	ldbu	r2,0(r2)
  106eb4:	10000326 	beq	r2,zero,106ec4 <OSTaskCreateExt+0x84>
  106eb8:	2001703a 	wrctl	status,r4
  106ebc:	00800f04 	movi	r2,60
  106ec0:	00003106 	br	106f88 <OSTaskCreateExt+0x148>
  106ec4:	9485883a 	add	r2,r18,r18
  106ec8:	1085883a 	add	r2,r2,r2
  106ecc:	00c004b4 	movhi	r3,18
  106ed0:	18e3b304 	addi	r3,r3,-28980
  106ed4:	10e3883a 	add	r17,r2,r3
  106ed8:	88800017 	ldw	r2,0(r17)
  106edc:	1000281e 	bne	r2,zero,106f80 <OSTaskCreateExt+0x140>
  106ee0:	05c00044 	movi	r23,1
  106ee4:	8dc00015 	stw	r23,0(r17)
  106ee8:	2001703a 	wrctl	status,r4
  106eec:	d9400f17 	ldw	r5,60(sp)
  106ef0:	843fffcc 	andi	r16,r16,65535
  106ef4:	800d883a 	mov	r6,r16
  106ef8:	e009883a 	mov	r4,fp
  106efc:	01069a00 	call	1069a0 <OS_TaskStkClr>
  106f00:	800f883a 	mov	r7,r16
  106f04:	9809883a 	mov	r4,r19
  106f08:	a00b883a 	mov	r5,r20
  106f0c:	a80d883a 	mov	r6,r21
  106f10:	010996c0 	call	10996c <OSTaskStkInit>
  106f14:	100b883a 	mov	r5,r2
  106f18:	d8800f17 	ldw	r2,60(sp)
  106f1c:	9009883a 	mov	r4,r18
  106f20:	e00d883a 	mov	r6,fp
  106f24:	d8800015 	stw	r2,0(sp)
  106f28:	d8801017 	ldw	r2,64(sp)
  106f2c:	b1ffffcc 	andi	r7,r22,65535
  106f30:	dc000215 	stw	r16,8(sp)
  106f34:	d8800115 	stw	r2,4(sp)
  106f38:	01046d00 	call	1046d0 <OS_TCBInit>
  106f3c:	1021883a 	mov	r16,r2
  106f40:	10803fcc 	andi	r2,r2,255
  106f44:	1000061e 	bne	r2,zero,106f60 <OSTaskCreateExt+0x120>
  106f48:	00800474 	movhi	r2,17
  106f4c:	10bc4604 	addi	r2,r2,-3816
  106f50:	10800003 	ldbu	r2,0(r2)
  106f54:	15c0081e 	bne	r2,r23,106f78 <OSTaskCreateExt+0x138>
  106f58:	0103cc40 	call	103cc4 <OS_Sched>
  106f5c:	00000606 	br	106f78 <OSTaskCreateExt+0x138>
  106f60:	0007303a 	rdctl	r3,status
  106f64:	013fff84 	movi	r4,-2
  106f68:	1904703a 	and	r2,r3,r4
  106f6c:	1001703a 	wrctl	status,r2
  106f70:	88000015 	stw	zero,0(r17)
  106f74:	1801703a 	wrctl	status,r3
  106f78:	80803fcc 	andi	r2,r16,255
  106f7c:	00000206 	br	106f88 <OSTaskCreateExt+0x148>
  106f80:	2001703a 	wrctl	status,r4
  106f84:	00800a04 	movi	r2,40
  106f88:	dfc00c17 	ldw	ra,48(sp)
  106f8c:	df000b17 	ldw	fp,44(sp)
  106f90:	ddc00a17 	ldw	r23,40(sp)
  106f94:	dd800917 	ldw	r22,36(sp)
  106f98:	dd400817 	ldw	r21,32(sp)
  106f9c:	dd000717 	ldw	r20,28(sp)
  106fa0:	dcc00617 	ldw	r19,24(sp)
  106fa4:	dc800517 	ldw	r18,20(sp)
  106fa8:	dc400417 	ldw	r17,16(sp)
  106fac:	dc000317 	ldw	r16,12(sp)
  106fb0:	dec00d04 	addi	sp,sp,52
  106fb4:	f800283a 	ret

00106fb8 <OSTaskDel>:
  106fb8:	defffb04 	addi	sp,sp,-20
  106fbc:	dfc00415 	stw	ra,16(sp)
  106fc0:	dcc00315 	stw	r19,12(sp)
  106fc4:	dc800215 	stw	r18,8(sp)
  106fc8:	dc400115 	stw	r17,4(sp)
  106fcc:	dc000015 	stw	r16,0(sp)
  106fd0:	00800474 	movhi	r2,17
  106fd4:	10bc5504 	addi	r2,r2,-3756
  106fd8:	10800003 	ldbu	r2,0(r2)
  106fdc:	10000226 	beq	r2,zero,106fe8 <OSTaskDel+0x30>
  106fe0:	00801004 	movi	r2,64
  106fe4:	00008006 	br	1071e8 <OSTaskDel+0x230>
  106fe8:	20c03fcc 	andi	r3,r4,255
  106fec:	00800504 	movi	r2,20
  106ff0:	1880021e 	bne	r3,r2,106ffc <OSTaskDel+0x44>
  106ff4:	00800f84 	movi	r2,62
  106ff8:	00007b06 	br	1071e8 <OSTaskDel+0x230>
  106ffc:	008004c4 	movi	r2,19
  107000:	10c0042e 	bgeu	r2,r3,107014 <OSTaskDel+0x5c>
  107004:	00803fc4 	movi	r2,255
  107008:	18806e26 	beq	r3,r2,1071c4 <OSTaskDel+0x20c>
  10700c:	00800a84 	movi	r2,42
  107010:	00007506 	br	1071e8 <OSTaskDel+0x230>
  107014:	0025303a 	rdctl	r18,status
  107018:	00bfff84 	movi	r2,-2
  10701c:	9084703a 	and	r2,r18,r2
  107020:	1001703a 	wrctl	status,r2
  107024:	20803fcc 	andi	r2,r4,255
  107028:	1085883a 	add	r2,r2,r2
  10702c:	1085883a 	add	r2,r2,r2
  107030:	00c004b4 	movhi	r3,18
  107034:	18e3b304 	addi	r3,r3,-28980
  107038:	10e7883a 	add	r19,r2,r3
  10703c:	9c000017 	ldw	r16,0(r19)
  107040:	8000031e 	bne	r16,zero,107050 <OSTaskDel+0x98>
  107044:	9001703a 	wrctl	status,r18
  107048:	008010c4 	movi	r2,67
  10704c:	00006606 	br	1071e8 <OSTaskDel+0x230>
  107050:	00800044 	movi	r2,1
  107054:	8080031e 	bne	r16,r2,107064 <OSTaskDel+0xac>
  107058:	9001703a 	wrctl	status,r18
  10705c:	00800f44 	movi	r2,61
  107060:	00006106 	br	1071e8 <OSTaskDel+0x230>
  107064:	80c00d03 	ldbu	r3,52(r16)
  107068:	01400474 	movhi	r5,17
  10706c:	297c5344 	addi	r5,r5,-3763
  107070:	80800d43 	ldbu	r2,53(r16)
  107074:	1947883a 	add	r3,r3,r5
  107078:	19000003 	ldbu	r4,0(r3)
  10707c:	0084303a 	nor	r2,zero,r2
  107080:	1104703a 	and	r2,r2,r4
  107084:	18800005 	stb	r2,0(r3)
  107088:	80800d03 	ldbu	r2,52(r16)
  10708c:	1145883a 	add	r2,r2,r5
  107090:	10800003 	ldbu	r2,0(r2)
  107094:	1000071e 	bne	r2,zero,1070b4 <OSTaskDel+0xfc>
  107098:	00800474 	movhi	r2,17
  10709c:	10bc5304 	addi	r2,r2,-3764
  1070a0:	80c00d83 	ldbu	r3,54(r16)
  1070a4:	11000003 	ldbu	r4,0(r2)
  1070a8:	00c6303a 	nor	r3,zero,r3
  1070ac:	1906703a 	and	r3,r3,r4
  1070b0:	10c00005 	stb	r3,0(r2)
  1070b4:	81400717 	ldw	r5,28(r16)
  1070b8:	28000226 	beq	r5,zero,1070c4 <OSTaskDel+0x10c>
  1070bc:	8009883a 	mov	r4,r16
  1070c0:	01039fc0 	call	1039fc <OS_EventTaskRemove>
  1070c4:	81400817 	ldw	r5,32(r16)
  1070c8:	28000226 	beq	r5,zero,1070d4 <OSTaskDel+0x11c>
  1070cc:	8009883a 	mov	r4,r16
  1070d0:	0103a480 	call	103a48 <OS_EventTaskRemoveMulti>
  1070d4:	81000a17 	ldw	r4,40(r16)
  1070d8:	20000126 	beq	r4,zero,1070e0 <OSTaskDel+0x128>
  1070dc:	0104aa00 	call	104aa0 <OS_FlagUnlink>
  1070e0:	80000c05 	stb	zero,48(r16)
  1070e4:	80000c45 	stb	zero,49(r16)
  1070e8:	04400474 	movhi	r17,17
  1070ec:	8c7c4404 	addi	r17,r17,-3824
  1070f0:	89000003 	ldbu	r4,0(r17)
  1070f4:	00803fc4 	movi	r2,255
  1070f8:	80000b8d 	sth	zero,46(r16)
  1070fc:	20c03fcc 	andi	r3,r4,255
  107100:	18800226 	beq	r3,r2,10710c <OSTaskDel+0x154>
  107104:	20800044 	addi	r2,r4,1
  107108:	88800005 	stb	r2,0(r17)
  10710c:	9001703a 	wrctl	status,r18
  107110:	01038d40 	call	1038d4 <OS_Dummy>
  107114:	0025303a 	rdctl	r18,status
  107118:	00bfff84 	movi	r2,-2
  10711c:	9084703a 	and	r2,r18,r2
  107120:	1001703a 	wrctl	status,r2
  107124:	88800003 	ldbu	r2,0(r17)
  107128:	10000226 	beq	r2,zero,107134 <OSTaskDel+0x17c>
  10712c:	10bfffc4 	addi	r2,r2,-1
  107130:	88800005 	stb	r2,0(r17)
  107134:	8009883a 	mov	r4,r16
  107138:	01098f40 	call	1098f4 <OSTaskDelHook>
  10713c:	00c00474 	movhi	r3,17
  107140:	18fc4f44 	addi	r3,r3,-3779
  107144:	18800003 	ldbu	r2,0(r3)
  107148:	98000015 	stw	zero,0(r19)
  10714c:	10bfffc4 	addi	r2,r2,-1
  107150:	18800005 	stb	r2,0(r3)
  107154:	80c00617 	ldw	r3,24(r16)
  107158:	81000517 	ldw	r4,20(r16)
  10715c:	1800051e 	bne	r3,zero,107174 <OSTaskDel+0x1bc>
  107160:	20000615 	stw	zero,24(r4)
  107164:	00800474 	movhi	r2,17
  107168:	10bc4904 	addi	r2,r2,-3804
  10716c:	11000015 	stw	r4,0(r2)
  107170:	00000306 	br	107180 <OSTaskDel+0x1c8>
  107174:	19000515 	stw	r4,20(r3)
  107178:	80800517 	ldw	r2,20(r16)
  10717c:	10c00615 	stw	r3,24(r2)
  107180:	00c00474 	movhi	r3,17
  107184:	18fc4e04 	addi	r3,r3,-3784
  107188:	18800017 	ldw	r2,0(r3)
  10718c:	80800515 	stw	r2,20(r16)
  107190:	1c000015 	stw	r16,0(r3)
  107194:	00800fc4 	movi	r2,63
  107198:	80801305 	stb	r2,76(r16)
  10719c:	80001345 	stb	zero,77(r16)
  1071a0:	9001703a 	wrctl	status,r18
  1071a4:	00800474 	movhi	r2,17
  1071a8:	10bc4604 	addi	r2,r2,-3816
  1071ac:	10c00003 	ldbu	r3,0(r2)
  1071b0:	00800044 	movi	r2,1
  1071b4:	1880011e 	bne	r3,r2,1071bc <OSTaskDel+0x204>
  1071b8:	0103cc40 	call	103cc4 <OS_Sched>
  1071bc:	0005883a 	mov	r2,zero
  1071c0:	00000906 	br	1071e8 <OSTaskDel+0x230>
  1071c4:	0025303a 	rdctl	r18,status
  1071c8:	00bfff84 	movi	r2,-2
  1071cc:	9084703a 	and	r2,r18,r2
  1071d0:	1001703a 	wrctl	status,r2
  1071d4:	00800474 	movhi	r2,17
  1071d8:	10bc5604 	addi	r2,r2,-3752
  1071dc:	10800017 	ldw	r2,0(r2)
  1071e0:	11000c83 	ldbu	r4,50(r2)
  1071e4:	003f8f06 	br	107024 <OSTaskDel+0x6c>
  1071e8:	dfc00417 	ldw	ra,16(sp)
  1071ec:	dcc00317 	ldw	r19,12(sp)
  1071f0:	dc800217 	ldw	r18,8(sp)
  1071f4:	dc400117 	ldw	r17,4(sp)
  1071f8:	dc000017 	ldw	r16,0(sp)
  1071fc:	dec00504 	addi	sp,sp,20
  107200:	f800283a 	ret

00107204 <OSTaskDelReq>:
  107204:	21003fcc 	andi	r4,r4,255
  107208:	00800504 	movi	r2,20
  10720c:	2080021e 	bne	r4,r2,107218 <OSTaskDelReq+0x14>
  107210:	00800f84 	movi	r2,62
  107214:	f800283a 	ret
  107218:	008004c4 	movi	r2,19
  10721c:	11000e2e 	bgeu	r2,r4,107258 <OSTaskDelReq+0x54>
  107220:	00803fc4 	movi	r2,255
  107224:	20800226 	beq	r4,r2,107230 <OSTaskDelReq+0x2c>
  107228:	00800a84 	movi	r2,42
  10722c:	f800283a 	ret
  107230:	0007303a 	rdctl	r3,status
  107234:	00bfff84 	movi	r2,-2
  107238:	1884703a 	and	r2,r3,r2
  10723c:	1001703a 	wrctl	status,r2
  107240:	00800474 	movhi	r2,17
  107244:	10bc5604 	addi	r2,r2,-3752
  107248:	10800017 	ldw	r2,0(r2)
  10724c:	10800dc3 	ldbu	r2,55(r2)
  107250:	1801703a 	wrctl	status,r3
  107254:	f800283a 	ret
  107258:	000b303a 	rdctl	r5,status
  10725c:	00bfff84 	movi	r2,-2
  107260:	2884703a 	and	r2,r5,r2
  107264:	1001703a 	wrctl	status,r2
  107268:	2105883a 	add	r2,r4,r4
  10726c:	1085883a 	add	r2,r2,r2
  107270:	00c004b4 	movhi	r3,18
  107274:	18e3b304 	addi	r3,r3,-28980
  107278:	10c5883a 	add	r2,r2,r3
  10727c:	11000017 	ldw	r4,0(r2)
  107280:	2000031e 	bne	r4,zero,107290 <OSTaskDelReq+0x8c>
  107284:	2801703a 	wrctl	status,r5
  107288:	008010c4 	movi	r2,67
  10728c:	f800283a 	ret
  107290:	00800044 	movi	r2,1
  107294:	2080031e 	bne	r4,r2,1072a4 <OSTaskDelReq+0xa0>
  107298:	2801703a 	wrctl	status,r5
  10729c:	00800f44 	movi	r2,61
  1072a0:	f800283a 	ret
  1072a4:	00800fc4 	movi	r2,63
  1072a8:	20800dc5 	stb	r2,55(r4)
  1072ac:	2801703a 	wrctl	status,r5
  1072b0:	0005883a 	mov	r2,zero
  1072b4:	f800283a 	ret

001072b8 <OSTaskNameGet>:
  1072b8:	defffd04 	addi	sp,sp,-12
  1072bc:	dfc00215 	stw	ra,8(sp)
  1072c0:	dc000115 	stw	r16,4(sp)
  1072c4:	3000021e 	bne	r6,zero,1072d0 <OSTaskNameGet+0x18>
  1072c8:	0007883a 	mov	r3,zero
  1072cc:	00003706 	br	1073ac <OSTaskNameGet+0xf4>
  1072d0:	20c03fcc 	andi	r3,r4,255
  1072d4:	00800504 	movi	r2,20
  1072d8:	10c0052e 	bgeu	r2,r3,1072f0 <OSTaskNameGet+0x38>
  1072dc:	00803fc4 	movi	r2,255
  1072e0:	18800326 	beq	r3,r2,1072f0 <OSTaskNameGet+0x38>
  1072e4:	0007883a 	mov	r3,zero
  1072e8:	00800a84 	movi	r2,42
  1072ec:	00000306 	br	1072fc <OSTaskNameGet+0x44>
  1072f0:	2800041e 	bne	r5,zero,107304 <OSTaskNameGet+0x4c>
  1072f4:	0007883a 	mov	r3,zero
  1072f8:	00800304 	movi	r2,12
  1072fc:	30800005 	stb	r2,0(r6)
  107300:	00002a06 	br	1073ac <OSTaskNameGet+0xf4>
  107304:	00800474 	movhi	r2,17
  107308:	10bc5504 	addi	r2,r2,-3756
  10730c:	10800003 	ldbu	r2,0(r2)
  107310:	10000326 	beq	r2,zero,107320 <OSTaskNameGet+0x68>
  107314:	0007883a 	mov	r3,zero
  107318:	00800444 	movi	r2,17
  10731c:	003ff706 	br	1072fc <OSTaskNameGet+0x44>
  107320:	0021303a 	rdctl	r16,status
  107324:	00bfff84 	movi	r2,-2
  107328:	8084703a 	and	r2,r16,r2
  10732c:	1001703a 	wrctl	status,r2
  107330:	20c03fcc 	andi	r3,r4,255
  107334:	00803fc4 	movi	r2,255
  107338:	1880041e 	bne	r3,r2,10734c <OSTaskNameGet+0x94>
  10733c:	00800474 	movhi	r2,17
  107340:	10bc5604 	addi	r2,r2,-3752
  107344:	10800017 	ldw	r2,0(r2)
  107348:	11000c83 	ldbu	r4,50(r2)
  10734c:	20803fcc 	andi	r2,r4,255
  107350:	1085883a 	add	r2,r2,r2
  107354:	00c004b4 	movhi	r3,18
  107358:	18e3b304 	addi	r3,r3,-28980
  10735c:	1085883a 	add	r2,r2,r2
  107360:	10c5883a 	add	r2,r2,r3
  107364:	10c00017 	ldw	r3,0(r2)
  107368:	1800021e 	bne	r3,zero,107374 <OSTaskNameGet+0xbc>
  10736c:	8001703a 	wrctl	status,r16
  107370:	00000406 	br	107384 <OSTaskNameGet+0xcc>
  107374:	00800044 	movi	r2,1
  107378:	1880041e 	bne	r3,r2,10738c <OSTaskNameGet+0xd4>
  10737c:	8001703a 	wrctl	status,r16
  107380:	0007883a 	mov	r3,zero
  107384:	008010c4 	movi	r2,67
  107388:	003fdc06 	br	1072fc <OSTaskNameGet+0x44>
  10738c:	2809883a 	mov	r4,r5
  107390:	19401304 	addi	r5,r3,76
  107394:	d9800015 	stw	r6,0(sp)
  107398:	0103bf40 	call	103bf4 <OS_StrCopy>
  10739c:	8001703a 	wrctl	status,r16
  1073a0:	d9800017 	ldw	r6,0(sp)
  1073a4:	10c03fcc 	andi	r3,r2,255
  1073a8:	30000005 	stb	zero,0(r6)
  1073ac:	1805883a 	mov	r2,r3
  1073b0:	dfc00217 	ldw	ra,8(sp)
  1073b4:	dc000117 	ldw	r16,4(sp)
  1073b8:	dec00304 	addi	sp,sp,12
  1073bc:	f800283a 	ret

001073c0 <OSTaskNameSet>:
  1073c0:	defffb04 	addi	sp,sp,-20
  1073c4:	dc400215 	stw	r17,8(sp)
  1073c8:	dfc00415 	stw	ra,16(sp)
  1073cc:	dc800315 	stw	r18,12(sp)
  1073d0:	dc000115 	stw	r16,4(sp)
  1073d4:	2823883a 	mov	r17,r5
  1073d8:	30003a26 	beq	r6,zero,1074c4 <OSTaskNameSet+0x104>
  1073dc:	20c03fcc 	andi	r3,r4,255
  1073e0:	00800504 	movi	r2,20
  1073e4:	10c0042e 	bgeu	r2,r3,1073f8 <OSTaskNameSet+0x38>
  1073e8:	00803fc4 	movi	r2,255
  1073ec:	18800226 	beq	r3,r2,1073f8 <OSTaskNameSet+0x38>
  1073f0:	00800a84 	movi	r2,42
  1073f4:	00000206 	br	107400 <OSTaskNameSet+0x40>
  1073f8:	8800031e 	bne	r17,zero,107408 <OSTaskNameSet+0x48>
  1073fc:	00800304 	movi	r2,12
  107400:	30800005 	stb	r2,0(r6)
  107404:	00002f06 	br	1074c4 <OSTaskNameSet+0x104>
  107408:	00800474 	movhi	r2,17
  10740c:	10bc5504 	addi	r2,r2,-3756
  107410:	10800003 	ldbu	r2,0(r2)
  107414:	10000226 	beq	r2,zero,107420 <OSTaskNameSet+0x60>
  107418:	00800484 	movi	r2,18
  10741c:	003ff806 	br	107400 <OSTaskNameSet+0x40>
  107420:	0025303a 	rdctl	r18,status
  107424:	00bfff84 	movi	r2,-2
  107428:	9084703a 	and	r2,r18,r2
  10742c:	1001703a 	wrctl	status,r2
  107430:	20c03fcc 	andi	r3,r4,255
  107434:	00803fc4 	movi	r2,255
  107438:	1880041e 	bne	r3,r2,10744c <OSTaskNameSet+0x8c>
  10743c:	00800474 	movhi	r2,17
  107440:	10bc5604 	addi	r2,r2,-3752
  107444:	10800017 	ldw	r2,0(r2)
  107448:	11000c83 	ldbu	r4,50(r2)
  10744c:	20803fcc 	andi	r2,r4,255
  107450:	1085883a 	add	r2,r2,r2
  107454:	1085883a 	add	r2,r2,r2
  107458:	00c004b4 	movhi	r3,18
  10745c:	18e3b304 	addi	r3,r3,-28980
  107460:	10c5883a 	add	r2,r2,r3
  107464:	14000017 	ldw	r16,0(r2)
  107468:	80000226 	beq	r16,zero,107474 <OSTaskNameSet+0xb4>
  10746c:	00800044 	movi	r2,1
  107470:	8080031e 	bne	r16,r2,107480 <OSTaskNameSet+0xc0>
  107474:	9001703a 	wrctl	status,r18
  107478:	008010c4 	movi	r2,67
  10747c:	003fe006 	br	107400 <OSTaskNameSet+0x40>
  107480:	8809883a 	mov	r4,r17
  107484:	d9800015 	stw	r6,0(sp)
  107488:	0103c200 	call	103c20 <OS_StrLen>
  10748c:	10803fcc 	andi	r2,r2,255
  107490:	00c007c4 	movi	r3,31
  107494:	d9800017 	ldw	r6,0(sp)
  107498:	1880032e 	bgeu	r3,r2,1074a8 <OSTaskNameSet+0xe8>
  10749c:	9001703a 	wrctl	status,r18
  1074a0:	00801044 	movi	r2,65
  1074a4:	003fd606 	br	107400 <OSTaskNameSet+0x40>
  1074a8:	81001304 	addi	r4,r16,76
  1074ac:	880b883a 	mov	r5,r17
  1074b0:	d9800015 	stw	r6,0(sp)
  1074b4:	0103bf40 	call	103bf4 <OS_StrCopy>
  1074b8:	9001703a 	wrctl	status,r18
  1074bc:	d9800017 	ldw	r6,0(sp)
  1074c0:	30000005 	stb	zero,0(r6)
  1074c4:	dfc00417 	ldw	ra,16(sp)
  1074c8:	dc800317 	ldw	r18,12(sp)
  1074cc:	dc400217 	ldw	r17,8(sp)
  1074d0:	dc000117 	ldw	r16,4(sp)
  1074d4:	dec00504 	addi	sp,sp,20
  1074d8:	f800283a 	ret

001074dc <OSTaskResume>:
  1074dc:	deffff04 	addi	sp,sp,-4
  1074e0:	21003fcc 	andi	r4,r4,255
  1074e4:	008004c4 	movi	r2,19
  1074e8:	dfc00015 	stw	ra,0(sp)
  1074ec:	1100022e 	bgeu	r2,r4,1074f8 <OSTaskResume+0x1c>
  1074f0:	00800a84 	movi	r2,42
  1074f4:	00003706 	br	1075d4 <OSTaskResume+0xf8>
  1074f8:	000d303a 	rdctl	r6,status
  1074fc:	00bfff84 	movi	r2,-2
  107500:	3084703a 	and	r2,r6,r2
  107504:	1001703a 	wrctl	status,r2
  107508:	2105883a 	add	r2,r4,r4
  10750c:	1085883a 	add	r2,r2,r2
  107510:	00c004b4 	movhi	r3,18
  107514:	18e3b304 	addi	r3,r3,-28980
  107518:	10c5883a 	add	r2,r2,r3
  10751c:	11400017 	ldw	r5,0(r2)
  107520:	2800031e 	bne	r5,zero,107530 <OSTaskResume+0x54>
  107524:	3001703a 	wrctl	status,r6
  107528:	00801184 	movi	r2,70
  10752c:	00002906 	br	1075d4 <OSTaskResume+0xf8>
  107530:	01c00044 	movi	r7,1
  107534:	29c0031e 	bne	r5,r7,107544 <OSTaskResume+0x68>
  107538:	3001703a 	wrctl	status,r6
  10753c:	008010c4 	movi	r2,67
  107540:	00002406 	br	1075d4 <OSTaskResume+0xf8>
  107544:	29000c03 	ldbu	r4,48(r5)
  107548:	2080020c 	andi	r2,r4,8
  10754c:	10001f26 	beq	r2,zero,1075cc <OSTaskResume+0xf0>
  107550:	00fffdc4 	movi	r3,-9
  107554:	20c6703a 	and	r3,r4,r3
  107558:	18803fcc 	andi	r2,r3,255
  10755c:	28c00c05 	stb	r3,48(r5)
  107560:	1000181e 	bne	r2,zero,1075c4 <OSTaskResume+0xe8>
  107564:	28800b8b 	ldhu	r2,46(r5)
  107568:	1000161e 	bne	r2,zero,1075c4 <OSTaskResume+0xe8>
  10756c:	01000474 	movhi	r4,17
  107570:	213c5304 	addi	r4,r4,-3764
  107574:	28c00d83 	ldbu	r3,54(r5)
  107578:	20800003 	ldbu	r2,0(r4)
  10757c:	10c4b03a 	or	r2,r2,r3
  107580:	20800005 	stb	r2,0(r4)
  107584:	28c00d03 	ldbu	r3,52(r5)
  107588:	00800474 	movhi	r2,17
  10758c:	10bc5344 	addi	r2,r2,-3763
  107590:	29000d43 	ldbu	r4,53(r5)
  107594:	1887883a 	add	r3,r3,r2
  107598:	18800003 	ldbu	r2,0(r3)
  10759c:	1104b03a 	or	r2,r2,r4
  1075a0:	18800005 	stb	r2,0(r3)
  1075a4:	3001703a 	wrctl	status,r6
  1075a8:	00800474 	movhi	r2,17
  1075ac:	10bc4604 	addi	r2,r2,-3816
  1075b0:	10800003 	ldbu	r2,0(r2)
  1075b4:	11c0011e 	bne	r2,r7,1075bc <OSTaskResume+0xe0>
  1075b8:	0103cc40 	call	103cc4 <OS_Sched>
  1075bc:	0005883a 	mov	r2,zero
  1075c0:	00000406 	br	1075d4 <OSTaskResume+0xf8>
  1075c4:	3001703a 	wrctl	status,r6
  1075c8:	003ffc06 	br	1075bc <OSTaskResume+0xe0>
  1075cc:	3001703a 	wrctl	status,r6
  1075d0:	00801104 	movi	r2,68
  1075d4:	dfc00017 	ldw	ra,0(sp)
  1075d8:	dec00104 	addi	sp,sp,4
  1075dc:	f800283a 	ret

001075e0 <OSTaskStkChk>:
  1075e0:	20c03fcc 	andi	r3,r4,255
  1075e4:	00800504 	movi	r2,20
  1075e8:	10c0042e 	bgeu	r2,r3,1075fc <OSTaskStkChk+0x1c>
  1075ec:	00803fc4 	movi	r2,255
  1075f0:	18800226 	beq	r3,r2,1075fc <OSTaskStkChk+0x1c>
  1075f4:	00800a84 	movi	r2,42
  1075f8:	f800283a 	ret
  1075fc:	2800021e 	bne	r5,zero,107608 <OSTaskStkChk+0x28>
  107600:	00800244 	movi	r2,9
  107604:	f800283a 	ret
  107608:	28000015 	stw	zero,0(r5)
  10760c:	28000115 	stw	zero,4(r5)
  107610:	000f303a 	rdctl	r7,status
  107614:	00bfff84 	movi	r2,-2
  107618:	3884703a 	and	r2,r7,r2
  10761c:	1001703a 	wrctl	status,r2
  107620:	20c03fcc 	andi	r3,r4,255
  107624:	00803fc4 	movi	r2,255
  107628:	1880041e 	bne	r3,r2,10763c <OSTaskStkChk+0x5c>
  10762c:	00800474 	movhi	r2,17
  107630:	10bc5604 	addi	r2,r2,-3752
  107634:	10800017 	ldw	r2,0(r2)
  107638:	11000c83 	ldbu	r4,50(r2)
  10763c:	20803fcc 	andi	r2,r4,255
  107640:	1085883a 	add	r2,r2,r2
  107644:	00c004b4 	movhi	r3,18
  107648:	18e3b304 	addi	r3,r3,-28980
  10764c:	1085883a 	add	r2,r2,r2
  107650:	10c5883a 	add	r2,r2,r3
  107654:	10c00017 	ldw	r3,0(r2)
  107658:	18000226 	beq	r3,zero,107664 <OSTaskStkChk+0x84>
  10765c:	00800044 	movi	r2,1
  107660:	1880031e 	bne	r3,r2,107670 <OSTaskStkChk+0x90>
  107664:	3801703a 	wrctl	status,r7
  107668:	008010c4 	movi	r2,67
  10766c:	f800283a 	ret
  107670:	1880040b 	ldhu	r2,16(r3)
  107674:	1080004c 	andi	r2,r2,1
  107678:	1000031e 	bne	r2,zero,107688 <OSTaskStkChk+0xa8>
  10767c:	3801703a 	wrctl	status,r7
  107680:	00801144 	movi	r2,69
  107684:	f800283a 	ret
  107688:	19800217 	ldw	r6,8(r3)
  10768c:	19000317 	ldw	r4,12(r3)
  107690:	3801703a 	wrctl	status,r7
  107694:	0007883a 	mov	r3,zero
  107698:	00000106 	br	1076a0 <OSTaskStkChk+0xc0>
  10769c:	18c00044 	addi	r3,r3,1
  1076a0:	30800017 	ldw	r2,0(r6)
  1076a4:	31800104 	addi	r6,r6,4
  1076a8:	103ffc26 	beq	r2,zero,10769c <OSTaskStkChk+0xbc>
  1076ac:	20c5c83a 	sub	r2,r4,r3
  1076b0:	1085883a 	add	r2,r2,r2
  1076b4:	1085883a 	add	r2,r2,r2
  1076b8:	18c7883a 	add	r3,r3,r3
  1076bc:	18c7883a 	add	r3,r3,r3
  1076c0:	28800115 	stw	r2,4(r5)
  1076c4:	0005883a 	mov	r2,zero
  1076c8:	28c00015 	stw	r3,0(r5)
  1076cc:	f800283a 	ret

001076d0 <OSTaskSuspend>:
  1076d0:	deffff04 	addi	sp,sp,-4
  1076d4:	20c03fcc 	andi	r3,r4,255
  1076d8:	00800504 	movi	r2,20
  1076dc:	dfc00015 	stw	ra,0(sp)
  1076e0:	1880021e 	bne	r3,r2,1076ec <OSTaskSuspend+0x1c>
  1076e4:	008011c4 	movi	r2,71
  1076e8:	00004706 	br	107808 <OSTaskSuspend+0x138>
  1076ec:	008004c4 	movi	r2,19
  1076f0:	10c0042e 	bgeu	r2,r3,107704 <OSTaskSuspend+0x34>
  1076f4:	00803fc4 	movi	r2,255
  1076f8:	18803926 	beq	r3,r2,1077e0 <OSTaskSuspend+0x110>
  1076fc:	00800a84 	movi	r2,42
  107700:	00004106 	br	107808 <OSTaskSuspend+0x138>
  107704:	000f303a 	rdctl	r7,status
  107708:	00bfff84 	movi	r2,-2
  10770c:	3884703a 	and	r2,r7,r2
  107710:	1001703a 	wrctl	status,r2
  107714:	00800474 	movhi	r2,17
  107718:	10bc5604 	addi	r2,r2,-3752
  10771c:	10800017 	ldw	r2,0(r2)
  107720:	10800c83 	ldbu	r2,50(r2)
  107724:	1885003a 	cmpeq	r2,r3,r2
  107728:	100d883a 	mov	r6,r2
  10772c:	20803fcc 	andi	r2,r4,255
  107730:	1085883a 	add	r2,r2,r2
  107734:	1085883a 	add	r2,r2,r2
  107738:	00c004b4 	movhi	r3,18
  10773c:	18e3b304 	addi	r3,r3,-28980
  107740:	10c5883a 	add	r2,r2,r3
  107744:	11400017 	ldw	r5,0(r2)
  107748:	2800031e 	bne	r5,zero,107758 <OSTaskSuspend+0x88>
  10774c:	3801703a 	wrctl	status,r7
  107750:	00801204 	movi	r2,72
  107754:	00002c06 	br	107808 <OSTaskSuspend+0x138>
  107758:	02000044 	movi	r8,1
  10775c:	2a00031e 	bne	r5,r8,10776c <OSTaskSuspend+0x9c>
  107760:	3801703a 	wrctl	status,r7
  107764:	008010c4 	movi	r2,67
  107768:	00002706 	br	107808 <OSTaskSuspend+0x138>
  10776c:	29000d03 	ldbu	r4,52(r5)
  107770:	00c00474 	movhi	r3,17
  107774:	18fc5344 	addi	r3,r3,-3763
  107778:	28800d43 	ldbu	r2,53(r5)
  10777c:	20c9883a 	add	r4,r4,r3
  107780:	20c00003 	ldbu	r3,0(r4)
  107784:	0084303a 	nor	r2,zero,r2
  107788:	10c4703a 	and	r2,r2,r3
  10778c:	10c03fcc 	andi	r3,r2,255
  107790:	18c0201c 	xori	r3,r3,128
  107794:	18ffe004 	addi	r3,r3,-128
  107798:	20800005 	stb	r2,0(r4)
  10779c:	1800071e 	bne	r3,zero,1077bc <OSTaskSuspend+0xec>
  1077a0:	00800474 	movhi	r2,17
  1077a4:	10bc5304 	addi	r2,r2,-3764
  1077a8:	28c00d83 	ldbu	r3,54(r5)
  1077ac:	11000003 	ldbu	r4,0(r2)
  1077b0:	00c6303a 	nor	r3,zero,r3
  1077b4:	1906703a 	and	r3,r3,r4
  1077b8:	10c00005 	stb	r3,0(r2)
  1077bc:	28800c03 	ldbu	r2,48(r5)
  1077c0:	10800214 	ori	r2,r2,8
  1077c4:	28800c05 	stb	r2,48(r5)
  1077c8:	3801703a 	wrctl	status,r7
  1077cc:	30803fcc 	andi	r2,r6,255
  1077d0:	1200011e 	bne	r2,r8,1077d8 <OSTaskSuspend+0x108>
  1077d4:	0103cc40 	call	103cc4 <OS_Sched>
  1077d8:	0005883a 	mov	r2,zero
  1077dc:	00000a06 	br	107808 <OSTaskSuspend+0x138>
  1077e0:	000f303a 	rdctl	r7,status
  1077e4:	00bfff84 	movi	r2,-2
  1077e8:	3884703a 	and	r2,r7,r2
  1077ec:	1001703a 	wrctl	status,r2
  1077f0:	00800474 	movhi	r2,17
  1077f4:	10bc5604 	addi	r2,r2,-3752
  1077f8:	10800017 	ldw	r2,0(r2)
  1077fc:	01800044 	movi	r6,1
  107800:	11000c83 	ldbu	r4,50(r2)
  107804:	003fc906 	br	10772c <OSTaskSuspend+0x5c>
  107808:	dfc00017 	ldw	ra,0(sp)
  10780c:	dec00104 	addi	sp,sp,4
  107810:	f800283a 	ret

00107814 <OSTimeSet>:
  107814:	0007303a 	rdctl	r3,status
  107818:	00bfff84 	movi	r2,-2
  10781c:	1884703a 	and	r2,r3,r2
  107820:	1001703a 	wrctl	status,r2
  107824:	00800474 	movhi	r2,17
  107828:	10bc5804 	addi	r2,r2,-3744
  10782c:	11000015 	stw	r4,0(r2)
  107830:	1801703a 	wrctl	status,r3
  107834:	f800283a 	ret

00107838 <OSTimeDly>:
  107838:	00800474 	movhi	r2,17
  10783c:	10bc5504 	addi	r2,r2,-3756
  107840:	10c00003 	ldbu	r3,0(r2)
  107844:	200d883a 	mov	r6,r4
  107848:	20bfffcc 	andi	r2,r4,65535
  10784c:	18001f1e 	bne	r3,zero,1078cc <OSTimeDly+0x94>
  107850:	10001e26 	beq	r2,zero,1078cc <OSTimeDly+0x94>
  107854:	0011303a 	rdctl	r8,status
  107858:	00bfff84 	movi	r2,-2
  10785c:	4084703a 	and	r2,r8,r2
  107860:	1001703a 	wrctl	status,r2
  107864:	00800474 	movhi	r2,17
  107868:	10bc5604 	addi	r2,r2,-3752
  10786c:	11400017 	ldw	r5,0(r2)
  107870:	00c00474 	movhi	r3,17
  107874:	18fc5344 	addi	r3,r3,-3763
  107878:	01c00474 	movhi	r7,17
  10787c:	39fc5304 	addi	r7,r7,-3764
  107880:	29000d03 	ldbu	r4,52(r5)
  107884:	28800d43 	ldbu	r2,53(r5)
  107888:	20c9883a 	add	r4,r4,r3
  10788c:	20c00003 	ldbu	r3,0(r4)
  107890:	0084303a 	nor	r2,zero,r2
  107894:	10c4703a 	and	r2,r2,r3
  107898:	10c03fcc 	andi	r3,r2,255
  10789c:	18c0201c 	xori	r3,r3,128
  1078a0:	18ffe004 	addi	r3,r3,-128
  1078a4:	20800005 	stb	r2,0(r4)
  1078a8:	1800051e 	bne	r3,zero,1078c0 <OSTimeDly+0x88>
  1078ac:	28800d83 	ldbu	r2,54(r5)
  1078b0:	38c00003 	ldbu	r3,0(r7)
  1078b4:	0084303a 	nor	r2,zero,r2
  1078b8:	10c4703a 	and	r2,r2,r3
  1078bc:	38800005 	stb	r2,0(r7)
  1078c0:	29800b8d 	sth	r6,46(r5)
  1078c4:	4001703a 	wrctl	status,r8
  1078c8:	0103cc41 	jmpi	103cc4 <OS_Sched>
  1078cc:	f800283a 	ret

001078d0 <OSTimeDlyHMSM>:
  1078d0:	defffb04 	addi	sp,sp,-20
  1078d4:	dc800215 	stw	r18,8(sp)
  1078d8:	dc400115 	stw	r17,4(sp)
  1078dc:	dfc00415 	stw	ra,16(sp)
  1078e0:	dcc00315 	stw	r19,12(sp)
  1078e4:	dc000015 	stw	r16,0(sp)
  1078e8:	00800474 	movhi	r2,17
  1078ec:	10bc5504 	addi	r2,r2,-3756
  1078f0:	10800003 	ldbu	r2,0(r2)
  1078f4:	2825883a 	mov	r18,r5
  1078f8:	3023883a 	mov	r17,r6
  1078fc:	10000226 	beq	r2,zero,107908 <OSTimeDlyHMSM+0x38>
  107900:	00801544 	movi	r2,85
  107904:	00005306 	br	107a54 <OSTimeDlyHMSM+0x184>
  107908:	20803fcc 	andi	r2,r4,255
  10790c:	1000081e 	bne	r2,zero,107930 <OSTimeDlyHMSM+0x60>
  107910:	28803fcc 	andi	r2,r5,255
  107914:	1000061e 	bne	r2,zero,107930 <OSTimeDlyHMSM+0x60>
  107918:	30803fcc 	andi	r2,r6,255
  10791c:	1000091e 	bne	r2,zero,107944 <OSTimeDlyHMSM+0x74>
  107920:	38bfffcc 	andi	r2,r7,65535
  107924:	10000c1e 	bne	r2,zero,107958 <OSTimeDlyHMSM+0x88>
  107928:	00801504 	movi	r2,84
  10792c:	00004906 	br	107a54 <OSTimeDlyHMSM+0x184>
  107930:	90c03fcc 	andi	r3,r18,255
  107934:	00800ec4 	movi	r2,59
  107938:	10c0022e 	bgeu	r2,r3,107944 <OSTimeDlyHMSM+0x74>
  10793c:	00801444 	movi	r2,81
  107940:	00004406 	br	107a54 <OSTimeDlyHMSM+0x184>
  107944:	88c03fcc 	andi	r3,r17,255
  107948:	00800ec4 	movi	r2,59
  10794c:	10c0022e 	bgeu	r2,r3,107958 <OSTimeDlyHMSM+0x88>
  107950:	00801484 	movi	r2,82
  107954:	00003f06 	br	107a54 <OSTimeDlyHMSM+0x184>
  107958:	3cffffcc 	andi	r19,r7,65535
  10795c:	0080f9c4 	movi	r2,999
  107960:	14c0022e 	bgeu	r2,r19,10796c <OSTimeDlyHMSM+0x9c>
  107964:	008014c4 	movi	r2,83
  107968:	00003a06 	br	107a54 <OSTimeDlyHMSM+0x184>
  10796c:	21003fcc 	andi	r4,r4,255
  107970:	01438404 	movi	r5,3600
  107974:	01030a40 	call	1030a4 <__mulsi3>
  107978:	91003fcc 	andi	r4,r18,255
  10797c:	01400f04 	movi	r5,60
  107980:	1021883a 	mov	r16,r2
  107984:	01030a40 	call	1030a4 <__mulsi3>
  107988:	80a1883a 	add	r16,r16,r2
  10798c:	89003fcc 	andi	r4,r17,255
  107990:	8109883a 	add	r4,r16,r4
  107994:	010ae1c0 	call	10ae1c <__floatunsidf>
  107998:	045023f4 	movhi	r17,16527
  10799c:	8c500004 	addi	r17,r17,16384
  1079a0:	0021883a 	mov	r16,zero
  1079a4:	800d883a 	mov	r6,r16
  1079a8:	180b883a 	mov	r5,r3
  1079ac:	880f883a 	mov	r7,r17
  1079b0:	1009883a 	mov	r4,r2
  1079b4:	010a5a80 	call	10a5a8 <__muldf3>
  1079b8:	9809883a 	mov	r4,r19
  1079bc:	1025883a 	mov	r18,r2
  1079c0:	1827883a 	mov	r19,r3
  1079c4:	010ae1c0 	call	10ae1c <__floatunsidf>
  1079c8:	0011883a 	mov	r8,zero
  1079cc:	024ff834 	movhi	r9,16352
  1079d0:	480f883a 	mov	r7,r9
  1079d4:	400d883a 	mov	r6,r8
  1079d8:	180b883a 	mov	r5,r3
  1079dc:	1009883a 	mov	r4,r2
  1079e0:	010a5340 	call	10a534 <__adddf3>
  1079e4:	180b883a 	mov	r5,r3
  1079e8:	000d883a 	mov	r6,zero
  1079ec:	880f883a 	mov	r7,r17
  1079f0:	1009883a 	mov	r4,r2
  1079f4:	010a5a80 	call	10a5a8 <__muldf3>
  1079f8:	180b883a 	mov	r5,r3
  1079fc:	000d883a 	mov	r6,zero
  107a00:	880f883a 	mov	r7,r17
  107a04:	1009883a 	mov	r4,r2
  107a08:	010a96c0 	call	10a96c <__divdf3>
  107a0c:	180f883a 	mov	r7,r3
  107a10:	980b883a 	mov	r5,r19
  107a14:	9009883a 	mov	r4,r18
  107a18:	100d883a 	mov	r6,r2
  107a1c:	010a5340 	call	10a534 <__adddf3>
  107a20:	1009883a 	mov	r4,r2
  107a24:	180b883a 	mov	r5,r3
  107a28:	010a0000 	call	10a000 <__fixunsdfsi>
  107a2c:	1020d43a 	srli	r16,r2,16
  107a30:	113fffcc 	andi	r4,r2,65535
  107a34:	00000206 	br	107a40 <OSTimeDlyHMSM+0x170>
  107a38:	01078380 	call	107838 <OSTimeDly>
  107a3c:	01200014 	movui	r4,32768
  107a40:	01078380 	call	107838 <OSTimeDly>
  107a44:	80bfffcc 	andi	r2,r16,65535
  107a48:	01200014 	movui	r4,32768
  107a4c:	843fffc4 	addi	r16,r16,-1
  107a50:	103ff91e 	bne	r2,zero,107a38 <OSTimeDlyHMSM+0x168>
  107a54:	dfc00417 	ldw	ra,16(sp)
  107a58:	dcc00317 	ldw	r19,12(sp)
  107a5c:	dc800217 	ldw	r18,8(sp)
  107a60:	dc400117 	ldw	r17,4(sp)
  107a64:	dc000017 	ldw	r16,0(sp)
  107a68:	dec00504 	addi	sp,sp,20
  107a6c:	f800283a 	ret

00107a70 <OSTimeDlyResume>:
  107a70:	deffff04 	addi	sp,sp,-4
  107a74:	21003fcc 	andi	r4,r4,255
  107a78:	008004c4 	movi	r2,19
  107a7c:	dfc00015 	stw	ra,0(sp)
  107a80:	1100022e 	bgeu	r2,r4,107a8c <OSTimeDlyResume+0x1c>
  107a84:	00800a84 	movi	r2,42
  107a88:	00003406 	br	107b5c <OSTimeDlyResume+0xec>
  107a8c:	000d303a 	rdctl	r6,status
  107a90:	00bfff84 	movi	r2,-2
  107a94:	3084703a 	and	r2,r6,r2
  107a98:	1001703a 	wrctl	status,r2
  107a9c:	2105883a 	add	r2,r4,r4
  107aa0:	1085883a 	add	r2,r2,r2
  107aa4:	00c004b4 	movhi	r3,18
  107aa8:	18e3b304 	addi	r3,r3,-28980
  107aac:	10c5883a 	add	r2,r2,r3
  107ab0:	11400017 	ldw	r5,0(r2)
  107ab4:	28000226 	beq	r5,zero,107ac0 <OSTimeDlyResume+0x50>
  107ab8:	01000044 	movi	r4,1
  107abc:	2900031e 	bne	r5,r4,107acc <OSTimeDlyResume+0x5c>
  107ac0:	3001703a 	wrctl	status,r6
  107ac4:	008010c4 	movi	r2,67
  107ac8:	00002406 	br	107b5c <OSTimeDlyResume+0xec>
  107acc:	28800b8b 	ldhu	r2,46(r5)
  107ad0:	1000031e 	bne	r2,zero,107ae0 <OSTimeDlyResume+0x70>
  107ad4:	3001703a 	wrctl	status,r6
  107ad8:	00801404 	movi	r2,80
  107adc:	00001f06 	br	107b5c <OSTimeDlyResume+0xec>
  107ae0:	28c00c03 	ldbu	r3,48(r5)
  107ae4:	28000b8d 	sth	zero,46(r5)
  107ae8:	18800dcc 	andi	r2,r3,55
  107aec:	10000426 	beq	r2,zero,107b00 <OSTimeDlyResume+0x90>
  107af0:	1880320c 	andi	r2,r3,200
  107af4:	28800c05 	stb	r2,48(r5)
  107af8:	29000c45 	stb	r4,49(r5)
  107afc:	00000106 	br	107b04 <OSTimeDlyResume+0x94>
  107b00:	28000c45 	stb	zero,49(r5)
  107b04:	28800c03 	ldbu	r2,48(r5)
  107b08:	1080020c 	andi	r2,r2,8
  107b0c:	1000111e 	bne	r2,zero,107b54 <OSTimeDlyResume+0xe4>
  107b10:	01000474 	movhi	r4,17
  107b14:	213c5304 	addi	r4,r4,-3764
  107b18:	28c00d83 	ldbu	r3,54(r5)
  107b1c:	20800003 	ldbu	r2,0(r4)
  107b20:	10c4b03a 	or	r2,r2,r3
  107b24:	20800005 	stb	r2,0(r4)
  107b28:	28c00d03 	ldbu	r3,52(r5)
  107b2c:	00800474 	movhi	r2,17
  107b30:	10bc5344 	addi	r2,r2,-3763
  107b34:	29000d43 	ldbu	r4,53(r5)
  107b38:	1887883a 	add	r3,r3,r2
  107b3c:	18800003 	ldbu	r2,0(r3)
  107b40:	1104b03a 	or	r2,r2,r4
  107b44:	18800005 	stb	r2,0(r3)
  107b48:	3001703a 	wrctl	status,r6
  107b4c:	0103cc40 	call	103cc4 <OS_Sched>
  107b50:	00000106 	br	107b58 <OSTimeDlyResume+0xe8>
  107b54:	3001703a 	wrctl	status,r6
  107b58:	0005883a 	mov	r2,zero
  107b5c:	dfc00017 	ldw	ra,0(sp)
  107b60:	dec00104 	addi	sp,sp,4
  107b64:	f800283a 	ret

00107b68 <OSTimeGet>:
  107b68:	0007303a 	rdctl	r3,status
  107b6c:	00bfff84 	movi	r2,-2
  107b70:	1884703a 	and	r2,r3,r2
  107b74:	1001703a 	wrctl	status,r2
  107b78:	00800474 	movhi	r2,17
  107b7c:	10bc5804 	addi	r2,r2,-3744
  107b80:	10800017 	ldw	r2,0(r2)
  107b84:	1801703a 	wrctl	status,r3
  107b88:	f800283a 	ret

00107b8c <OSTmr_Free>:
  107b8c:	00800fc4 	movi	r2,63
  107b90:	20800805 	stb	r2,32(r4)
  107b94:	20000c45 	stb	zero,49(r4)
  107b98:	20000c05 	stb	zero,48(r4)
  107b9c:	20000845 	stb	zero,33(r4)
  107ba0:	01800474 	movhi	r6,17
  107ba4:	31bc4804 	addi	r6,r6,-3808
  107ba8:	01c00474 	movhi	r7,17
  107bac:	39fc4c04 	addi	r7,r7,-3792
  107bb0:	01400474 	movhi	r5,17
  107bb4:	297c4304 	addi	r5,r5,-3828
  107bb8:	3080000b 	ldhu	r2,0(r6)
  107bbc:	38c0000b 	ldhu	r3,0(r7)
  107bc0:	2a000017 	ldw	r8,0(r5)
  107bc4:	10bfffc4 	addi	r2,r2,-1
  107bc8:	18c00044 	addi	r3,r3,1
  107bcc:	29000015 	stw	r4,0(r5)
  107bd0:	3080000d 	sth	r2,0(r6)
  107bd4:	38c0000d 	sth	r3,0(r7)
  107bd8:	22000315 	stw	r8,12(r4)
  107bdc:	20000715 	stw	zero,28(r4)
  107be0:	20000515 	stw	zero,20(r4)
  107be4:	20000115 	stw	zero,4(r4)
  107be8:	20000215 	stw	zero,8(r4)
  107bec:	20000415 	stw	zero,16(r4)
  107bf0:	f800283a 	ret

00107bf4 <OSTmr_Link>:
  107bf4:	008000c4 	movi	r2,3
  107bf8:	20800c45 	stb	r2,49(r4)
  107bfc:	29403fcc 	andi	r5,r5,255
  107c00:	00800044 	movi	r2,1
  107c04:	2880031e 	bne	r5,r2,107c14 <OSTmr_Link+0x20>
  107c08:	00800474 	movhi	r2,17
  107c0c:	10bc5704 	addi	r2,r2,-3748
  107c10:	00000406 	br	107c24 <OSTmr_Link+0x30>
  107c14:	21400617 	ldw	r5,24(r4)
  107c18:	00800474 	movhi	r2,17
  107c1c:	10bc5704 	addi	r2,r2,-3748
  107c20:	2800041e 	bne	r5,zero,107c34 <OSTmr_Link+0x40>
  107c24:	10c00017 	ldw	r3,0(r2)
  107c28:	20800717 	ldw	r2,28(r4)
  107c2c:	10c5883a 	add	r2,r2,r3
  107c30:	00000206 	br	107c3c <OSTmr_Link+0x48>
  107c34:	10800017 	ldw	r2,0(r2)
  107c38:	2885883a 	add	r2,r5,r2
  107c3c:	20800515 	stw	r2,20(r4)
  107c40:	20800517 	ldw	r2,20(r4)
  107c44:	00c00474 	movhi	r3,17
  107c48:	18d46b04 	addi	r3,r3,20908
  107c4c:	1080004c 	andi	r2,r2,1
  107c50:	100490fa 	slli	r2,r2,3
  107c54:	10c7883a 	add	r3,r2,r3
  107c58:	19400017 	ldw	r5,0(r3)
  107c5c:	2800051e 	bne	r5,zero,107c74 <OSTmr_Link+0x80>
  107c60:	00800044 	movi	r2,1
  107c64:	1880010d 	sth	r2,4(r3)
  107c68:	19000015 	stw	r4,0(r3)
  107c6c:	20000315 	stw	zero,12(r4)
  107c70:	00000606 	br	107c8c <OSTmr_Link+0x98>
  107c74:	1880010b 	ldhu	r2,4(r3)
  107c78:	19000015 	stw	r4,0(r3)
  107c7c:	21400315 	stw	r5,12(r4)
  107c80:	10800044 	addi	r2,r2,1
  107c84:	1880010d 	sth	r2,4(r3)
  107c88:	29000415 	stw	r4,16(r5)
  107c8c:	20000415 	stw	zero,16(r4)
  107c90:	f800283a 	ret

00107c94 <OSTmr_Unlink>:
  107c94:	20800517 	ldw	r2,20(r4)
  107c98:	00c00474 	movhi	r3,17
  107c9c:	18d46b04 	addi	r3,r3,20908
  107ca0:	21400317 	ldw	r5,12(r4)
  107ca4:	1080004c 	andi	r2,r2,1
  107ca8:	100490fa 	slli	r2,r2,3
  107cac:	10c7883a 	add	r3,r2,r3
  107cb0:	18800017 	ldw	r2,0(r3)
  107cb4:	1100041e 	bne	r2,r4,107cc8 <OSTmr_Unlink+0x34>
  107cb8:	19400015 	stw	r5,0(r3)
  107cbc:	28000626 	beq	r5,zero,107cd8 <OSTmr_Unlink+0x44>
  107cc0:	28000415 	stw	zero,16(r5)
  107cc4:	00000406 	br	107cd8 <OSTmr_Unlink+0x44>
  107cc8:	20800417 	ldw	r2,16(r4)
  107ccc:	11400315 	stw	r5,12(r2)
  107cd0:	28000126 	beq	r5,zero,107cd8 <OSTmr_Unlink+0x44>
  107cd4:	28800415 	stw	r2,16(r5)
  107cd8:	00800044 	movi	r2,1
  107cdc:	20800c45 	stb	r2,49(r4)
  107ce0:	1880010b 	ldhu	r2,4(r3)
  107ce4:	20000415 	stw	zero,16(r4)
  107ce8:	20000315 	stw	zero,12(r4)
  107cec:	10bfffc4 	addi	r2,r2,-1
  107cf0:	1880010d 	sth	r2,4(r3)
  107cf4:	f800283a 	ret

00107cf8 <OSTmr_Init>:
  107cf8:	defff804 	addi	sp,sp,-32
  107cfc:	01000474 	movhi	r4,17
  107d00:	21154b04 	addi	r4,r4,21804
  107d04:	0140d004 	movi	r5,832
  107d08:	dfc00715 	stw	ra,28(sp)
  107d0c:	dc000615 	stw	r16,24(sp)
  107d10:	0103bb40 	call	103bb4 <OS_MemClr>
  107d14:	01000474 	movhi	r4,17
  107d18:	21146b04 	addi	r4,r4,20908
  107d1c:	01400404 	movi	r5,16
  107d20:	0103bb40 	call	103bb4 <OS_MemClr>
  107d24:	01c00474 	movhi	r7,17
  107d28:	39d55804 	addi	r7,r7,21856
  107d2c:	02001904 	movi	r8,100
  107d30:	02400fc4 	movi	r9,63
  107d34:	3880c304 	addi	r2,r7,780
  107d38:	3a3ff305 	stb	r8,-52(r7)
  107d3c:	383fff45 	stb	zero,-3(r7)
  107d40:	39fff615 	stw	r7,-40(r7)
  107d44:	3a7ffb05 	stb	r9,-20(r7)
  107d48:	383ffb45 	stb	zero,-19(r7)
  107d4c:	39c00d04 	addi	r7,r7,52
  107d50:	38bff91e 	bne	r7,r2,107d38 <OSTmr_Init+0x40>
  107d54:	00c00404 	movi	r3,16
  107d58:	00800474 	movhi	r2,17
  107d5c:	10bc4c04 	addi	r2,r2,-3792
  107d60:	10c0000d 	sth	r3,0(r2)
  107d64:	39bf3004 	addi	r6,r7,-832
  107d68:	00800474 	movhi	r2,17
  107d6c:	10bc4304 	addi	r2,r2,-3828
  107d70:	397ff304 	addi	r5,r7,-52
  107d74:	11800015 	stw	r6,0(r2)
  107d78:	3a3ff305 	stb	r8,-52(r7)
  107d7c:	2a400805 	stb	r9,32(r5)
  107d80:	28000845 	stb	zero,33(r5)
  107d84:	00800474 	movhi	r2,17
  107d88:	10bc5704 	addi	r2,r2,-3748
  107d8c:	10000015 	stw	zero,0(r2)
  107d90:	00800474 	movhi	r2,17
  107d94:	10bc4804 	addi	r2,r2,-3808
  107d98:	1000000d 	sth	zero,0(r2)
  107d9c:	28000c45 	stb	zero,49(r5)
  107da0:	28000315 	stw	zero,12(r5)
  107da4:	01000044 	movi	r4,1
  107da8:	01064680 	call	106468 <OSSemCreate>
  107dac:	04000474 	movhi	r16,17
  107db0:	843c5904 	addi	r16,r16,-3740
  107db4:	0009883a 	mov	r4,zero
  107db8:	80800015 	stw	r2,0(r16)
  107dbc:	01064680 	call	106468 <OSSemCreate>
  107dc0:	81000017 	ldw	r4,0(r16)
  107dc4:	04000474 	movhi	r16,17
  107dc8:	843c4504 	addi	r16,r16,-3820
  107dcc:	80800015 	stw	r2,0(r16)
  107dd0:	d9800504 	addi	r6,sp,20
  107dd4:	01400474 	movhi	r5,17
  107dd8:	296e5f04 	addi	r5,r5,-18052
  107ddc:	01049280 	call	104928 <OSEventNameSet>
  107de0:	81000017 	ldw	r4,0(r16)
  107de4:	d9800504 	addi	r6,sp,20
  107de8:	01400474 	movhi	r5,17
  107dec:	296e6404 	addi	r5,r5,-18032
  107df0:	01049280 	call	104928 <OSEventNameSet>
  107df4:	00bfff54 	movui	r2,65533
  107df8:	00c00474 	movhi	r3,17
  107dfc:	18db9f04 	addi	r3,r3,28284
  107e00:	d8800015 	stw	r2,0(sp)
  107e04:	00808004 	movi	r2,512
  107e08:	1981ff04 	addi	r6,r3,2044
  107e0c:	000f883a 	mov	r7,zero
  107e10:	d8800215 	stw	r2,8(sp)
  107e14:	01000434 	movhi	r4,16
  107e18:	211fa504 	addi	r4,r4,32404
  107e1c:	000b883a 	mov	r5,zero
  107e20:	008000c4 	movi	r2,3
  107e24:	d8c00115 	stw	r3,4(sp)
  107e28:	d8800415 	stw	r2,16(sp)
  107e2c:	d8000315 	stw	zero,12(sp)
  107e30:	0106e400 	call	106e40 <OSTaskCreateExt>
  107e34:	0009883a 	mov	r4,zero
  107e38:	01400474 	movhi	r5,17
  107e3c:	296e6904 	addi	r5,r5,-18012
  107e40:	d9800544 	addi	r6,sp,21
  107e44:	01073c00 	call	1073c0 <OSTaskNameSet>
  107e48:	dfc00717 	ldw	ra,28(sp)
  107e4c:	dc000617 	ldw	r16,24(sp)
  107e50:	dec00804 	addi	sp,sp,32
  107e54:	f800283a 	ret

00107e58 <OSTmr_Lock>:
  107e58:	00800474 	movhi	r2,17
  107e5c:	10bc5904 	addi	r2,r2,-3740
  107e60:	11000017 	ldw	r4,0(r2)
  107e64:	defffe04 	addi	sp,sp,-8
  107e68:	000b883a 	mov	r5,zero
  107e6c:	d80d883a 	mov	r6,sp
  107e70:	dfc00115 	stw	ra,4(sp)
  107e74:	01066480 	call	106648 <OSSemPend>
  107e78:	dfc00117 	ldw	ra,4(sp)
  107e7c:	dec00204 	addi	sp,sp,8
  107e80:	f800283a 	ret

00107e84 <OSTmr_Unlock>:
  107e84:	00800474 	movhi	r2,17
  107e88:	10bc5904 	addi	r2,r2,-3740
  107e8c:	11000017 	ldw	r4,0(r2)
  107e90:	010689c1 	jmpi	10689c <OSSemPost>

00107e94 <OSTmr_Task>:
  107e94:	defffc04 	addi	sp,sp,-16
  107e98:	dfc00315 	stw	ra,12(sp)
  107e9c:	dc400215 	stw	r17,8(sp)
  107ea0:	dc000115 	stw	r16,4(sp)
  107ea4:	00800474 	movhi	r2,17
  107ea8:	10bc4504 	addi	r2,r2,-3820
  107eac:	11000017 	ldw	r4,0(r2)
  107eb0:	000b883a 	mov	r5,zero
  107eb4:	d80d883a 	mov	r6,sp
  107eb8:	01066480 	call	106648 <OSSemPend>
  107ebc:	0107e580 	call	107e58 <OSTmr_Lock>
  107ec0:	01000474 	movhi	r4,17
  107ec4:	213c5704 	addi	r4,r4,-3748
  107ec8:	20800017 	ldw	r2,0(r4)
  107ecc:	10800044 	addi	r2,r2,1
  107ed0:	10c0004c 	andi	r3,r2,1
  107ed4:	180690fa 	slli	r3,r3,3
  107ed8:	20800015 	stw	r2,0(r4)
  107edc:	00800474 	movhi	r2,17
  107ee0:	10946b04 	addi	r2,r2,20908
  107ee4:	1887883a 	add	r3,r3,r2
  107ee8:	1c000017 	ldw	r16,0(r3)
  107eec:	00001606 	br	107f48 <OSTmr_Task+0xb4>
  107ef0:	00800474 	movhi	r2,17
  107ef4:	10bc5704 	addi	r2,r2,-3748
  107ef8:	10c00017 	ldw	r3,0(r2)
  107efc:	80800517 	ldw	r2,20(r16)
  107f00:	84400317 	ldw	r17,12(r16)
  107f04:	18800f1e 	bne	r3,r2,107f44 <OSTmr_Task+0xb0>
  107f08:	80800117 	ldw	r2,4(r16)
  107f0c:	8009883a 	mov	r4,r16
  107f10:	10000226 	beq	r2,zero,107f1c <OSTmr_Task+0x88>
  107f14:	81400217 	ldw	r5,8(r16)
  107f18:	103ee83a 	callr	r2
  107f1c:	8009883a 	mov	r4,r16
  107f20:	0107c940 	call	107c94 <OSTmr_Unlink>
  107f24:	80800c03 	ldbu	r2,48(r16)
  107f28:	00c00084 	movi	r3,2
  107f2c:	01400044 	movi	r5,1
  107f30:	8009883a 	mov	r4,r16
  107f34:	10c0021e 	bne	r2,r3,107f40 <OSTmr_Task+0xac>
  107f38:	0107bf40 	call	107bf4 <OSTmr_Link>
  107f3c:	00000106 	br	107f44 <OSTmr_Task+0xb0>
  107f40:	80c00c45 	stb	r3,49(r16)
  107f44:	8821883a 	mov	r16,r17
  107f48:	803fe91e 	bne	r16,zero,107ef0 <OSTmr_Task+0x5c>
  107f4c:	0107e840 	call	107e84 <OSTmr_Unlock>
  107f50:	003fd406 	br	107ea4 <OSTmr_Task+0x10>

00107f54 <OSTmrStop>:
  107f54:	defffa04 	addi	sp,sp,-24
  107f58:	dd000415 	stw	r20,16(sp)
  107f5c:	dcc00315 	stw	r19,12(sp)
  107f60:	dc800215 	stw	r18,8(sp)
  107f64:	dc000015 	stw	r16,0(sp)
  107f68:	dfc00515 	stw	ra,20(sp)
  107f6c:	dc400115 	stw	r17,4(sp)
  107f70:	3825883a 	mov	r18,r7
  107f74:	2021883a 	mov	r16,r4
  107f78:	3029883a 	mov	r20,r6
  107f7c:	2827883a 	mov	r19,r5
  107f80:	38004126 	beq	r7,zero,108088 <OSTmrStop+0x134>
  107f84:	2000031e 	bne	r4,zero,107f94 <OSTmrStop+0x40>
  107f88:	0007883a 	mov	r3,zero
  107f8c:	00bfe284 	movi	r2,-118
  107f90:	00003806 	br	108074 <OSTmrStop+0x120>
  107f94:	20c00003 	ldbu	r3,0(r4)
  107f98:	00801904 	movi	r2,100
  107f9c:	18800326 	beq	r3,r2,107fac <OSTmrStop+0x58>
  107fa0:	0007883a 	mov	r3,zero
  107fa4:	00bfe244 	movi	r2,-119
  107fa8:	00003206 	br	108074 <OSTmrStop+0x120>
  107fac:	00800474 	movhi	r2,17
  107fb0:	10bc5504 	addi	r2,r2,-3756
  107fb4:	10800003 	ldbu	r2,0(r2)
  107fb8:	10000326 	beq	r2,zero,107fc8 <OSTmrStop+0x74>
  107fbc:	0007883a 	mov	r3,zero
  107fc0:	00bfe2c4 	movi	r2,-117
  107fc4:	00002b06 	br	108074 <OSTmrStop+0x120>
  107fc8:	0107e580 	call	107e58 <OSTmr_Lock>
  107fcc:	84400c43 	ldbu	r17,49(r16)
  107fd0:	00800084 	movi	r2,2
  107fd4:	14400336 	bltu	r2,r17,107fe4 <OSTmrStop+0x90>
  107fd8:	04000044 	movi	r16,1
  107fdc:	8c001e2e 	bgeu	r17,r16,108058 <OSTmrStop+0x104>
  107fe0:	00002106 	br	108068 <OSTmrStop+0x114>
  107fe4:	008000c4 	movi	r2,3
  107fe8:	8880241e 	bne	r17,r2,10807c <OSTmrStop+0x128>
  107fec:	8009883a 	mov	r4,r16
  107ff0:	0107c940 	call	107c94 <OSTmr_Unlink>
  107ff4:	99403fcc 	andi	r5,r19,255
  107ff8:	90000005 	stb	zero,0(r18)
  107ffc:	2c400426 	beq	r5,r17,108010 <OSTmrStop+0xbc>
  108000:	00800104 	movi	r2,4
  108004:	28800726 	beq	r5,r2,108024 <OSTmrStop+0xd0>
  108008:	28001026 	beq	r5,zero,10804c <OSTmrStop+0xf8>
  10800c:	00000d06 	br	108044 <OSTmrStop+0xf0>
  108010:	80800117 	ldw	r2,4(r16)
  108014:	10000926 	beq	r2,zero,10803c <OSTmrStop+0xe8>
  108018:	81400217 	ldw	r5,8(r16)
  10801c:	8009883a 	mov	r4,r16
  108020:	00000406 	br	108034 <OSTmrStop+0xe0>
  108024:	80800117 	ldw	r2,4(r16)
  108028:	10000426 	beq	r2,zero,10803c <OSTmrStop+0xe8>
  10802c:	8009883a 	mov	r4,r16
  108030:	a00b883a 	mov	r5,r20
  108034:	103ee83a 	callr	r2
  108038:	00000406 	br	10804c <OSTmrStop+0xf8>
  10803c:	00bfe3c4 	movi	r2,-113
  108040:	00000106 	br	108048 <OSTmrStop+0xf4>
  108044:	00bfe104 	movi	r2,-124
  108048:	90800005 	stb	r2,0(r18)
  10804c:	0107e840 	call	107e84 <OSTmr_Unlock>
  108050:	00c00044 	movi	r3,1
  108054:	00000d06 	br	10808c <OSTmrStop+0x138>
  108058:	0107e840 	call	107e84 <OSTmr_Unlock>
  10805c:	8007883a 	mov	r3,r16
  108060:	00bfe384 	movi	r2,-114
  108064:	00000306 	br	108074 <OSTmrStop+0x120>
  108068:	0107e840 	call	107e84 <OSTmr_Unlock>
  10806c:	0007883a 	mov	r3,zero
  108070:	00bfe1c4 	movi	r2,-121
  108074:	90800005 	stb	r2,0(r18)
  108078:	00000406 	br	10808c <OSTmrStop+0x138>
  10807c:	0107e840 	call	107e84 <OSTmr_Unlock>
  108080:	00bfe344 	movi	r2,-115
  108084:	90800005 	stb	r2,0(r18)
  108088:	0007883a 	mov	r3,zero
  10808c:	1805883a 	mov	r2,r3
  108090:	dfc00517 	ldw	ra,20(sp)
  108094:	dd000417 	ldw	r20,16(sp)
  108098:	dcc00317 	ldw	r19,12(sp)
  10809c:	dc800217 	ldw	r18,8(sp)
  1080a0:	dc400117 	ldw	r17,4(sp)
  1080a4:	dc000017 	ldw	r16,0(sp)
  1080a8:	dec00604 	addi	sp,sp,24
  1080ac:	f800283a 	ret

001080b0 <OSTmrStart>:
  1080b0:	defffc04 	addi	sp,sp,-16
  1080b4:	dc400115 	stw	r17,4(sp)
  1080b8:	dc000015 	stw	r16,0(sp)
  1080bc:	dfc00315 	stw	ra,12(sp)
  1080c0:	dc800215 	stw	r18,8(sp)
  1080c4:	2823883a 	mov	r17,r5
  1080c8:	2021883a 	mov	r16,r4
  1080cc:	28003126 	beq	r5,zero,108194 <OSTmrStart+0xe4>
  1080d0:	2000031e 	bne	r4,zero,1080e0 <OSTmrStart+0x30>
  1080d4:	0007883a 	mov	r3,zero
  1080d8:	00bfe284 	movi	r2,-118
  1080dc:	00002806 	br	108180 <OSTmrStart+0xd0>
  1080e0:	20c00003 	ldbu	r3,0(r4)
  1080e4:	00801904 	movi	r2,100
  1080e8:	18800326 	beq	r3,r2,1080f8 <OSTmrStart+0x48>
  1080ec:	0007883a 	mov	r3,zero
  1080f0:	00bfe244 	movi	r2,-119
  1080f4:	00002206 	br	108180 <OSTmrStart+0xd0>
  1080f8:	00800474 	movhi	r2,17
  1080fc:	10bc5504 	addi	r2,r2,-3756
  108100:	10800003 	ldbu	r2,0(r2)
  108104:	10000326 	beq	r2,zero,108114 <OSTmrStart+0x64>
  108108:	0007883a 	mov	r3,zero
  10810c:	00bfe2c4 	movi	r2,-117
  108110:	00001b06 	br	108180 <OSTmrStart+0xd0>
  108114:	0107e580 	call	107e58 <OSTmr_Lock>
  108118:	80c00c43 	ldbu	r3,49(r16)
  10811c:	00800084 	movi	r2,2
  108120:	10c00336 	bltu	r2,r3,108130 <OSTmrStart+0x80>
  108124:	04800044 	movi	r18,1
  108128:	1c800b2e 	bgeu	r3,r18,108158 <OSTmrStart+0xa8>
  10812c:	00001106 	br	108174 <OSTmrStart+0xc4>
  108130:	008000c4 	movi	r2,3
  108134:	1880141e 	bne	r3,r2,108188 <OSTmrStart+0xd8>
  108138:	8009883a 	mov	r4,r16
  10813c:	0107c940 	call	107c94 <OSTmr_Unlink>
  108140:	000b883a 	mov	r5,zero
  108144:	8009883a 	mov	r4,r16
  108148:	0107bf40 	call	107bf4 <OSTmr_Link>
  10814c:	0107e840 	call	107e84 <OSTmr_Unlock>
  108150:	00c00044 	movi	r3,1
  108154:	00000506 	br	10816c <OSTmrStart+0xbc>
  108158:	8009883a 	mov	r4,r16
  10815c:	000b883a 	mov	r5,zero
  108160:	0107bf40 	call	107bf4 <OSTmr_Link>
  108164:	0107e840 	call	107e84 <OSTmr_Unlock>
  108168:	9007883a 	mov	r3,r18
  10816c:	88000005 	stb	zero,0(r17)
  108170:	00000906 	br	108198 <OSTmrStart+0xe8>
  108174:	0107e840 	call	107e84 <OSTmr_Unlock>
  108178:	0007883a 	mov	r3,zero
  10817c:	00bfe1c4 	movi	r2,-121
  108180:	88800005 	stb	r2,0(r17)
  108184:	00000406 	br	108198 <OSTmrStart+0xe8>
  108188:	0107e840 	call	107e84 <OSTmr_Unlock>
  10818c:	00bfe344 	movi	r2,-115
  108190:	88800005 	stb	r2,0(r17)
  108194:	0007883a 	mov	r3,zero
  108198:	1805883a 	mov	r2,r3
  10819c:	dfc00317 	ldw	ra,12(sp)
  1081a0:	dc800217 	ldw	r18,8(sp)
  1081a4:	dc400117 	ldw	r17,4(sp)
  1081a8:	dc000017 	ldw	r16,0(sp)
  1081ac:	dec00404 	addi	sp,sp,16
  1081b0:	f800283a 	ret

001081b4 <OSTmrStateGet>:
  1081b4:	defffd04 	addi	sp,sp,-12
  1081b8:	dc000115 	stw	r16,4(sp)
  1081bc:	dfc00215 	stw	ra,8(sp)
  1081c0:	2021883a 	mov	r16,r4
  1081c4:	2800021e 	bne	r5,zero,1081d0 <OSTmrStateGet+0x1c>
  1081c8:	0021883a 	mov	r16,zero
  1081cc:	00001e06 	br	108248 <OSTmrStateGet+0x94>
  1081d0:	2000021e 	bne	r4,zero,1081dc <OSTmrStateGet+0x28>
  1081d4:	00bfe284 	movi	r2,-118
  1081d8:	00000506 	br	1081f0 <OSTmrStateGet+0x3c>
  1081dc:	20c00003 	ldbu	r3,0(r4)
  1081e0:	00801904 	movi	r2,100
  1081e4:	18800426 	beq	r3,r2,1081f8 <OSTmrStateGet+0x44>
  1081e8:	0021883a 	mov	r16,zero
  1081ec:	00bfe244 	movi	r2,-119
  1081f0:	28800005 	stb	r2,0(r5)
  1081f4:	00001406 	br	108248 <OSTmrStateGet+0x94>
  1081f8:	00800474 	movhi	r2,17
  1081fc:	10bc5504 	addi	r2,r2,-3756
  108200:	10800003 	ldbu	r2,0(r2)
  108204:	10000326 	beq	r2,zero,108214 <OSTmrStateGet+0x60>
  108208:	0021883a 	mov	r16,zero
  10820c:	00bfe2c4 	movi	r2,-117
  108210:	003ff706 	br	1081f0 <OSTmrStateGet+0x3c>
  108214:	d9400015 	stw	r5,0(sp)
  108218:	0107e580 	call	107e58 <OSTmr_Lock>
  10821c:	81000c43 	ldbu	r4,49(r16)
  108220:	008000c4 	movi	r2,3
  108224:	d9400017 	ldw	r5,0(sp)
  108228:	20c03fcc 	andi	r3,r4,255
  10822c:	10c00236 	bltu	r2,r3,108238 <OSTmrStateGet+0x84>
  108230:	28000005 	stb	zero,0(r5)
  108234:	00000206 	br	108240 <OSTmrStateGet+0x8c>
  108238:	00bfe344 	movi	r2,-115
  10823c:	28800005 	stb	r2,0(r5)
  108240:	24003fcc 	andi	r16,r4,255
  108244:	0107e840 	call	107e84 <OSTmr_Unlock>
  108248:	8005883a 	mov	r2,r16
  10824c:	dfc00217 	ldw	ra,8(sp)
  108250:	dc000117 	ldw	r16,4(sp)
  108254:	dec00304 	addi	sp,sp,12
  108258:	f800283a 	ret

0010825c <OSTmrRemainGet>:
  10825c:	defffc04 	addi	sp,sp,-16
  108260:	dc000115 	stw	r16,4(sp)
  108264:	dfc00315 	stw	ra,12(sp)
  108268:	dc400215 	stw	r17,8(sp)
  10826c:	2821883a 	mov	r16,r5
  108270:	28003926 	beq	r5,zero,108358 <OSTmrRemainGet+0xfc>
  108274:	2000031e 	bne	r4,zero,108284 <OSTmrRemainGet+0x28>
  108278:	0023883a 	mov	r17,zero
  10827c:	00bfe284 	movi	r2,-118
  108280:	00003006 	br	108344 <OSTmrRemainGet+0xe8>
  108284:	20c00003 	ldbu	r3,0(r4)
  108288:	00801904 	movi	r2,100
  10828c:	18800326 	beq	r3,r2,10829c <OSTmrRemainGet+0x40>
  108290:	0023883a 	mov	r17,zero
  108294:	00bfe244 	movi	r2,-119
  108298:	00002a06 	br	108344 <OSTmrRemainGet+0xe8>
  10829c:	00800474 	movhi	r2,17
  1082a0:	10bc5504 	addi	r2,r2,-3756
  1082a4:	10800003 	ldbu	r2,0(r2)
  1082a8:	10000326 	beq	r2,zero,1082b8 <OSTmrRemainGet+0x5c>
  1082ac:	0023883a 	mov	r17,zero
  1082b0:	00bfe2c4 	movi	r2,-117
  1082b4:	00002306 	br	108344 <OSTmrRemainGet+0xe8>
  1082b8:	d9000015 	stw	r4,0(sp)
  1082bc:	0107e580 	call	107e58 <OSTmr_Lock>
  1082c0:	d9000017 	ldw	r4,0(sp)
  1082c4:	00800044 	movi	r2,1
  1082c8:	20c00c43 	ldbu	r3,49(r4)
  1082cc:	18800b26 	beq	r3,r2,1082fc <OSTmrRemainGet+0xa0>
  1082d0:	18801936 	bltu	r3,r2,108338 <OSTmrRemainGet+0xdc>
  1082d4:	00800084 	movi	r2,2
  1082d8:	18801326 	beq	r3,r2,108328 <OSTmrRemainGet+0xcc>
  1082dc:	008000c4 	movi	r2,3
  1082e0:	18801a1e 	bne	r3,r2,10834c <OSTmrRemainGet+0xf0>
  1082e4:	00c00474 	movhi	r3,17
  1082e8:	18fc5704 	addi	r3,r3,-3748
  1082ec:	20800517 	ldw	r2,20(r4)
  1082f0:	18c00017 	ldw	r3,0(r3)
  1082f4:	10e3c83a 	sub	r17,r2,r3
  1082f8:	00000906 	br	108320 <OSTmrRemainGet+0xc4>
  1082fc:	20c00c03 	ldbu	r3,48(r4)
  108300:	00800084 	movi	r2,2
  108304:	21400617 	ldw	r5,24(r4)
  108308:	1880041e 	bne	r3,r2,10831c <OSTmrRemainGet+0xc0>
  10830c:	2823883a 	mov	r17,r5
  108310:	2800031e 	bne	r5,zero,108320 <OSTmrRemainGet+0xc4>
  108314:	24400717 	ldw	r17,28(r4)
  108318:	00000106 	br	108320 <OSTmrRemainGet+0xc4>
  10831c:	2823883a 	mov	r17,r5
  108320:	0107e840 	call	107e84 <OSTmr_Unlock>
  108324:	00000206 	br	108330 <OSTmrRemainGet+0xd4>
  108328:	0107e840 	call	107e84 <OSTmr_Unlock>
  10832c:	0023883a 	mov	r17,zero
  108330:	80000005 	stb	zero,0(r16)
  108334:	00000906 	br	10835c <OSTmrRemainGet+0x100>
  108338:	0107e840 	call	107e84 <OSTmr_Unlock>
  10833c:	0023883a 	mov	r17,zero
  108340:	00bfe1c4 	movi	r2,-121
  108344:	80800005 	stb	r2,0(r16)
  108348:	00000406 	br	10835c <OSTmrRemainGet+0x100>
  10834c:	0107e840 	call	107e84 <OSTmr_Unlock>
  108350:	00bfe344 	movi	r2,-115
  108354:	80800005 	stb	r2,0(r16)
  108358:	0023883a 	mov	r17,zero
  10835c:	8805883a 	mov	r2,r17
  108360:	dfc00317 	ldw	ra,12(sp)
  108364:	dc400217 	ldw	r17,8(sp)
  108368:	dc000117 	ldw	r16,4(sp)
  10836c:	dec00404 	addi	sp,sp,16
  108370:	f800283a 	ret

00108374 <OSTmrDel>:
  108374:	defffc04 	addi	sp,sp,-16
  108378:	dc400115 	stw	r17,4(sp)
  10837c:	dc000015 	stw	r16,0(sp)
  108380:	dfc00315 	stw	ra,12(sp)
  108384:	dc800215 	stw	r18,8(sp)
  108388:	2823883a 	mov	r17,r5
  10838c:	2021883a 	mov	r16,r4
  108390:	28002f26 	beq	r5,zero,108450 <OSTmrDel+0xdc>
  108394:	2000031e 	bne	r4,zero,1083a4 <OSTmrDel+0x30>
  108398:	0007883a 	mov	r3,zero
  10839c:	00bfe284 	movi	r2,-118
  1083a0:	00002606 	br	10843c <OSTmrDel+0xc8>
  1083a4:	20c00003 	ldbu	r3,0(r4)
  1083a8:	00801904 	movi	r2,100
  1083ac:	18800326 	beq	r3,r2,1083bc <OSTmrDel+0x48>
  1083b0:	0007883a 	mov	r3,zero
  1083b4:	00bfe244 	movi	r2,-119
  1083b8:	00002006 	br	10843c <OSTmrDel+0xc8>
  1083bc:	00800474 	movhi	r2,17
  1083c0:	10bc5504 	addi	r2,r2,-3756
  1083c4:	10800003 	ldbu	r2,0(r2)
  1083c8:	10000326 	beq	r2,zero,1083d8 <OSTmrDel+0x64>
  1083cc:	0007883a 	mov	r3,zero
  1083d0:	00bfe2c4 	movi	r2,-117
  1083d4:	00001906 	br	10843c <OSTmrDel+0xc8>
  1083d8:	0107e580 	call	107e58 <OSTmr_Lock>
  1083dc:	80c00c43 	ldbu	r3,49(r16)
  1083e0:	00800084 	movi	r2,2
  1083e4:	10c00336 	bltu	r2,r3,1083f4 <OSTmrDel+0x80>
  1083e8:	04800044 	movi	r18,1
  1083ec:	1c800a2e 	bgeu	r3,r18,108418 <OSTmrDel+0xa4>
  1083f0:	00000f06 	br	108430 <OSTmrDel+0xbc>
  1083f4:	008000c4 	movi	r2,3
  1083f8:	1880121e 	bne	r3,r2,108444 <OSTmrDel+0xd0>
  1083fc:	8009883a 	mov	r4,r16
  108400:	0107c940 	call	107c94 <OSTmr_Unlink>
  108404:	8009883a 	mov	r4,r16
  108408:	0107b8c0 	call	107b8c <OSTmr_Free>
  10840c:	0107e840 	call	107e84 <OSTmr_Unlock>
  108410:	00c00044 	movi	r3,1
  108414:	00000406 	br	108428 <OSTmrDel+0xb4>
  108418:	8009883a 	mov	r4,r16
  10841c:	0107b8c0 	call	107b8c <OSTmr_Free>
  108420:	0107e840 	call	107e84 <OSTmr_Unlock>
  108424:	9007883a 	mov	r3,r18
  108428:	88000005 	stb	zero,0(r17)
  10842c:	00000906 	br	108454 <OSTmrDel+0xe0>
  108430:	0107e840 	call	107e84 <OSTmr_Unlock>
  108434:	0007883a 	mov	r3,zero
  108438:	00bfe1c4 	movi	r2,-121
  10843c:	88800005 	stb	r2,0(r17)
  108440:	00000406 	br	108454 <OSTmrDel+0xe0>
  108444:	0107e840 	call	107e84 <OSTmr_Unlock>
  108448:	00bfe344 	movi	r2,-115
  10844c:	88800005 	stb	r2,0(r17)
  108450:	0007883a 	mov	r3,zero
  108454:	1805883a 	mov	r2,r3
  108458:	dfc00317 	ldw	ra,12(sp)
  10845c:	dc800217 	ldw	r18,8(sp)
  108460:	dc400117 	ldw	r17,4(sp)
  108464:	dc000017 	ldw	r16,0(sp)
  108468:	dec00404 	addi	sp,sp,16
  10846c:	f800283a 	ret

00108470 <OSTmrSignal>:
  108470:	00800474 	movhi	r2,17
  108474:	10bc4504 	addi	r2,r2,-3820
  108478:	11000017 	ldw	r4,0(r2)
  10847c:	deffff04 	addi	sp,sp,-4
  108480:	dfc00015 	stw	ra,0(sp)
  108484:	010689c0 	call	10689c <OSSemPost>
  108488:	10803fcc 	andi	r2,r2,255
  10848c:	dfc00017 	ldw	ra,0(sp)
  108490:	dec00104 	addi	sp,sp,4
  108494:	f800283a 	ret

00108498 <OSTmrNameGet>:
  108498:	defffc04 	addi	sp,sp,-16
  10849c:	dc800215 	stw	r18,8(sp)
  1084a0:	dc400115 	stw	r17,4(sp)
  1084a4:	dc000015 	stw	r16,0(sp)
  1084a8:	dfc00315 	stw	ra,12(sp)
  1084ac:	3023883a 	mov	r17,r6
  1084b0:	2021883a 	mov	r16,r4
  1084b4:	2825883a 	mov	r18,r5
  1084b8:	30002a26 	beq	r6,zero,108564 <OSTmrNameGet+0xcc>
  1084bc:	2800031e 	bne	r5,zero,1084cc <OSTmrNameGet+0x34>
  1084c0:	0007883a 	mov	r3,zero
  1084c4:	00bfe204 	movi	r2,-120
  1084c8:	00002106 	br	108550 <OSTmrNameGet+0xb8>
  1084cc:	2000031e 	bne	r4,zero,1084dc <OSTmrNameGet+0x44>
  1084d0:	0007883a 	mov	r3,zero
  1084d4:	00bfe284 	movi	r2,-118
  1084d8:	00001d06 	br	108550 <OSTmrNameGet+0xb8>
  1084dc:	20c00003 	ldbu	r3,0(r4)
  1084e0:	00801904 	movi	r2,100
  1084e4:	18800326 	beq	r3,r2,1084f4 <OSTmrNameGet+0x5c>
  1084e8:	0007883a 	mov	r3,zero
  1084ec:	00bfe244 	movi	r2,-119
  1084f0:	00001706 	br	108550 <OSTmrNameGet+0xb8>
  1084f4:	00800474 	movhi	r2,17
  1084f8:	10bc5504 	addi	r2,r2,-3756
  1084fc:	10800003 	ldbu	r2,0(r2)
  108500:	10000326 	beq	r2,zero,108510 <OSTmrNameGet+0x78>
  108504:	0007883a 	mov	r3,zero
  108508:	00800444 	movi	r2,17
  10850c:	00001006 	br	108550 <OSTmrNameGet+0xb8>
  108510:	0107e580 	call	107e58 <OSTmr_Lock>
  108514:	80c00c43 	ldbu	r3,49(r16)
  108518:	18000a26 	beq	r3,zero,108544 <OSTmrNameGet+0xac>
  10851c:	008000c4 	movi	r2,3
  108520:	10c00d36 	bltu	r2,r3,108558 <OSTmrNameGet+0xc0>
  108524:	81400804 	addi	r5,r16,32
  108528:	9009883a 	mov	r4,r18
  10852c:	0103bf40 	call	103bf4 <OS_StrCopy>
  108530:	1021883a 	mov	r16,r2
  108534:	0107e840 	call	107e84 <OSTmr_Unlock>
  108538:	80c03fcc 	andi	r3,r16,255
  10853c:	88000005 	stb	zero,0(r17)
  108540:	00000906 	br	108568 <OSTmrNameGet+0xd0>
  108544:	0107e840 	call	107e84 <OSTmr_Unlock>
  108548:	0007883a 	mov	r3,zero
  10854c:	00bfe1c4 	movi	r2,-121
  108550:	88800005 	stb	r2,0(r17)
  108554:	00000406 	br	108568 <OSTmrNameGet+0xd0>
  108558:	0107e840 	call	107e84 <OSTmr_Unlock>
  10855c:	00bfe344 	movi	r2,-115
  108560:	88800005 	stb	r2,0(r17)
  108564:	0007883a 	mov	r3,zero
  108568:	1805883a 	mov	r2,r3
  10856c:	dfc00317 	ldw	ra,12(sp)
  108570:	dc800217 	ldw	r18,8(sp)
  108574:	dc400117 	ldw	r17,4(sp)
  108578:	dc000017 	ldw	r16,0(sp)
  10857c:	dec00404 	addi	sp,sp,16
  108580:	f800283a 	ret

00108584 <OSTmrCreate>:
  108584:	defff804 	addi	sp,sp,-32
  108588:	dc000015 	stw	r16,0(sp)
  10858c:	dc000a17 	ldw	r16,40(sp)
  108590:	dd400515 	stw	r21,20(sp)
  108594:	dd000415 	stw	r20,16(sp)
  108598:	dcc00315 	stw	r19,12(sp)
  10859c:	dc800215 	stw	r18,8(sp)
  1085a0:	dc400115 	stw	r17,4(sp)
  1085a4:	dfc00715 	stw	ra,28(sp)
  1085a8:	dd800615 	stw	r22,24(sp)
  1085ac:	2027883a 	mov	r19,r4
  1085b0:	2829883a 	mov	r20,r5
  1085b4:	382b883a 	mov	r21,r7
  1085b8:	3025883a 	mov	r18,r6
  1085bc:	dc400917 	ldw	r17,36(sp)
  1085c0:	8000021e 	bne	r16,zero,1085cc <OSTmrCreate+0x48>
  1085c4:	002d883a 	mov	r22,zero
  1085c8:	00004a06 	br	1086f4 <OSTmrCreate+0x170>
  1085cc:	30c03fcc 	andi	r3,r6,255
  1085d0:	00800044 	movi	r2,1
  1085d4:	18800626 	beq	r3,r2,1085f0 <OSTmrCreate+0x6c>
  1085d8:	00800084 	movi	r2,2
  1085dc:	1880091e 	bne	r3,r2,108604 <OSTmrCreate+0x80>
  1085e0:	28000b1e 	bne	r5,zero,108610 <OSTmrCreate+0x8c>
  1085e4:	002d883a 	mov	r22,zero
  1085e8:	00bfe0c4 	movi	r2,-125
  1085ec:	00000306 	br	1085fc <OSTmrCreate+0x78>
  1085f0:	2000071e 	bne	r4,zero,108610 <OSTmrCreate+0x8c>
  1085f4:	002d883a 	mov	r22,zero
  1085f8:	00bfe084 	movi	r2,-126
  1085fc:	80800005 	stb	r2,0(r16)
  108600:	00003c06 	br	1086f4 <OSTmrCreate+0x170>
  108604:	002d883a 	mov	r22,zero
  108608:	00bfe104 	movi	r2,-124
  10860c:	003ffb06 	br	1085fc <OSTmrCreate+0x78>
  108610:	00800474 	movhi	r2,17
  108614:	10bc5504 	addi	r2,r2,-3756
  108618:	10800003 	ldbu	r2,0(r2)
  10861c:	10000326 	beq	r2,zero,10862c <OSTmrCreate+0xa8>
  108620:	002d883a 	mov	r22,zero
  108624:	00bfe2c4 	movi	r2,-117
  108628:	003ff406 	br	1085fc <OSTmrCreate+0x78>
  10862c:	0107e580 	call	107e58 <OSTmr_Lock>
  108630:	01c00474 	movhi	r7,17
  108634:	39fc4304 	addi	r7,r7,-3828
  108638:	3d800017 	ldw	r22,0(r7)
  10863c:	b0001826 	beq	r22,zero,1086a0 <OSTmrCreate+0x11c>
  108640:	01400474 	movhi	r5,17
  108644:	297c4804 	addi	r5,r5,-3808
  108648:	01800474 	movhi	r6,17
  10864c:	31bc4c04 	addi	r6,r6,-3792
  108650:	2880000b 	ldhu	r2,0(r5)
  108654:	30c0000b 	ldhu	r3,0(r6)
  108658:	b1000317 	ldw	r4,12(r22)
  10865c:	10800044 	addi	r2,r2,1
  108660:	18ffffc4 	addi	r3,r3,-1
  108664:	2880000d 	sth	r2,0(r5)
  108668:	39000015 	stw	r4,0(r7)
  10866c:	30c0000d 	sth	r3,0(r6)
  108670:	00800044 	movi	r2,1
  108674:	b0800c45 	stb	r2,49(r22)
  108678:	b4800c05 	stb	r18,48(r22)
  10867c:	d8800817 	ldw	r2,32(sp)
  108680:	b4c00615 	stw	r19,24(r22)
  108684:	b5000715 	stw	r20,28(r22)
  108688:	b5400115 	stw	r21,4(r22)
  10868c:	b0800215 	stw	r2,8(r22)
  108690:	b0000315 	stw	zero,12(r22)
  108694:	b0000415 	stw	zero,16(r22)
  108698:	8800041e 	bne	r17,zero,1086ac <OSTmrCreate+0x128>
  10869c:	00001306 	br	1086ec <OSTmrCreate+0x168>
  1086a0:	0107e840 	call	107e84 <OSTmr_Unlock>
  1086a4:	00bfe184 	movi	r2,-122
  1086a8:	003fd406 	br	1085fc <OSTmrCreate+0x78>
  1086ac:	8809883a 	mov	r4,r17
  1086b0:	0103c200 	call	103c20 <OS_StrLen>
  1086b4:	10803fcc 	andi	r2,r2,255
  1086b8:	00c003c4 	movi	r3,15
  1086bc:	18800436 	bltu	r3,r2,1086d0 <OSTmrCreate+0x14c>
  1086c0:	880b883a 	mov	r5,r17
  1086c4:	b1000804 	addi	r4,r22,32
  1086c8:	0103bf40 	call	103bf4 <OS_StrCopy>
  1086cc:	00000706 	br	1086ec <OSTmrCreate+0x168>
  1086d0:	008008c4 	movi	r2,35
  1086d4:	b0800805 	stb	r2,32(r22)
  1086d8:	b0000845 	stb	zero,33(r22)
  1086dc:	00bfe304 	movi	r2,-116
  1086e0:	80800005 	stb	r2,0(r16)
  1086e4:	0107e840 	call	107e84 <OSTmr_Unlock>
  1086e8:	00000206 	br	1086f4 <OSTmrCreate+0x170>
  1086ec:	0107e840 	call	107e84 <OSTmr_Unlock>
  1086f0:	80000005 	stb	zero,0(r16)
  1086f4:	b005883a 	mov	r2,r22
  1086f8:	dfc00717 	ldw	ra,28(sp)
  1086fc:	dd800617 	ldw	r22,24(sp)
  108700:	dd400517 	ldw	r21,20(sp)
  108704:	dd000417 	ldw	r20,16(sp)
  108708:	dcc00317 	ldw	r19,12(sp)
  10870c:	dc800217 	ldw	r18,8(sp)
  108710:	dc400117 	ldw	r17,4(sp)
  108714:	dc000017 	ldw	r16,0(sp)
  108718:	dec00804 	addi	sp,sp,32
  10871c:	f800283a 	ret

00108720 <alt_dev_reg>:
  108720:	01400474 	movhi	r5,17
  108724:	29754e04 	addi	r5,r5,-10952
  108728:	010923c1 	jmpi	10923c <alt_dev_llist_insert>

0010872c <alt_sys_init>:
  10872c:	defffe04 	addi	sp,sp,-8
  108730:	01c0fa04 	movi	r7,1000
  108734:	dc000015 	stw	r16,0(sp)
  108738:	01244014 	movui	r4,37120
  10873c:	04000474 	movhi	r16,17
  108740:	84312c04 	addi	r16,r16,-15184
  108744:	000b883a 	mov	r5,zero
  108748:	018001c4 	movi	r6,7
  10874c:	dfc00115 	stw	ra,4(sp)
  108750:	0108ecc0 	call	108ecc <alt_avalon_timer_sc_init>
  108754:	8009883a 	mov	r4,r16
  108758:	000b883a 	mov	r5,zero
  10875c:	01800144 	movi	r6,5
  108760:	01088b80 	call	1088b8 <altera_avalon_jtag_uart_init>
  108764:	813ff604 	addi	r4,r16,-40
  108768:	01087200 	call	108720 <alt_dev_reg>
  10876c:	00c00044 	movi	r3,1
  108770:	00a40014 	movui	r2,36864
  108774:	10c00035 	stwio	r3,0(r2)
  108778:	04000474 	movhi	r16,17
  10877c:	84353d04 	addi	r16,r16,-11020
  108780:	8009883a 	mov	r4,r16
  108784:	0108fd00 	call	108fd0 <alt_up_character_lcd_init>
  108788:	8009883a 	mov	r4,r16
  10878c:	dfc00117 	ldw	ra,4(sp)
  108790:	dc000017 	ldw	r16,0(sp)
  108794:	dec00204 	addi	sp,sp,8
  108798:	01087201 	jmpi	108720 <alt_dev_reg>

0010879c <alt_irq_init>:
  10879c:	deffff04 	addi	sp,sp,-4
  1087a0:	dfc00015 	stw	ra,0(sp)
  1087a4:	01098180 	call	109818 <altera_nios2_qsys_irq_init>
  1087a8:	00800044 	movi	r2,1
  1087ac:	1001703a 	wrctl	status,r2
  1087b0:	dfc00017 	ldw	ra,0(sp)
  1087b4:	dec00104 	addi	sp,sp,4
  1087b8:	f800283a 	ret

001087bc <altera_avalon_jtag_uart_ioctl_fd>:
  1087bc:	21000017 	ldw	r4,0(r4)
  1087c0:	21000a04 	addi	r4,r4,40
  1087c4:	0108aec1 	jmpi	108aec <altera_avalon_jtag_uart_ioctl>

001087c8 <altera_avalon_jtag_uart_close_fd>:
  1087c8:	20800017 	ldw	r2,0(r4)
  1087cc:	21400217 	ldw	r5,8(r4)
  1087d0:	11000a04 	addi	r4,r2,40
  1087d4:	01087f81 	jmpi	1087f8 <altera_avalon_jtag_uart_close>

001087d8 <altera_avalon_jtag_uart_write_fd>:
  1087d8:	20800017 	ldw	r2,0(r4)
  1087dc:	21c00217 	ldw	r7,8(r4)
  1087e0:	11000a04 	addi	r4,r2,40
  1087e4:	0108d141 	jmpi	108d14 <altera_avalon_jtag_uart_write>

001087e8 <altera_avalon_jtag_uart_read_fd>:
  1087e8:	20800017 	ldw	r2,0(r4)
  1087ec:	21c00217 	ldw	r7,8(r4)
  1087f0:	11000a04 	addi	r4,r2,40
  1087f4:	0108b681 	jmpi	108b68 <altera_avalon_jtag_uart_read>

001087f8 <altera_avalon_jtag_uart_close>:
  1087f8:	21800f17 	ldw	r6,60(r4)
  1087fc:	2950000c 	andi	r5,r5,16384
  108800:	280b003a 	cmpeq	r5,r5,zero
  108804:	00000306 	br	108814 <altera_avalon_jtag_uart_close+0x1c>
  108808:	2800021e 	bne	r5,zero,108814 <altera_avalon_jtag_uart_close+0x1c>
  10880c:	00bffd44 	movi	r2,-11
  108810:	f800283a 	ret
  108814:	20801017 	ldw	r2,64(r4)
  108818:	11800326 	beq	r2,r6,108828 <altera_avalon_jtag_uart_close+0x30>
  10881c:	20c00917 	ldw	r3,36(r4)
  108820:	20800117 	ldw	r2,4(r4)
  108824:	18bff836 	bltu	r3,r2,108808 <altera_avalon_jtag_uart_close+0x10>
  108828:	0005883a 	mov	r2,zero
  10882c:	f800283a 	ret

00108830 <altera_avalon_jtag_uart_timeout>:
  108830:	20c00017 	ldw	r3,0(r4)
  108834:	defffe04 	addi	sp,sp,-8
  108838:	dfc00115 	stw	ra,4(sp)
  10883c:	18800137 	ldwio	r2,4(r3)
  108840:	1081000c 	andi	r2,r2,1024
  108844:	10000526 	beq	r2,zero,10885c <altera_avalon_jtag_uart_timeout+0x2c>
  108848:	20800817 	ldw	r2,32(r4)
  10884c:	10810014 	ori	r2,r2,1024
  108850:	18800135 	stwio	r2,4(r3)
  108854:	20000915 	stw	zero,36(r4)
  108858:	00001106 	br	1088a0 <altera_avalon_jtag_uart_timeout+0x70>
  10885c:	20c00917 	ldw	r3,36(r4)
  108860:	00a00034 	movhi	r2,32768
  108864:	10bfff04 	addi	r2,r2,-4
  108868:	19400044 	addi	r5,r3,1
  10886c:	10c00c36 	bltu	r2,r3,1088a0 <altera_avalon_jtag_uart_timeout+0x70>
  108870:	20800117 	ldw	r2,4(r4)
  108874:	21400915 	stw	r5,36(r4)
  108878:	28800936 	bltu	r5,r2,1088a0 <altera_avalon_jtag_uart_timeout+0x70>
  10887c:	00800474 	movhi	r2,17
  108880:	10bc4604 	addi	r2,r2,-3816
  108884:	10800003 	ldbu	r2,0(r2)
  108888:	01400104 	movi	r5,4
  10888c:	01800044 	movi	r6,1
  108890:	d80f883a 	mov	r7,sp
  108894:	21000c17 	ldw	r4,48(r4)
  108898:	10000126 	beq	r2,zero,1088a0 <altera_avalon_jtag_uart_timeout+0x70>
  10889c:	01054500 	call	105450 <OSFlagPost>
  1088a0:	00800474 	movhi	r2,17
  1088a4:	10bc5e04 	addi	r2,r2,-3720
  1088a8:	10800017 	ldw	r2,0(r2)
  1088ac:	dfc00117 	ldw	ra,4(sp)
  1088b0:	dec00204 	addi	sp,sp,8
  1088b4:	f800283a 	ret

001088b8 <altera_avalon_jtag_uart_init>:
  1088b8:	defff904 	addi	sp,sp,-28
  1088bc:	dcc00515 	stw	r19,20(sp)
  1088c0:	dc800415 	stw	r18,16(sp)
  1088c4:	2027883a 	mov	r19,r4
  1088c8:	2825883a 	mov	r18,r5
  1088cc:	0009883a 	mov	r4,zero
  1088d0:	d9400104 	addi	r5,sp,4
  1088d4:	dfc00615 	stw	ra,24(sp)
  1088d8:	dc400315 	stw	r17,12(sp)
  1088dc:	dc000215 	stw	r16,8(sp)
  1088e0:	3023883a 	mov	r17,r6
  1088e4:	04000044 	movi	r16,1
  1088e8:	0104da80 	call	104da8 <OSFlagCreate>
  1088ec:	98800c15 	stw	r2,48(r19)
  1088f0:	8009883a 	mov	r4,r16
  1088f4:	01064680 	call	106468 <OSSemCreate>
  1088f8:	98800a15 	stw	r2,40(r19)
  1088fc:	8009883a 	mov	r4,r16
  108900:	01064680 	call	106468 <OSSemCreate>
  108904:	98c00017 	ldw	r3,0(r19)
  108908:	98800b15 	stw	r2,44(r19)
  10890c:	9c000815 	stw	r16,32(r19)
  108910:	1c000135 	stwio	r16,4(r3)
  108914:	9009883a 	mov	r4,r18
  108918:	880b883a 	mov	r5,r17
  10891c:	01800474 	movhi	r6,17
  108920:	31a26004 	addi	r6,r6,-30336
  108924:	980f883a 	mov	r7,r19
  108928:	d8000015 	stw	zero,0(sp)
  10892c:	01094380 	call	109438 <alt_ic_isr_register>
  108930:	00800474 	movhi	r2,17
  108934:	10bc5e04 	addi	r2,r2,-3720
  108938:	11400017 	ldw	r5,0(r2)
  10893c:	98000915 	stw	zero,36(r19)
  108940:	99000204 	addi	r4,r19,8
  108944:	01800474 	movhi	r6,17
  108948:	31a20c04 	addi	r6,r6,-30672
  10894c:	980f883a 	mov	r7,r19
  108950:	01091a80 	call	1091a8 <alt_alarm_start>
  108954:	1000030e 	bge	r2,zero,108964 <altera_avalon_jtag_uart_init+0xac>
  108958:	00a00034 	movhi	r2,32768
  10895c:	10bfffc4 	addi	r2,r2,-1
  108960:	98800115 	stw	r2,4(r19)
  108964:	dfc00617 	ldw	ra,24(sp)
  108968:	dcc00517 	ldw	r19,20(sp)
  10896c:	dc800417 	ldw	r18,16(sp)
  108970:	dc400317 	ldw	r17,12(sp)
  108974:	dc000217 	ldw	r16,8(sp)
  108978:	dec00704 	addi	sp,sp,28
  10897c:	f800283a 	ret

00108980 <altera_avalon_jtag_uart_irq>:
  108980:	defff904 	addi	sp,sp,-28
  108984:	dd000515 	stw	r20,20(sp)
  108988:	25000017 	ldw	r20,0(r4)
  10898c:	dc000115 	stw	r16,4(sp)
  108990:	dfc00615 	stw	ra,24(sp)
  108994:	dcc00415 	stw	r19,16(sp)
  108998:	dc800315 	stw	r18,12(sp)
  10899c:	dc400215 	stw	r17,8(sp)
  1089a0:	2021883a 	mov	r16,r4
  1089a4:	a4800104 	addi	r18,r20,4
  1089a8:	94c00037 	ldwio	r19,0(r18)
  1089ac:	9880c00c 	andi	r2,r19,768
  1089b0:	10004626 	beq	r2,zero,108acc <altera_avalon_jtag_uart_irq+0x14c>
  1089b4:	9880400c 	andi	r2,r19,256
  1089b8:	10002226 	beq	r2,zero,108a44 <altera_avalon_jtag_uart_irq+0xc4>
  1089bc:	04400074 	movhi	r17,1
  1089c0:	80800d17 	ldw	r2,52(r16)
  1089c4:	80c00e17 	ldw	r3,56(r16)
  1089c8:	10800044 	addi	r2,r2,1
  1089cc:	1081ffcc 	andi	r2,r2,2047
  1089d0:	10c01426 	beq	r2,r3,108a24 <altera_avalon_jtag_uart_irq+0xa4>
  1089d4:	a4400037 	ldwio	r17,0(r20)
  1089d8:	01400044 	movi	r5,1
  1089dc:	88a0000c 	andi	r2,r17,32768
  1089e0:	280d883a 	mov	r6,r5
  1089e4:	d80f883a 	mov	r7,sp
  1089e8:	10000e26 	beq	r2,zero,108a24 <altera_avalon_jtag_uart_irq+0xa4>
  1089ec:	80800d17 	ldw	r2,52(r16)
  1089f0:	80c00d17 	ldw	r3,52(r16)
  1089f4:	81000c17 	ldw	r4,48(r16)
  1089f8:	1405883a 	add	r2,r2,r16
  1089fc:	14401105 	stb	r17,68(r2)
  108a00:	00800474 	movhi	r2,17
  108a04:	10bc4604 	addi	r2,r2,-3816
  108a08:	10800003 	ldbu	r2,0(r2)
  108a0c:	1947883a 	add	r3,r3,r5
  108a10:	18c1ffcc 	andi	r3,r3,2047
  108a14:	80c00d15 	stw	r3,52(r16)
  108a18:	103fe926 	beq	r2,zero,1089c0 <altera_avalon_jtag_uart_irq+0x40>
  108a1c:	01054500 	call	105450 <OSFlagPost>
  108a20:	003fe706 	br	1089c0 <altera_avalon_jtag_uart_irq+0x40>
  108a24:	88bfffec 	andhi	r2,r17,65535
  108a28:	10000626 	beq	r2,zero,108a44 <altera_avalon_jtag_uart_irq+0xc4>
  108a2c:	80800817 	ldw	r2,32(r16)
  108a30:	00ffff84 	movi	r3,-2
  108a34:	10c4703a 	and	r2,r2,r3
  108a38:	80800815 	stw	r2,32(r16)
  108a3c:	90800035 	stwio	r2,0(r18)
  108a40:	90800037 	ldwio	r2,0(r18)
  108a44:	9880800c 	andi	r2,r19,512
  108a48:	103fd626 	beq	r2,zero,1089a4 <altera_avalon_jtag_uart_irq+0x24>
  108a4c:	9822d43a 	srli	r17,r19,16
  108a50:	00001206 	br	108a9c <altera_avalon_jtag_uart_irq+0x11c>
  108a54:	80801017 	ldw	r2,64(r16)
  108a58:	1405883a 	add	r2,r2,r16
  108a5c:	10821107 	ldb	r2,2116(r2)
  108a60:	a0800035 	stwio	r2,0(r20)
  108a64:	80c01017 	ldw	r3,64(r16)
  108a68:	00800474 	movhi	r2,17
  108a6c:	10bc4604 	addi	r2,r2,-3816
  108a70:	10800003 	ldbu	r2,0(r2)
  108a74:	18c00044 	addi	r3,r3,1
  108a78:	18c1ffcc 	andi	r3,r3,2047
  108a7c:	01400084 	movi	r5,2
  108a80:	01800044 	movi	r6,1
  108a84:	d80f883a 	mov	r7,sp
  108a88:	8c7fffc4 	addi	r17,r17,-1
  108a8c:	80c01015 	stw	r3,64(r16)
  108a90:	81000c17 	ldw	r4,48(r16)
  108a94:	10000126 	beq	r2,zero,108a9c <altera_avalon_jtag_uart_irq+0x11c>
  108a98:	01054500 	call	105450 <OSFlagPost>
  108a9c:	883fc126 	beq	r17,zero,1089a4 <altera_avalon_jtag_uart_irq+0x24>
  108aa0:	80c01017 	ldw	r3,64(r16)
  108aa4:	80800f17 	ldw	r2,60(r16)
  108aa8:	18bfea1e 	bne	r3,r2,108a54 <altera_avalon_jtag_uart_irq+0xd4>
  108aac:	80800817 	ldw	r2,32(r16)
  108ab0:	81000017 	ldw	r4,0(r16)
  108ab4:	00ffff44 	movi	r3,-3
  108ab8:	10c4703a 	and	r2,r2,r3
  108abc:	80800815 	stw	r2,32(r16)
  108ac0:	20800135 	stwio	r2,4(r4)
  108ac4:	90800037 	ldwio	r2,0(r18)
  108ac8:	003fb606 	br	1089a4 <altera_avalon_jtag_uart_irq+0x24>
  108acc:	dfc00617 	ldw	ra,24(sp)
  108ad0:	dd000517 	ldw	r20,20(sp)
  108ad4:	dcc00417 	ldw	r19,16(sp)
  108ad8:	dc800317 	ldw	r18,12(sp)
  108adc:	dc400217 	ldw	r17,8(sp)
  108ae0:	dc000117 	ldw	r16,4(sp)
  108ae4:	dec00704 	addi	sp,sp,28
  108ae8:	f800283a 	ret

00108aec <altera_avalon_jtag_uart_ioctl>:
  108aec:	009a8044 	movi	r2,27137
  108af0:	200f883a 	mov	r7,r4
  108af4:	28800326 	beq	r5,r2,108b04 <altera_avalon_jtag_uart_ioctl+0x18>
  108af8:	009a8084 	movi	r2,27138
  108afc:	2880171e 	bne	r5,r2,108b5c <altera_avalon_jtag_uart_ioctl+0x70>
  108b00:	00000d06 	br	108b38 <altera_avalon_jtag_uart_ioctl+0x4c>
  108b04:	20c00117 	ldw	r3,4(r4)
  108b08:	00a00034 	movhi	r2,32768
  108b0c:	10bfffc4 	addi	r2,r2,-1
  108b10:	18801226 	beq	r3,r2,108b5c <altera_avalon_jtag_uart_ioctl+0x70>
  108b14:	31800017 	ldw	r6,0(r6)
  108b18:	10bfff44 	addi	r2,r2,-3
  108b1c:	30ffff84 	addi	r3,r6,-2
  108b20:	10c0022e 	bgeu	r2,r3,108b2c <altera_avalon_jtag_uart_ioctl+0x40>
  108b24:	01a00034 	movhi	r6,32768
  108b28:	31bfff84 	addi	r6,r6,-2
  108b2c:	0007883a 	mov	r3,zero
  108b30:	39800115 	stw	r6,4(r7)
  108b34:	00000a06 	br	108b60 <altera_avalon_jtag_uart_ioctl+0x74>
  108b38:	21000117 	ldw	r4,4(r4)
  108b3c:	00a00034 	movhi	r2,32768
  108b40:	10bfffc4 	addi	r2,r2,-1
  108b44:	20800526 	beq	r4,r2,108b5c <altera_avalon_jtag_uart_ioctl+0x70>
  108b48:	38800917 	ldw	r2,36(r7)
  108b4c:	0007883a 	mov	r3,zero
  108b50:	1105803a 	cmpltu	r2,r2,r4
  108b54:	30800015 	stw	r2,0(r6)
  108b58:	00000106 	br	108b60 <altera_avalon_jtag_uart_ioctl+0x74>
  108b5c:	00fff9c4 	movi	r3,-25
  108b60:	1805883a 	mov	r2,r3
  108b64:	f800283a 	ret

00108b68 <altera_avalon_jtag_uart_read>:
  108b68:	defff404 	addi	sp,sp,-48
  108b6c:	dc800415 	stw	r18,16(sp)
  108b70:	2025883a 	mov	r18,r4
  108b74:	21000a17 	ldw	r4,40(r4)
  108b78:	ddc00915 	stw	r23,36(sp)
  108b7c:	dd400715 	stw	r21,28(sp)
  108b80:	282f883a 	mov	r23,r5
  108b84:	302b883a 	mov	r21,r6
  108b88:	000b883a 	mov	r5,zero
  108b8c:	d9800104 	addi	r6,sp,4
  108b90:	df000a15 	stw	fp,40(sp)
  108b94:	dfc00b15 	stw	ra,44(sp)
  108b98:	dd800815 	stw	r22,32(sp)
  108b9c:	dd000615 	stw	r20,24(sp)
  108ba0:	dcc00515 	stw	r19,20(sp)
  108ba4:	dc400315 	stw	r17,12(sp)
  108ba8:	dc000215 	stw	r16,8(sp)
  108bac:	3839883a 	mov	fp,r7
  108bb0:	01066480 	call	106648 <OSSemPend>
  108bb4:	00002b06 	br	108c64 <altera_avalon_jtag_uart_read+0xfc>
  108bb8:	b829883a 	mov	r20,r23
  108bbc:	94400e17 	ldw	r17,56(r18)
  108bc0:	95800d17 	ldw	r22,52(r18)
  108bc4:	00820004 	movi	r2,2048
  108bc8:	1461c83a 	sub	r16,r2,r17
  108bcc:	b4400136 	bltu	r22,r17,108bd4 <altera_avalon_jtag_uart_read+0x6c>
  108bd0:	b461c83a 	sub	r16,r22,r17
  108bd4:	a009883a 	mov	r4,r20
  108bd8:	800d883a 	mov	r6,r16
  108bdc:	80000a26 	beq	r16,zero,108c08 <altera_avalon_jtag_uart_read+0xa0>
  108be0:	91401104 	addi	r5,r18,68
  108be4:	ac002636 	bltu	r21,r16,108c80 <altera_avalon_jtag_uart_read+0x118>
  108be8:	2c4b883a 	add	r5,r5,r17
  108bec:	01004280 	call	100428 <memcpy>
  108bf0:	8c05883a 	add	r2,r17,r16
  108bf4:	1081ffcc 	andi	r2,r2,2047
  108bf8:	ac2bc83a 	sub	r21,r21,r16
  108bfc:	90800e15 	stw	r2,56(r18)
  108c00:	a429883a 	add	r20,r20,r16
  108c04:	057fed16 	blt	zero,r21,108bbc <altera_avalon_jtag_uart_read+0x54>
  108c08:	a5c0271e 	bne	r20,r23,108ca8 <altera_avalon_jtag_uart_read+0x140>
  108c0c:	e090000c 	andi	r2,fp,16384
  108c10:	1000151e 	bne	r2,zero,108c68 <altera_avalon_jtag_uart_read+0x100>
  108c14:	00800474 	movhi	r2,17
  108c18:	10bc4604 	addi	r2,r2,-3816
  108c1c:	10c00003 	ldbu	r3,0(r2)
  108c20:	00800044 	movi	r2,1
  108c24:	1880081e 	bne	r3,r2,108c48 <altera_avalon_jtag_uart_read+0xe0>
  108c28:	91000c17 	ldw	r4,48(r18)
  108c2c:	d8800104 	addi	r2,sp,4
  108c30:	01400144 	movi	r5,5
  108c34:	018020c4 	movi	r6,131
  108c38:	000f883a 	mov	r7,zero
  108c3c:	d8800015 	stw	r2,0(sp)
  108c40:	01051240 	call	105124 <OSFlagPend>
  108c44:	00000506 	br	108c5c <altera_avalon_jtag_uart_read+0xf4>
  108c48:	90800d17 	ldw	r2,52(r18)
  108c4c:	b080031e 	bne	r22,r2,108c5c <altera_avalon_jtag_uart_read+0xf4>
  108c50:	90c00917 	ldw	r3,36(r18)
  108c54:	90800117 	ldw	r2,4(r18)
  108c58:	18bffb36 	bltu	r3,r2,108c48 <altera_avalon_jtag_uart_read+0xe0>
  108c5c:	90800d17 	ldw	r2,52(r18)
  108c60:	b0800126 	beq	r22,r2,108c68 <altera_avalon_jtag_uart_read+0x100>
  108c64:	057fd416 	blt	zero,r21,108bb8 <altera_avalon_jtag_uart_read+0x50>
  108c68:	91000a17 	ldw	r4,40(r18)
  108c6c:	010689c0 	call	10689c <OSSemPost>
  108c70:	e090000c 	andi	r2,fp,16384
  108c74:	10001a1e 	bne	r2,zero,108ce0 <altera_avalon_jtag_uart_read+0x178>
  108c78:	00bffec4 	movi	r2,-5
  108c7c:	00001906 	br	108ce4 <altera_avalon_jtag_uart_read+0x17c>
  108c80:	a009883a 	mov	r4,r20
  108c84:	a80d883a 	mov	r6,r21
  108c88:	2c4b883a 	add	r5,r5,r17
  108c8c:	01004280 	call	100428 <memcpy>
  108c90:	8d45883a 	add	r2,r17,r21
  108c94:	a569883a 	add	r20,r20,r21
  108c98:	1081ffcc 	andi	r2,r2,2047
  108c9c:	002b883a 	mov	r21,zero
  108ca0:	90800e15 	stw	r2,56(r18)
  108ca4:	003fd806 	br	108c08 <altera_avalon_jtag_uart_read+0xa0>
  108ca8:	91000a17 	ldw	r4,40(r18)
  108cac:	010689c0 	call	10689c <OSSemPost>
  108cb0:	0009303a 	rdctl	r4,status
  108cb4:	00bfff84 	movi	r2,-2
  108cb8:	2084703a 	and	r2,r4,r2
  108cbc:	1001703a 	wrctl	status,r2
  108cc0:	90800817 	ldw	r2,32(r18)
  108cc4:	90c00017 	ldw	r3,0(r18)
  108cc8:	10800054 	ori	r2,r2,1
  108ccc:	90800815 	stw	r2,32(r18)
  108cd0:	18800135 	stwio	r2,4(r3)
  108cd4:	2001703a 	wrctl	status,r4
  108cd8:	a5c5c83a 	sub	r2,r20,r23
  108cdc:	00000106 	br	108ce4 <altera_avalon_jtag_uart_read+0x17c>
  108ce0:	00bffd44 	movi	r2,-11
  108ce4:	dfc00b17 	ldw	ra,44(sp)
  108ce8:	df000a17 	ldw	fp,40(sp)
  108cec:	ddc00917 	ldw	r23,36(sp)
  108cf0:	dd800817 	ldw	r22,32(sp)
  108cf4:	dd400717 	ldw	r21,28(sp)
  108cf8:	dd000617 	ldw	r20,24(sp)
  108cfc:	dcc00517 	ldw	r19,20(sp)
  108d00:	dc800417 	ldw	r18,16(sp)
  108d04:	dc400317 	ldw	r17,12(sp)
  108d08:	dc000217 	ldw	r16,8(sp)
  108d0c:	dec00c04 	addi	sp,sp,48
  108d10:	f800283a 	ret

00108d14 <altera_avalon_jtag_uart_write>:
  108d14:	defff604 	addi	sp,sp,-40
  108d18:	dc400315 	stw	r17,12(sp)
  108d1c:	2023883a 	mov	r17,r4
  108d20:	21000b17 	ldw	r4,44(r4)
  108d24:	dd400715 	stw	r21,28(sp)
  108d28:	dcc00515 	stw	r19,20(sp)
  108d2c:	282b883a 	mov	r21,r5
  108d30:	3027883a 	mov	r19,r6
  108d34:	000b883a 	mov	r5,zero
  108d38:	d9800104 	addi	r6,sp,4
  108d3c:	dd800815 	stw	r22,32(sp)
  108d40:	dd000615 	stw	r20,24(sp)
  108d44:	dfc00915 	stw	ra,36(sp)
  108d48:	dc800415 	stw	r18,16(sp)
  108d4c:	dc000215 	stw	r16,8(sp)
  108d50:	382d883a 	mov	r22,r7
  108d54:	a829883a 	mov	r20,r21
  108d58:	01066480 	call	106648 <OSSemPend>
  108d5c:	00001906 	br	108dc4 <altera_avalon_jtag_uart_write+0xb0>
  108d60:	8c800f17 	ldw	r18,60(r17)
  108d64:	8c001017 	ldw	r16,64(r17)
  108d68:	9400032e 	bgeu	r18,r16,108d78 <altera_avalon_jtag_uart_write+0x64>
  108d6c:	8485c83a 	sub	r2,r16,r18
  108d70:	10bfffc4 	addi	r2,r2,-1
  108d74:	00000506 	br	108d8c <altera_avalon_jtag_uart_write+0x78>
  108d78:	80000226 	beq	r16,zero,108d84 <altera_avalon_jtag_uart_write+0x70>
  108d7c:	00820004 	movi	r2,2048
  108d80:	00000106 	br	108d88 <altera_avalon_jtag_uart_write+0x74>
  108d84:	0081ffc4 	movi	r2,2047
  108d88:	1485c83a 	sub	r2,r2,r18
  108d8c:	10003826 	beq	r2,zero,108e70 <altera_avalon_jtag_uart_write+0x15c>
  108d90:	9821883a 	mov	r16,r19
  108d94:	14c0012e 	bgeu	r2,r19,108d9c <altera_avalon_jtag_uart_write+0x88>
  108d98:	1021883a 	mov	r16,r2
  108d9c:	89021104 	addi	r4,r17,2116
  108da0:	a00b883a 	mov	r5,r20
  108da4:	2489883a 	add	r4,r4,r18
  108da8:	800d883a 	mov	r6,r16
  108dac:	01004280 	call	100428 <memcpy>
  108db0:	9405883a 	add	r2,r18,r16
  108db4:	1081ffcc 	andi	r2,r2,2047
  108db8:	88800f15 	stw	r2,60(r17)
  108dbc:	a429883a 	add	r20,r20,r16
  108dc0:	9c27c83a 	sub	r19,r19,r16
  108dc4:	04ffe616 	blt	zero,r19,108d60 <altera_avalon_jtag_uart_write+0x4c>
  108dc8:	0009303a 	rdctl	r4,status
  108dcc:	00bfff84 	movi	r2,-2
  108dd0:	2084703a 	and	r2,r4,r2
  108dd4:	1001703a 	wrctl	status,r2
  108dd8:	88800817 	ldw	r2,32(r17)
  108ddc:	88c00017 	ldw	r3,0(r17)
  108de0:	10800094 	ori	r2,r2,2
  108de4:	88800815 	stw	r2,32(r17)
  108de8:	18800135 	stwio	r2,4(r3)
  108dec:	2001703a 	wrctl	status,r4
  108df0:	00001406 	br	108e44 <altera_avalon_jtag_uart_write+0x130>
  108df4:	00800474 	movhi	r2,17
  108df8:	10bc4604 	addi	r2,r2,-3816
  108dfc:	10c00003 	ldbu	r3,0(r2)
  108e00:	00800044 	movi	r2,1
  108e04:	1880081e 	bne	r3,r2,108e28 <altera_avalon_jtag_uart_write+0x114>
  108e08:	89000c17 	ldw	r4,48(r17)
  108e0c:	d8800104 	addi	r2,sp,4
  108e10:	01400184 	movi	r5,6
  108e14:	018020c4 	movi	r6,131
  108e18:	000f883a 	mov	r7,zero
  108e1c:	d8800015 	stw	r2,0(sp)
  108e20:	01051240 	call	105124 <OSFlagPend>
  108e24:	00000506 	br	108e3c <altera_avalon_jtag_uart_write+0x128>
  108e28:	88801017 	ldw	r2,64(r17)
  108e2c:	8080031e 	bne	r16,r2,108e3c <altera_avalon_jtag_uart_write+0x128>
  108e30:	88c00917 	ldw	r3,36(r17)
  108e34:	88800117 	ldw	r2,4(r17)
  108e38:	18bffb36 	bltu	r3,r2,108e28 <altera_avalon_jtag_uart_write+0x114>
  108e3c:	88801017 	ldw	r2,64(r17)
  108e40:	80bfe01e 	bne	r16,r2,108dc4 <altera_avalon_jtag_uart_write+0xb0>
  108e44:	89000b17 	ldw	r4,44(r17)
  108e48:	010689c0 	call	10689c <OSSemPost>
  108e4c:	a5400226 	beq	r20,r21,108e58 <altera_avalon_jtag_uart_write+0x144>
  108e50:	a545c83a 	sub	r2,r20,r21
  108e54:	00001306 	br	108ea4 <altera_avalon_jtag_uart_write+0x190>
  108e58:	b090000c 	andi	r2,r22,16384
  108e5c:	10000226 	beq	r2,zero,108e68 <altera_avalon_jtag_uart_write+0x154>
  108e60:	00bffd44 	movi	r2,-11
  108e64:	00000f06 	br	108ea4 <altera_avalon_jtag_uart_write+0x190>
  108e68:	00bffec4 	movi	r2,-5
  108e6c:	00000d06 	br	108ea4 <altera_avalon_jtag_uart_write+0x190>
  108e70:	0009303a 	rdctl	r4,status
  108e74:	00bfff84 	movi	r2,-2
  108e78:	2084703a 	and	r2,r4,r2
  108e7c:	1001703a 	wrctl	status,r2
  108e80:	88800817 	ldw	r2,32(r17)
  108e84:	88c00017 	ldw	r3,0(r17)
  108e88:	10800094 	ori	r2,r2,2
  108e8c:	88800815 	stw	r2,32(r17)
  108e90:	18800135 	stwio	r2,4(r3)
  108e94:	2001703a 	wrctl	status,r4
  108e98:	b090000c 	andi	r2,r22,16384
  108e9c:	103fd526 	beq	r2,zero,108df4 <altera_avalon_jtag_uart_write+0xe0>
  108ea0:	003fe806 	br	108e44 <altera_avalon_jtag_uart_write+0x130>
  108ea4:	dfc00917 	ldw	ra,36(sp)
  108ea8:	dd800817 	ldw	r22,32(sp)
  108eac:	dd400717 	ldw	r21,28(sp)
  108eb0:	dd000617 	ldw	r20,24(sp)
  108eb4:	dcc00517 	ldw	r19,20(sp)
  108eb8:	dc800417 	ldw	r18,16(sp)
  108ebc:	dc400317 	ldw	r17,12(sp)
  108ec0:	dc000217 	ldw	r16,8(sp)
  108ec4:	dec00a04 	addi	sp,sp,40
  108ec8:	f800283a 	ret

00108ecc <alt_avalon_timer_sc_init>:
  108ecc:	02000474 	movhi	r8,17
  108ed0:	423c5e04 	addi	r8,r8,-3720
  108ed4:	40800017 	ldw	r2,0(r8)
  108ed8:	defffe04 	addi	sp,sp,-8
  108edc:	3807883a 	mov	r3,r7
  108ee0:	dfc00115 	stw	ra,4(sp)
  108ee4:	200f883a 	mov	r7,r4
  108ee8:	1000011e 	bne	r2,zero,108ef0 <alt_avalon_timer_sc_init+0x24>
  108eec:	40c00015 	stw	r3,0(r8)
  108ef0:	008001c4 	movi	r2,7
  108ef4:	38800135 	stwio	r2,4(r7)
  108ef8:	2809883a 	mov	r4,r5
  108efc:	300b883a 	mov	r5,r6
  108f00:	01800474 	movhi	r6,17
  108f04:	31a3c704 	addi	r6,r6,-28900
  108f08:	d8000015 	stw	zero,0(sp)
  108f0c:	01094380 	call	109438 <alt_ic_isr_register>
  108f10:	dfc00117 	ldw	ra,4(sp)
  108f14:	dec00204 	addi	sp,sp,8
  108f18:	f800283a 	ret

00108f1c <alt_avalon_timer_sc_irq>:
  108f1c:	defffe04 	addi	sp,sp,-8
  108f20:	dfc00115 	stw	ra,4(sp)
  108f24:	dc000015 	stw	r16,0(sp)
  108f28:	20000035 	stwio	zero,0(r4)
  108f2c:	20800137 	ldwio	r2,4(r4)
  108f30:	0021303a 	rdctl	r16,status
  108f34:	00bfff84 	movi	r2,-2
  108f38:	8084703a 	and	r2,r16,r2
  108f3c:	1001703a 	wrctl	status,r2
  108f40:	010976c0 	call	10976c <alt_tick>
  108f44:	8001703a 	wrctl	status,r16
  108f48:	dfc00117 	ldw	ra,4(sp)
  108f4c:	dc000017 	ldw	r16,0(sp)
  108f50:	dec00204 	addi	sp,sp,8
  108f54:	f800283a 	ret

00108f58 <get_DDRAM_addr>:
  108f58:	2005883a 	mov	r2,r4
  108f5c:	28000126 	beq	r5,zero,108f64 <get_DDRAM_addr+0xc>
  108f60:	20801014 	ori	r2,r4,64
  108f64:	10803fcc 	andi	r2,r2,255
  108f68:	10802014 	ori	r2,r2,128
  108f6c:	f800283a 	ret

00108f70 <alt_up_character_lcd_string>:
  108f70:	00000306 	br	108f80 <alt_up_character_lcd_string+0x10>
  108f74:	20800a17 	ldw	r2,40(r4)
  108f78:	10c00065 	stbio	r3,1(r2)
  108f7c:	29400044 	addi	r5,r5,1
  108f80:	28c00007 	ldb	r3,0(r5)
  108f84:	183ffb1e 	bne	r3,zero,108f74 <alt_up_character_lcd_string+0x4>
  108f88:	f800283a 	ret

00108f8c <alt_up_character_lcd_write>:
  108f8c:	000f883a 	mov	r7,zero
  108f90:	00000406 	br	108fa4 <alt_up_character_lcd_write+0x18>
  108f94:	10c00007 	ldb	r3,0(r2)
  108f98:	20800a17 	ldw	r2,40(r4)
  108f9c:	10c00065 	stbio	r3,1(r2)
  108fa0:	39c00044 	addi	r7,r7,1
  108fa4:	29c5883a 	add	r2,r5,r7
  108fa8:	39bffa1e 	bne	r7,r6,108f94 <alt_up_character_lcd_write+0x8>
  108fac:	f800283a 	ret

00108fb0 <alt_up_character_lcd_write_fd>:
  108fb0:	21000017 	ldw	r4,0(r4)
  108fb4:	deffff04 	addi	sp,sp,-4
  108fb8:	dfc00015 	stw	ra,0(sp)
  108fbc:	0108f8c0 	call	108f8c <alt_up_character_lcd_write>
  108fc0:	0005883a 	mov	r2,zero
  108fc4:	dfc00017 	ldw	ra,0(sp)
  108fc8:	dec00104 	addi	sp,sp,4
  108fcc:	f800283a 	ret

00108fd0 <alt_up_character_lcd_init>:
  108fd0:	20c00a17 	ldw	r3,40(r4)
  108fd4:	00800044 	movi	r2,1
  108fd8:	18800025 	stbio	r2,0(r3)
  108fdc:	f800283a 	ret

00108fe0 <alt_up_character_lcd_send_cmd>:
  108fe0:	20800a17 	ldw	r2,40(r4)
  108fe4:	29403fcc 	andi	r5,r5,255
  108fe8:	11400025 	stbio	r5,0(r2)
  108fec:	f800283a 	ret

00108ff0 <alt_up_character_lcd_cursor_blink_on>:
  108ff0:	014003c4 	movi	r5,15
  108ff4:	0108fe01 	jmpi	108fe0 <alt_up_character_lcd_send_cmd>

00108ff8 <alt_up_character_lcd_cursor_off>:
  108ff8:	01400304 	movi	r5,12
  108ffc:	0108fe01 	jmpi	108fe0 <alt_up_character_lcd_send_cmd>

00109000 <alt_up_character_lcd_erase_pos>:
  109000:	defffe04 	addi	sp,sp,-8
  109004:	008009c4 	movi	r2,39
  109008:	dc000015 	stw	r16,0(sp)
  10900c:	dfc00115 	stw	ra,4(sp)
  109010:	2807883a 	mov	r3,r5
  109014:	2021883a 	mov	r16,r4
  109018:	11400d36 	bltu	r2,r5,109050 <alt_up_character_lcd_erase_pos+0x50>
  10901c:	00800044 	movi	r2,1
  109020:	300b883a 	mov	r5,r6
  109024:	1809883a 	mov	r4,r3
  109028:	11800936 	bltu	r2,r6,109050 <alt_up_character_lcd_erase_pos+0x50>
  10902c:	0108f580 	call	108f58 <get_DDRAM_addr>
  109030:	11403fcc 	andi	r5,r2,255
  109034:	8009883a 	mov	r4,r16
  109038:	0108fe00 	call	108fe0 <alt_up_character_lcd_send_cmd>
  10903c:	80c00a17 	ldw	r3,40(r16)
  109040:	00800084 	movi	r2,2
  109044:	18800065 	stbio	r2,1(r3)
  109048:	0005883a 	mov	r2,zero
  10904c:	00000106 	br	109054 <alt_up_character_lcd_erase_pos+0x54>
  109050:	00bfffc4 	movi	r2,-1
  109054:	dfc00117 	ldw	ra,4(sp)
  109058:	dc000017 	ldw	r16,0(sp)
  10905c:	dec00204 	addi	sp,sp,8
  109060:	f800283a 	ret

00109064 <alt_up_character_lcd_shift_display>:
  109064:	defffc04 	addi	sp,sp,-16
  109068:	dc400115 	stw	r17,4(sp)
  10906c:	dfc00315 	stw	ra,12(sp)
  109070:	dc800215 	stw	r18,8(sp)
  109074:	dc000015 	stw	r16,0(sp)
  109078:	2023883a 	mov	r17,r4
  10907c:	28000f26 	beq	r5,zero,1090bc <alt_up_character_lcd_shift_display+0x58>
  109080:	01400216 	blt	zero,r5,10908c <alt_up_character_lcd_shift_display+0x28>
  109084:	04800604 	movi	r18,24
  109088:	00000106 	br	109090 <alt_up_character_lcd_shift_display+0x2c>
  10908c:	04800704 	movi	r18,28
  109090:	2800010e 	bge	r5,zero,109098 <alt_up_character_lcd_shift_display+0x34>
  109094:	014bc83a 	sub	r5,zero,r5
  109098:	2821883a 	mov	r16,r5
  10909c:	00000106 	br	1090a4 <alt_up_character_lcd_shift_display+0x40>
  1090a0:	0108fe00 	call	108fe0 <alt_up_character_lcd_send_cmd>
  1090a4:	843fffc4 	addi	r16,r16,-1
  1090a8:	80c03fcc 	andi	r3,r16,255
  1090ac:	00803fc4 	movi	r2,255
  1090b0:	8809883a 	mov	r4,r17
  1090b4:	91403fcc 	andi	r5,r18,255
  1090b8:	18bff91e 	bne	r3,r2,1090a0 <alt_up_character_lcd_shift_display+0x3c>
  1090bc:	dfc00317 	ldw	ra,12(sp)
  1090c0:	dc800217 	ldw	r18,8(sp)
  1090c4:	dc400117 	ldw	r17,4(sp)
  1090c8:	dc000017 	ldw	r16,0(sp)
  1090cc:	dec00404 	addi	sp,sp,16
  1090d0:	f800283a 	ret

001090d4 <alt_up_character_lcd_shift_cursor>:
  1090d4:	defffc04 	addi	sp,sp,-16
  1090d8:	dc400115 	stw	r17,4(sp)
  1090dc:	dfc00315 	stw	ra,12(sp)
  1090e0:	dc800215 	stw	r18,8(sp)
  1090e4:	dc000015 	stw	r16,0(sp)
  1090e8:	2023883a 	mov	r17,r4
  1090ec:	28000f26 	beq	r5,zero,10912c <alt_up_character_lcd_shift_cursor+0x58>
  1090f0:	01400216 	blt	zero,r5,1090fc <alt_up_character_lcd_shift_cursor+0x28>
  1090f4:	04800404 	movi	r18,16
  1090f8:	00000106 	br	109100 <alt_up_character_lcd_shift_cursor+0x2c>
  1090fc:	04800504 	movi	r18,20
  109100:	2800010e 	bge	r5,zero,109108 <alt_up_character_lcd_shift_cursor+0x34>
  109104:	014bc83a 	sub	r5,zero,r5
  109108:	2821883a 	mov	r16,r5
  10910c:	00000106 	br	109114 <alt_up_character_lcd_shift_cursor+0x40>
  109110:	0108fe00 	call	108fe0 <alt_up_character_lcd_send_cmd>
  109114:	843fffc4 	addi	r16,r16,-1
  109118:	80c03fcc 	andi	r3,r16,255
  10911c:	00803fc4 	movi	r2,255
  109120:	8809883a 	mov	r4,r17
  109124:	91403fcc 	andi	r5,r18,255
  109128:	18bff91e 	bne	r3,r2,109110 <alt_up_character_lcd_shift_cursor+0x3c>
  10912c:	dfc00317 	ldw	ra,12(sp)
  109130:	dc800217 	ldw	r18,8(sp)
  109134:	dc400117 	ldw	r17,4(sp)
  109138:	dc000017 	ldw	r16,0(sp)
  10913c:	dec00404 	addi	sp,sp,16
  109140:	f800283a 	ret

00109144 <alt_up_character_lcd_set_cursor_pos>:
  109144:	defffe04 	addi	sp,sp,-8
  109148:	008009c4 	movi	r2,39
  10914c:	dc000015 	stw	r16,0(sp)
  109150:	dfc00115 	stw	ra,4(sp)
  109154:	2807883a 	mov	r3,r5
  109158:	2021883a 	mov	r16,r4
  10915c:	11400a36 	bltu	r2,r5,109188 <alt_up_character_lcd_set_cursor_pos+0x44>
  109160:	00800044 	movi	r2,1
  109164:	300b883a 	mov	r5,r6
  109168:	1809883a 	mov	r4,r3
  10916c:	11800636 	bltu	r2,r6,109188 <alt_up_character_lcd_set_cursor_pos+0x44>
  109170:	0108f580 	call	108f58 <get_DDRAM_addr>
  109174:	11403fcc 	andi	r5,r2,255
  109178:	8009883a 	mov	r4,r16
  10917c:	0108fe00 	call	108fe0 <alt_up_character_lcd_send_cmd>
  109180:	0005883a 	mov	r2,zero
  109184:	00000106 	br	10918c <alt_up_character_lcd_set_cursor_pos+0x48>
  109188:	00bfffc4 	movi	r2,-1
  10918c:	dfc00117 	ldw	ra,4(sp)
  109190:	dc000017 	ldw	r16,0(sp)
  109194:	dec00204 	addi	sp,sp,8
  109198:	f800283a 	ret

0010919c <alt_up_character_lcd_open_dev>:
  10919c:	01400474 	movhi	r5,17
  1091a0:	29754e04 	addi	r5,r5,-10952
  1091a4:	010932c1 	jmpi	10932c <alt_find_dev>

001091a8 <alt_alarm_start>:
  1091a8:	00800474 	movhi	r2,17
  1091ac:	10bc5e04 	addi	r2,r2,-3720
  1091b0:	10800017 	ldw	r2,0(r2)
  1091b4:	00ffde84 	movi	r3,-134
  1091b8:	10001d26 	beq	r2,zero,109230 <alt_alarm_start+0x88>
  1091bc:	00fffa84 	movi	r3,-22
  1091c0:	20001b26 	beq	r4,zero,109230 <alt_alarm_start+0x88>
  1091c4:	21800315 	stw	r6,12(r4)
  1091c8:	21c00515 	stw	r7,20(r4)
  1091cc:	000d303a 	rdctl	r6,status
  1091d0:	00bfff84 	movi	r2,-2
  1091d4:	3084703a 	and	r2,r6,r2
  1091d8:	1001703a 	wrctl	status,r2
  1091dc:	00800474 	movhi	r2,17
  1091e0:	10bc5f04 	addi	r2,r2,-3716
  1091e4:	10c00017 	ldw	r3,0(r2)
  1091e8:	18800044 	addi	r2,r3,1
  1091ec:	2885883a 	add	r2,r5,r2
  1091f0:	20800215 	stw	r2,8(r4)
  1091f4:	10c0032e 	bgeu	r2,r3,109204 <alt_alarm_start+0x5c>
  1091f8:	00800044 	movi	r2,1
  1091fc:	20800405 	stb	r2,16(r4)
  109200:	00000106 	br	109208 <alt_alarm_start+0x60>
  109204:	20000405 	stb	zero,16(r4)
  109208:	00800474 	movhi	r2,17
  10920c:	10b57304 	addi	r2,r2,-10804
  109210:	10c00017 	ldw	r3,0(r2)
  109214:	20800115 	stw	r2,4(r4)
  109218:	20c00015 	stw	r3,0(r4)
  10921c:	10c00017 	ldw	r3,0(r2)
  109220:	11000015 	stw	r4,0(r2)
  109224:	19000115 	stw	r4,4(r3)
  109228:	3001703a 	wrctl	status,r6
  10922c:	0007883a 	mov	r3,zero
  109230:	1805883a 	mov	r2,r3
  109234:	f800283a 	ret

00109238 <alt_dcache_flush_all>:
  109238:	f800283a 	ret

0010923c <alt_dev_llist_insert>:
  10923c:	deffff04 	addi	sp,sp,-4
  109240:	dfc00015 	stw	ra,0(sp)
  109244:	20000326 	beq	r4,zero,109254 <alt_dev_llist_insert+0x18>
  109248:	20800217 	ldw	r2,8(r4)
  10924c:	000d883a 	mov	r6,zero
  109250:	10000c1e 	bne	r2,zero,109284 <alt_dev_llist_insert+0x48>
  109254:	00800474 	movhi	r2,17
  109258:	10b55104 	addi	r2,r2,-10940
  10925c:	10800017 	ldw	r2,0(r2)
  109260:	00c00474 	movhi	r3,17
  109264:	18fc3a04 	addi	r3,r3,-3864
  109268:	10000226 	beq	r2,zero,109274 <alt_dev_llist_insert+0x38>
  10926c:	103ee83a 	callr	r2
  109270:	1007883a 	mov	r3,r2
  109274:	00800584 	movi	r2,22
  109278:	01bffa84 	movi	r6,-22
  10927c:	18800015 	stw	r2,0(r3)
  109280:	00000606 	br	10929c <alt_dev_llist_insert+0x60>
  109284:	28800017 	ldw	r2,0(r5)
  109288:	21400115 	stw	r5,4(r4)
  10928c:	20800015 	stw	r2,0(r4)
  109290:	28800017 	ldw	r2,0(r5)
  109294:	29000015 	stw	r4,0(r5)
  109298:	11000115 	stw	r4,4(r2)
  10929c:	3005883a 	mov	r2,r6
  1092a0:	dfc00017 	ldw	ra,0(sp)
  1092a4:	dec00104 	addi	sp,sp,4
  1092a8:	f800283a 	ret

001092ac <_do_ctors>:
  1092ac:	defffe04 	addi	sp,sp,-8
  1092b0:	dc000015 	stw	r16,0(sp)
  1092b4:	04000474 	movhi	r16,17
  1092b8:	842df504 	addi	r16,r16,-18476
  1092bc:	dfc00115 	stw	ra,4(sp)
  1092c0:	00000306 	br	1092d0 <_do_ctors+0x24>
  1092c4:	80800017 	ldw	r2,0(r16)
  1092c8:	843fff04 	addi	r16,r16,-4
  1092cc:	103ee83a 	callr	r2
  1092d0:	00800474 	movhi	r2,17
  1092d4:	10adf504 	addi	r2,r2,-18476
  1092d8:	80bffa2e 	bgeu	r16,r2,1092c4 <_do_ctors+0x18>
  1092dc:	dfc00117 	ldw	ra,4(sp)
  1092e0:	dc000017 	ldw	r16,0(sp)
  1092e4:	dec00204 	addi	sp,sp,8
  1092e8:	f800283a 	ret

001092ec <_do_dtors>:
  1092ec:	defffe04 	addi	sp,sp,-8
  1092f0:	dc000015 	stw	r16,0(sp)
  1092f4:	04000474 	movhi	r16,17
  1092f8:	842df504 	addi	r16,r16,-18476
  1092fc:	dfc00115 	stw	ra,4(sp)
  109300:	00000306 	br	109310 <_do_dtors+0x24>
  109304:	80800017 	ldw	r2,0(r16)
  109308:	843fff04 	addi	r16,r16,-4
  10930c:	103ee83a 	callr	r2
  109310:	00800474 	movhi	r2,17
  109314:	10adf604 	addi	r2,r2,-18472
  109318:	80bffa2e 	bgeu	r16,r2,109304 <_do_dtors+0x18>
  10931c:	dfc00117 	ldw	ra,4(sp)
  109320:	dc000017 	ldw	r16,0(sp)
  109324:	dec00204 	addi	sp,sp,8
  109328:	f800283a 	ret

0010932c <alt_find_dev>:
  10932c:	defffb04 	addi	sp,sp,-20
  109330:	dcc00315 	stw	r19,12(sp)
  109334:	dc800215 	stw	r18,8(sp)
  109338:	dc400115 	stw	r17,4(sp)
  10933c:	dc000015 	stw	r16,0(sp)
  109340:	dfc00415 	stw	ra,16(sp)
  109344:	2c000017 	ldw	r16,0(r5)
  109348:	2823883a 	mov	r17,r5
  10934c:	2027883a 	mov	r19,r4
  109350:	01007680 	call	100768 <strlen>
  109354:	14800044 	addi	r18,r2,1
  109358:	00000406 	br	10936c <alt_find_dev+0x40>
  10935c:	81000217 	ldw	r4,8(r16)
  109360:	0109ca40 	call	109ca4 <memcmp>
  109364:	10000526 	beq	r2,zero,10937c <alt_find_dev+0x50>
  109368:	84000017 	ldw	r16,0(r16)
  10936c:	980b883a 	mov	r5,r19
  109370:	900d883a 	mov	r6,r18
  109374:	847ff91e 	bne	r16,r17,10935c <alt_find_dev+0x30>
  109378:	0021883a 	mov	r16,zero
  10937c:	8005883a 	mov	r2,r16
  109380:	dfc00417 	ldw	ra,16(sp)
  109384:	dcc00317 	ldw	r19,12(sp)
  109388:	dc800217 	ldw	r18,8(sp)
  10938c:	dc400117 	ldw	r17,4(sp)
  109390:	dc000017 	ldw	r16,0(sp)
  109394:	dec00504 	addi	sp,sp,20
  109398:	f800283a 	ret

0010939c <alt_icache_flush_all>:
  10939c:	f800283a 	ret

001093a0 <alt_ic_irq_enabled>:
  1093a0:	000530fa 	rdctl	r2,ienable
  1093a4:	00c00044 	movi	r3,1
  1093a8:	1946983a 	sll	r3,r3,r5
  1093ac:	10c4703a 	and	r2,r2,r3
  1093b0:	1004c03a 	cmpne	r2,r2,zero
  1093b4:	f800283a 	ret

001093b8 <alt_ic_irq_enable>:
  1093b8:	000d303a 	rdctl	r6,status
  1093bc:	00bfff84 	movi	r2,-2
  1093c0:	3084703a 	and	r2,r6,r2
  1093c4:	1001703a 	wrctl	status,r2
  1093c8:	01000474 	movhi	r4,17
  1093cc:	213c5d04 	addi	r4,r4,-3724
  1093d0:	00c00044 	movi	r3,1
  1093d4:	20800017 	ldw	r2,0(r4)
  1093d8:	1946983a 	sll	r3,r3,r5
  1093dc:	10c4b03a 	or	r2,r2,r3
  1093e0:	20800015 	stw	r2,0(r4)
  1093e4:	20800017 	ldw	r2,0(r4)
  1093e8:	100170fa 	wrctl	ienable,r2
  1093ec:	3001703a 	wrctl	status,r6
  1093f0:	0005883a 	mov	r2,zero
  1093f4:	f800283a 	ret

001093f8 <alt_ic_irq_disable>:
  1093f8:	000d303a 	rdctl	r6,status
  1093fc:	00bfff84 	movi	r2,-2
  109400:	3084703a 	and	r2,r6,r2
  109404:	1001703a 	wrctl	status,r2
  109408:	01000474 	movhi	r4,17
  10940c:	213c5d04 	addi	r4,r4,-3724
  109410:	00ffff84 	movi	r3,-2
  109414:	20800017 	ldw	r2,0(r4)
  109418:	1946183a 	rol	r3,r3,r5
  10941c:	10c4703a 	and	r2,r2,r3
  109420:	20800015 	stw	r2,0(r4)
  109424:	20800017 	ldw	r2,0(r4)
  109428:	100170fa 	wrctl	ienable,r2
  10942c:	3001703a 	wrctl	status,r6
  109430:	0005883a 	mov	r2,zero
  109434:	f800283a 	ret

00109438 <alt_ic_isr_register>:
  109438:	010943c1 	jmpi	10943c <alt_iic_isr_register>

0010943c <alt_iic_isr_register>:
  10943c:	defffe04 	addi	sp,sp,-8
  109440:	008007c4 	movi	r2,31
  109444:	dfc00115 	stw	ra,4(sp)
  109448:	dc000015 	stw	r16,0(sp)
  10944c:	00fffa84 	movi	r3,-22
  109450:	11401016 	blt	r2,r5,109494 <alt_iic_isr_register+0x58>
  109454:	0021303a 	rdctl	r16,status
  109458:	00bfff84 	movi	r2,-2
  10945c:	8084703a 	and	r2,r16,r2
  109460:	1001703a 	wrctl	status,r2
  109464:	280490fa 	slli	r2,r5,3
  109468:	00c004b4 	movhi	r3,18
  10946c:	18e3c804 	addi	r3,r3,-28896
  109470:	10c5883a 	add	r2,r2,r3
  109474:	11c00115 	stw	r7,4(r2)
  109478:	11800015 	stw	r6,0(r2)
  10947c:	30000226 	beq	r6,zero,109488 <alt_iic_isr_register+0x4c>
  109480:	01093b80 	call	1093b8 <alt_ic_irq_enable>
  109484:	00000106 	br	10948c <alt_iic_isr_register+0x50>
  109488:	01093f80 	call	1093f8 <alt_ic_irq_disable>
  10948c:	1007883a 	mov	r3,r2
  109490:	8001703a 	wrctl	status,r16
  109494:	1805883a 	mov	r2,r3
  109498:	dfc00117 	ldw	ra,4(sp)
  10949c:	dc000017 	ldw	r16,0(sp)
  1094a0:	dec00204 	addi	sp,sp,8
  1094a4:	f800283a 	ret

001094a8 <alt_open_fd>:
  1094a8:	defffd04 	addi	sp,sp,-12
  1094ac:	dc400115 	stw	r17,4(sp)
  1094b0:	2023883a 	mov	r17,r4
  1094b4:	2809883a 	mov	r4,r5
  1094b8:	300b883a 	mov	r5,r6
  1094bc:	380d883a 	mov	r6,r7
  1094c0:	dc000015 	stw	r16,0(sp)
  1094c4:	dfc00215 	stw	ra,8(sp)
  1094c8:	01095bc0 	call	1095bc <open>
  1094cc:	1021883a 	mov	r16,r2
  1094d0:	1009883a 	mov	r4,r2
  1094d4:	01400304 	movi	r5,12
  1094d8:	10001016 	blt	r2,zero,10951c <alt_open_fd+0x74>
  1094dc:	01030a40 	call	1030a4 <__mulsi3>
  1094e0:	00c00474 	movhi	r3,17
  1094e4:	18f0c204 	addi	r3,r3,-15608
  1094e8:	10c5883a 	add	r2,r2,r3
  1094ec:	11000017 	ldw	r4,0(r2)
  1094f0:	10c00217 	ldw	r3,8(r2)
  1094f4:	10800117 	ldw	r2,4(r2)
  1094f8:	89000015 	stw	r4,0(r17)
  1094fc:	8009883a 	mov	r4,r16
  109500:	88c00215 	stw	r3,8(r17)
  109504:	88800115 	stw	r2,4(r17)
  109508:	dfc00217 	ldw	ra,8(sp)
  10950c:	dc400117 	ldw	r17,4(sp)
  109510:	dc000017 	ldw	r16,0(sp)
  109514:	dec00304 	addi	sp,sp,12
  109518:	01035941 	jmpi	103594 <alt_release_fd>
  10951c:	dfc00217 	ldw	ra,8(sp)
  109520:	dc400117 	ldw	r17,4(sp)
  109524:	dc000017 	ldw	r16,0(sp)
  109528:	dec00304 	addi	sp,sp,12
  10952c:	f800283a 	ret

00109530 <alt_io_redirect>:
  109530:	defffa04 	addi	sp,sp,-24
  109534:	dcc00315 	stw	r19,12(sp)
  109538:	dc400115 	stw	r17,4(sp)
  10953c:	dc000015 	stw	r16,0(sp)
  109540:	04407fc4 	movi	r17,511
  109544:	04000474 	movhi	r16,17
  109548:	8430c504 	addi	r16,r16,-15596
  10954c:	04c00044 	movi	r19,1
  109550:	dd000415 	stw	r20,16(sp)
  109554:	dc800215 	stw	r18,8(sp)
  109558:	3029883a 	mov	r20,r6
  10955c:	2825883a 	mov	r18,r5
  109560:	980d883a 	mov	r6,r19
  109564:	200b883a 	mov	r5,r4
  109568:	880f883a 	mov	r7,r17
  10956c:	8009883a 	mov	r4,r16
  109570:	dfc00515 	stw	ra,20(sp)
  109574:	01094a80 	call	1094a8 <alt_open_fd>
  109578:	900b883a 	mov	r5,r18
  10957c:	813ffd04 	addi	r4,r16,-12
  109580:	880f883a 	mov	r7,r17
  109584:	000d883a 	mov	r6,zero
  109588:	01094a80 	call	1094a8 <alt_open_fd>
  10958c:	81000304 	addi	r4,r16,12
  109590:	a00b883a 	mov	r5,r20
  109594:	980d883a 	mov	r6,r19
  109598:	880f883a 	mov	r7,r17
  10959c:	dfc00517 	ldw	ra,20(sp)
  1095a0:	dd000417 	ldw	r20,16(sp)
  1095a4:	dcc00317 	ldw	r19,12(sp)
  1095a8:	dc800217 	ldw	r18,8(sp)
  1095ac:	dc400117 	ldw	r17,4(sp)
  1095b0:	dc000017 	ldw	r16,0(sp)
  1095b4:	dec00604 	addi	sp,sp,24
  1095b8:	01094a81 	jmpi	1094a8 <alt_open_fd>

001095bc <open>:
  1095bc:	defff904 	addi	sp,sp,-28
  1095c0:	dd000415 	stw	r20,16(sp)
  1095c4:	2829883a 	mov	r20,r5
  1095c8:	01400474 	movhi	r5,17
  1095cc:	29754e04 	addi	r5,r5,-10952
  1095d0:	dd400515 	stw	r21,20(sp)
  1095d4:	dcc00315 	stw	r19,12(sp)
  1095d8:	dc000015 	stw	r16,0(sp)
  1095dc:	dfc00615 	stw	ra,24(sp)
  1095e0:	dc800215 	stw	r18,8(sp)
  1095e4:	dc400115 	stw	r17,4(sp)
  1095e8:	302b883a 	mov	r21,r6
  1095ec:	2027883a 	mov	r19,r4
  1095f0:	010932c0 	call	10932c <alt_find_dev>
  1095f4:	1021883a 	mov	r16,r2
  1095f8:	10000226 	beq	r2,zero,109604 <open+0x48>
  1095fc:	0025883a 	mov	r18,zero
  109600:	00000a06 	br	10962c <open+0x70>
  109604:	9809883a 	mov	r4,r19
  109608:	0109b180 	call	109b18 <alt_find_file>
  10960c:	1021883a 	mov	r16,r2
  109610:	1000051e 	bne	r2,zero,109628 <open+0x6c>
  109614:	047fffc4 	movi	r17,-1
  109618:	043ffb44 	movi	r16,-19
  10961c:	00002b06 	br	1096cc <open+0x110>
  109620:	043ffcc4 	movi	r16,-13
  109624:	00002906 	br	1096cc <open+0x110>
  109628:	04800044 	movi	r18,1
  10962c:	8009883a 	mov	r4,r16
  109630:	0109bb40 	call	109bb4 <alt_get_fd>
  109634:	1023883a 	mov	r17,r2
  109638:	10003316 	blt	r2,zero,109708 <open+0x14c>
  10963c:	1009883a 	mov	r4,r2
  109640:	01400304 	movi	r5,12
  109644:	01030a40 	call	1030a4 <__mulsi3>
  109648:	01400474 	movhi	r5,17
  10964c:	2970c204 	addi	r5,r5,-15608
  109650:	1149883a 	add	r4,r2,r5
  109654:	00900034 	movhi	r2,16384
  109658:	10bfffc4 	addi	r2,r2,-1
  10965c:	a086703a 	and	r3,r20,r2
  109660:	9004c03a 	cmpne	r2,r18,zero
  109664:	20c00215 	stw	r3,8(r4)
  109668:	1000101e 	bne	r2,zero,1096ac <open+0xf0>
  10966c:	00800474 	movhi	r2,17
  109670:	10b55004 	addi	r2,r2,-10944
  109674:	21800017 	ldw	r6,0(r4)
  109678:	11c00017 	ldw	r7,0(r2)
  10967c:	18900034 	orhi	r2,r3,16384
  109680:	20800215 	stw	r2,8(r4)
  109684:	2807883a 	mov	r3,r5
  109688:	000b883a 	mov	r5,zero
  10968c:	18800017 	ldw	r2,0(r3)
  109690:	29400044 	addi	r5,r5,1
  109694:	1180031e 	bne	r2,r6,1096a4 <open+0xe8>
  109698:	18800217 	ldw	r2,8(r3)
  10969c:	1000010e 	bge	r2,zero,1096a4 <open+0xe8>
  1096a0:	193fdf1e 	bne	r3,r4,109620 <open+0x64>
  1096a4:	18c00304 	addi	r3,r3,12
  1096a8:	397ff82e 	bgeu	r7,r5,10968c <open+0xd0>
  1096ac:	80800317 	ldw	r2,12(r16)
  1096b0:	10001726 	beq	r2,zero,109710 <open+0x154>
  1096b4:	980b883a 	mov	r5,r19
  1096b8:	a00d883a 	mov	r6,r20
  1096bc:	a80f883a 	mov	r7,r21
  1096c0:	103ee83a 	callr	r2
  1096c4:	1021883a 	mov	r16,r2
  1096c8:	1000110e 	bge	r2,zero,109710 <open+0x154>
  1096cc:	8809883a 	mov	r4,r17
  1096d0:	01035940 	call	103594 <alt_release_fd>
  1096d4:	00800474 	movhi	r2,17
  1096d8:	10b55104 	addi	r2,r2,-10940
  1096dc:	10800017 	ldw	r2,0(r2)
  1096e0:	1000031e 	bne	r2,zero,1096f0 <open+0x134>
  1096e4:	00c00474 	movhi	r3,17
  1096e8:	18fc3a04 	addi	r3,r3,-3864
  1096ec:	00000206 	br	1096f8 <open+0x13c>
  1096f0:	103ee83a 	callr	r2
  1096f4:	1007883a 	mov	r3,r2
  1096f8:	0405c83a 	sub	r2,zero,r16
  1096fc:	047fffc4 	movi	r17,-1
  109700:	18800015 	stw	r2,0(r3)
  109704:	00000206 	br	109710 <open+0x154>
  109708:	1021883a 	mov	r16,r2
  10970c:	003fef06 	br	1096cc <open+0x110>
  109710:	8805883a 	mov	r2,r17
  109714:	dfc00617 	ldw	ra,24(sp)
  109718:	dd400517 	ldw	r21,20(sp)
  10971c:	dd000417 	ldw	r20,16(sp)
  109720:	dcc00317 	ldw	r19,12(sp)
  109724:	dc800217 	ldw	r18,8(sp)
  109728:	dc400117 	ldw	r17,4(sp)
  10972c:	dc000017 	ldw	r16,0(sp)
  109730:	dec00704 	addi	sp,sp,28
  109734:	f800283a 	ret

00109738 <alt_alarm_stop>:
  109738:	000b303a 	rdctl	r5,status
  10973c:	00bfff84 	movi	r2,-2
  109740:	2884703a 	and	r2,r5,r2
  109744:	1001703a 	wrctl	status,r2
  109748:	20c00017 	ldw	r3,0(r4)
  10974c:	20800117 	ldw	r2,4(r4)
  109750:	18800115 	stw	r2,4(r3)
  109754:	20800117 	ldw	r2,4(r4)
  109758:	21000115 	stw	r4,4(r4)
  10975c:	10c00015 	stw	r3,0(r2)
  109760:	21000015 	stw	r4,0(r4)
  109764:	2801703a 	wrctl	status,r5
  109768:	f800283a 	ret

0010976c <alt_tick>:
  10976c:	defffd04 	addi	sp,sp,-12
  109770:	d0a71717 	ldw	r2,-25508(gp)
  109774:	dc000015 	stw	r16,0(sp)
  109778:	d4202b17 	ldw	r16,-32596(gp)
  10977c:	10800044 	addi	r2,r2,1
  109780:	dfc00215 	stw	ra,8(sp)
  109784:	dc400115 	stw	r17,4(sp)
  109788:	d0a71715 	stw	r2,-25508(gp)
  10978c:	00001b06 	br	1097fc <alt_tick+0x90>
  109790:	80800403 	ldbu	r2,16(r16)
  109794:	84400017 	ldw	r17,0(r16)
  109798:	10000326 	beq	r2,zero,1097a8 <alt_tick+0x3c>
  10979c:	d0a71717 	ldw	r2,-25508(gp)
  1097a0:	1000011e 	bne	r2,zero,1097a8 <alt_tick+0x3c>
  1097a4:	80000405 	stb	zero,16(r16)
  1097a8:	d0e71717 	ldw	r3,-25508(gp)
  1097ac:	80800217 	ldw	r2,8(r16)
  1097b0:	18801136 	bltu	r3,r2,1097f8 <alt_tick+0x8c>
  1097b4:	80800403 	ldbu	r2,16(r16)
  1097b8:	10000f1e 	bne	r2,zero,1097f8 <alt_tick+0x8c>
  1097bc:	81000517 	ldw	r4,20(r16)
  1097c0:	80800317 	ldw	r2,12(r16)
  1097c4:	103ee83a 	callr	r2
  1097c8:	1009883a 	mov	r4,r2
  1097cc:	1000031e 	bne	r2,zero,1097dc <alt_tick+0x70>
  1097d0:	8009883a 	mov	r4,r16
  1097d4:	01097380 	call	109738 <alt_alarm_stop>
  1097d8:	00000706 	br	1097f8 <alt_tick+0x8c>
  1097dc:	80800217 	ldw	r2,8(r16)
  1097e0:	d0e71717 	ldw	r3,-25508(gp)
  1097e4:	1105883a 	add	r2,r2,r4
  1097e8:	80800215 	stw	r2,8(r16)
  1097ec:	10c0022e 	bgeu	r2,r3,1097f8 <alt_tick+0x8c>
  1097f0:	00800044 	movi	r2,1
  1097f4:	80800405 	stb	r2,16(r16)
  1097f8:	8821883a 	mov	r16,r17
  1097fc:	d0a02b04 	addi	r2,gp,-32596
  109800:	80bfe31e 	bne	r16,r2,109790 <alt_tick+0x24>
  109804:	dfc00217 	ldw	ra,8(sp)
  109808:	dc400117 	ldw	r17,4(sp)
  10980c:	dc000017 	ldw	r16,0(sp)
  109810:	dec00304 	addi	sp,sp,12
  109814:	01045101 	jmpi	104510 <OSTimeTick>

00109818 <altera_nios2_qsys_irq_init>:
  109818:	000170fa 	wrctl	ienable,zero
  10981c:	f800283a 	ret

00109820 <OSCtxSw>:
  109820:	defff504 	addi	sp,sp,-44
  109824:	d0e00017 	ldw	r3,-32768(gp)
  109828:	d1270e17 	ldw	r4,-25544(gp)
  10982c:	dfc00015 	stw	ra,0(sp)
  109830:	df000115 	stw	fp,4(sp)
  109834:	ddc00215 	stw	r23,8(sp)
  109838:	dd800315 	stw	r22,12(sp)
  10983c:	dd400415 	stw	r21,16(sp)
  109840:	dd000515 	stw	r20,20(sp)
  109844:	dcc00615 	stw	r19,24(sp)
  109848:	dc800715 	stw	r18,28(sp)
  10984c:	dc400815 	stw	r17,32(sp)
  109850:	dc000915 	stw	r16,36(sp)
  109854:	d8c00a15 	stw	r3,40(sp)
  109858:	26c00015 	stw	sp,0(r4)
  10985c:	01098f80 	call	1098f8 <OSTaskSwHook>
  109860:	d1270917 	ldw	r4,-25564(gp)
  109864:	d1670087 	ldb	r5,-25598(gp)
  109868:	d1270e15 	stw	r4,-25544(gp)
  10986c:	d16700c5 	stb	r5,-25597(gp)
  109870:	26c00017 	ldw	sp,0(r4)
  109874:	d8c00a17 	ldw	r3,40(sp)
  109878:	dfc00017 	ldw	ra,0(sp)
  10987c:	df000117 	ldw	fp,4(sp)
  109880:	ddc00217 	ldw	r23,8(sp)
  109884:	dd800317 	ldw	r22,12(sp)
  109888:	dd400417 	ldw	r21,16(sp)
  10988c:	dd000517 	ldw	r20,20(sp)
  109890:	dcc00617 	ldw	r19,24(sp)
  109894:	dc800717 	ldw	r18,28(sp)
  109898:	dc400817 	ldw	r17,32(sp)
  10989c:	dc000917 	ldw	r16,36(sp)
  1098a0:	d0e00015 	stw	r3,-32768(gp)
  1098a4:	dec00b04 	addi	sp,sp,44
  1098a8:	f800283a 	ret

001098ac <OSStartHighRdy>:
  1098ac:	0025303a 	rdctl	r18,status
  1098b0:	047fff84 	movi	r17,-2
  1098b4:	9464703a 	and	r18,r18,r17
  1098b8:	9001703a 	wrctl	status,r18
  1098bc:	01098f80 	call	1098f8 <OSTaskSwHook>
  1098c0:	04800044 	movi	r18,1
  1098c4:	d4a6fe05 	stb	r18,-25608(gp)
  1098c8:	003fe506 	br	109860 <OSCtxSw+0x40>

001098cc <OSStartTsk>:
  1098cc:	06c00004 	movi	sp,0
  1098d0:	0005303a 	rdctl	r2,status
  1098d4:	10800054 	ori	r2,r2,1
  1098d8:	1001703a 	wrctl	status,r2
  1098dc:	d8800117 	ldw	r2,4(sp)
  1098e0:	d9000017 	ldw	r4,0(sp)
  1098e4:	dec00204 	addi	sp,sp,8
  1098e8:	103ee83a 	callr	r2
  1098ec:	0001883a 	nop

001098f0 <OSTaskCreateHook>:
  1098f0:	f800283a 	ret

001098f4 <OSTaskDelHook>:
  1098f4:	f800283a 	ret

001098f8 <OSTaskSwHook>:
  1098f8:	f800283a 	ret

001098fc <OSTaskStatHook>:
  1098fc:	f800283a 	ret

00109900 <OSInitHookBegin>:
  109900:	d027180d 	sth	zero,-25504(gp)
  109904:	f800283a 	ret

00109908 <OSInitHookEnd>:
  109908:	f800283a 	ret

0010990c <OSTaskIdleHook>:
  10990c:	f800283a 	ret

00109910 <OSTCBInitHook>:
  109910:	f800283a 	ret

00109914 <OSTimeTickHook>:
  109914:	d0a7180b 	ldhu	r2,-25504(gp)
  109918:	deffff04 	addi	sp,sp,-4
  10991c:	dfc00015 	stw	ra,0(sp)
  109920:	10800044 	addi	r2,r2,1
  109924:	113fffcc 	andi	r4,r2,65535
  109928:	d0a7180d 	sth	r2,-25504(gp)
  10992c:	010ac4c0 	call	10ac4c <__floatsidf>
  109930:	0011883a 	mov	r8,zero
  109934:	02501674 	movhi	r9,16473
  109938:	180b883a 	mov	r5,r3
  10993c:	480f883a 	mov	r7,r9
  109940:	1009883a 	mov	r4,r2
  109944:	400d883a 	mov	r6,r8
  109948:	010abc40 	call	10abc4 <__gedf2>
  10994c:	10000416 	blt	r2,zero,109960 <OSTimeTickHook+0x4c>
  109950:	d027180d 	sth	zero,-25504(gp)
  109954:	dfc00017 	ldw	ra,0(sp)
  109958:	dec00104 	addi	sp,sp,4
  10995c:	01084701 	jmpi	108470 <OSTmrSignal>
  109960:	dfc00017 	ldw	ra,0(sp)
  109964:	dec00104 	addi	sp,sp,4
  109968:	f800283a 	ret

0010996c <OSTaskStkInit>:
  10996c:	defffb04 	addi	sp,sp,-20
  109970:	00bfff04 	movi	r2,-4
  109974:	dc000015 	stw	r16,0(sp)
  109978:	30a0703a 	and	r16,r6,r2
  10997c:	843f0004 	addi	r16,r16,-1024
  109980:	dc400115 	stw	r17,4(sp)
  109984:	8440bb04 	addi	r17,r16,748
  109988:	88c02e04 	addi	r3,r17,184
  10998c:	88801704 	addi	r2,r17,92
  109990:	80c00315 	stw	r3,12(r16)
  109994:	dcc00315 	stw	r19,12(sp)
  109998:	dc800215 	stw	r18,8(sp)
  10999c:	2827883a 	mov	r19,r5
  1099a0:	2025883a 	mov	r18,r4
  1099a4:	80800215 	stw	r2,8(r16)
  1099a8:	81000504 	addi	r4,r16,20
  1099ac:	80000015 	stw	zero,0(r16)
  1099b0:	84400115 	stw	r17,4(r16)
  1099b4:	80000415 	stw	zero,16(r16)
  1099b8:	000b883a 	mov	r5,zero
  1099bc:	01800644 	movi	r6,25
  1099c0:	dfc00415 	stw	ra,16(sp)
  1099c4:	010247c0 	call	10247c <memset>
  1099c8:	00800474 	movhi	r2,17
  1099cc:	10ae0d04 	addi	r2,r2,-18380
  1099d0:	81001f04 	addi	r4,r16,124
  1099d4:	80800d15 	stw	r2,52(r16)
  1099d8:	80000c15 	stw	zero,48(r16)
  1099dc:	80000e15 	stw	zero,56(r16)
  1099e0:	80000f15 	stw	zero,60(r16)
  1099e4:	80001015 	stw	zero,64(r16)
  1099e8:	80001115 	stw	zero,68(r16)
  1099ec:	80001215 	stw	zero,72(r16)
  1099f0:	80001315 	stw	zero,76(r16)
  1099f4:	80001415 	stw	zero,80(r16)
  1099f8:	80001515 	stw	zero,84(r16)
  1099fc:	80001615 	stw	zero,88(r16)
  109a00:	80001715 	stw	zero,92(r16)
  109a04:	80001805 	stb	zero,96(r16)
  109a08:	000b883a 	mov	r5,zero
  109a0c:	01800904 	movi	r6,36
  109a10:	010247c0 	call	10247c <memset>
  109a14:	00800044 	movi	r2,1
  109a18:	80802915 	stw	r2,164(r16)
  109a1c:	008cc384 	movi	r2,13070
  109a20:	80802b0d 	sth	r2,172(r16)
  109a24:	00aaf344 	movi	r2,-21555
  109a28:	80802b8d 	sth	r2,174(r16)
  109a2c:	00848d04 	movi	r2,4660
  109a30:	80802c0d 	sth	r2,176(r16)
  109a34:	00b99b44 	movi	r2,-6547
  109a38:	80802c8d 	sth	r2,178(r16)
  109a3c:	00b7bb04 	movi	r2,-8468
  109a40:	80802d0d 	sth	r2,180(r16)
  109a44:	00800144 	movi	r2,5
  109a48:	80802d8d 	sth	r2,182(r16)
  109a4c:	008002c4 	movi	r2,11
  109a50:	80802e0d 	sth	r2,184(r16)
  109a54:	80002815 	stw	zero,160(r16)
  109a58:	80002a15 	stw	zero,168(r16)
  109a5c:	80002f15 	stw	zero,188(r16)
  109a60:	80003015 	stw	zero,192(r16)
  109a64:	80003115 	stw	zero,196(r16)
  109a68:	80003215 	stw	zero,200(r16)
  109a6c:	80003315 	stw	zero,204(r16)
  109a70:	80003415 	stw	zero,208(r16)
  109a74:	80003e15 	stw	zero,248(r16)
  109a78:	80003f15 	stw	zero,252(r16)
  109a7c:	80004015 	stw	zero,256(r16)
  109a80:	80004115 	stw	zero,260(r16)
  109a84:	80004215 	stw	zero,264(r16)
  109a88:	80004315 	stw	zero,268(r16)
  109a8c:	80004415 	stw	zero,272(r16)
  109a90:	80004515 	stw	zero,276(r16)
  109a94:	80004615 	stw	zero,280(r16)
  109a98:	80004715 	stw	zero,284(r16)
  109a9c:	80003505 	stb	zero,212(r16)
  109aa0:	80003705 	stb	zero,220(r16)
  109aa4:	80003d15 	stw	zero,244(r16)
  109aa8:	80005215 	stw	zero,328(r16)
  109aac:	80005315 	stw	zero,332(r16)
  109ab0:	80005415 	stw	zero,336(r16)
  109ab4:	80005515 	stw	zero,340(r16)
  109ab8:	8000b515 	stw	zero,724(r16)
  109abc:	8809883a 	mov	r4,r17
  109ac0:	80007515 	stw	zero,468(r16)
  109ac4:	8000b715 	stw	zero,732(r16)
  109ac8:	8000b815 	stw	zero,736(r16)
  109acc:	8000b915 	stw	zero,740(r16)
  109ad0:	8000ba15 	stw	zero,744(r16)
  109ad4:	000b883a 	mov	r5,zero
  109ad8:	01804504 	movi	r6,276
  109adc:	010247c0 	call	10247c <memset>
  109ae0:	80bff304 	addi	r2,r16,-52
  109ae4:	00c00474 	movhi	r3,17
  109ae8:	18e63404 	addi	r3,r3,-26416
  109aec:	14800c15 	stw	r18,48(r2)
  109af0:	14c00b15 	stw	r19,44(r2)
  109af4:	14000a15 	stw	r16,40(r2)
  109af8:	10c00015 	stw	r3,0(r2)
  109afc:	dfc00417 	ldw	ra,16(sp)
  109b00:	dcc00317 	ldw	r19,12(sp)
  109b04:	dc800217 	ldw	r18,8(sp)
  109b08:	dc400117 	ldw	r17,4(sp)
  109b0c:	dc000017 	ldw	r16,0(sp)
  109b10:	dec00504 	addi	sp,sp,20
  109b14:	f800283a 	ret

00109b18 <alt_find_file>:
  109b18:	defffc04 	addi	sp,sp,-16
  109b1c:	00800474 	movhi	r2,17
  109b20:	10b54c04 	addi	r2,r2,-10960
  109b24:	dc400115 	stw	r17,4(sp)
  109b28:	14400017 	ldw	r17,0(r2)
  109b2c:	dc800215 	stw	r18,8(sp)
  109b30:	2025883a 	mov	r18,r4
  109b34:	dfc00315 	stw	ra,12(sp)
  109b38:	dc000015 	stw	r16,0(sp)
  109b3c:	00001206 	br	109b88 <alt_find_file+0x70>
  109b40:	8c000217 	ldw	r16,8(r17)
  109b44:	8009883a 	mov	r4,r16
  109b48:	01007680 	call	100768 <strlen>
  109b4c:	100d883a 	mov	r6,r2
  109b50:	8085883a 	add	r2,r16,r2
  109b54:	10bfffc7 	ldb	r2,-1(r2)
  109b58:	00c00bc4 	movi	r3,47
  109b5c:	8009883a 	mov	r4,r16
  109b60:	900b883a 	mov	r5,r18
  109b64:	10c0011e 	bne	r2,r3,109b6c <alt_find_file+0x54>
  109b68:	31bfffc4 	addi	r6,r6,-1
  109b6c:	9185883a 	add	r2,r18,r6
  109b70:	10800007 	ldb	r2,0(r2)
  109b74:	10c00126 	beq	r2,r3,109b7c <alt_find_file+0x64>
  109b78:	1000021e 	bne	r2,zero,109b84 <alt_find_file+0x6c>
  109b7c:	0109ca40 	call	109ca4 <memcmp>
  109b80:	10000526 	beq	r2,zero,109b98 <alt_find_file+0x80>
  109b84:	8c400017 	ldw	r17,0(r17)
  109b88:	00800474 	movhi	r2,17
  109b8c:	10b54c04 	addi	r2,r2,-10960
  109b90:	88bfeb1e 	bne	r17,r2,109b40 <alt_find_file+0x28>
  109b94:	0023883a 	mov	r17,zero
  109b98:	8805883a 	mov	r2,r17
  109b9c:	dfc00317 	ldw	ra,12(sp)
  109ba0:	dc800217 	ldw	r18,8(sp)
  109ba4:	dc400117 	ldw	r17,4(sp)
  109ba8:	dc000017 	ldw	r16,0(sp)
  109bac:	dec00404 	addi	sp,sp,16
  109bb0:	f800283a 	ret

00109bb4 <alt_get_fd>:
  109bb4:	defffd04 	addi	sp,sp,-12
  109bb8:	00800474 	movhi	r2,17
  109bbc:	10bc3b04 	addi	r2,r2,-3860
  109bc0:	dc000115 	stw	r16,4(sp)
  109bc4:	2021883a 	mov	r16,r4
  109bc8:	11000017 	ldw	r4,0(r2)
  109bcc:	000b883a 	mov	r5,zero
  109bd0:	d80d883a 	mov	r6,sp
  109bd4:	dfc00215 	stw	ra,8(sp)
  109bd8:	01066480 	call	106648 <OSSemPend>
  109bdc:	01000474 	movhi	r4,17
  109be0:	2130c204 	addi	r4,r4,-15608
  109be4:	0007883a 	mov	r3,zero
  109be8:	200b883a 	mov	r5,r4
  109bec:	20800017 	ldw	r2,0(r4)
  109bf0:	21000304 	addi	r4,r4,12
  109bf4:	10000a1e 	bne	r2,zero,109c20 <alt_get_fd+0x6c>
  109bf8:	01000474 	movhi	r4,17
  109bfc:	21355004 	addi	r4,r4,-10944
  109c00:	20800017 	ldw	r2,0(r4)
  109c04:	2c000015 	stw	r16,0(r5)
  109c08:	10c00216 	blt	r2,r3,109c14 <alt_get_fd+0x60>
  109c0c:	1821883a 	mov	r16,r3
  109c10:	00000806 	br	109c34 <alt_get_fd+0x80>
  109c14:	1821883a 	mov	r16,r3
  109c18:	20c00015 	stw	r3,0(r4)
  109c1c:	00000506 	br	109c34 <alt_get_fd+0x80>
  109c20:	18c00044 	addi	r3,r3,1
  109c24:	00800804 	movi	r2,32
  109c28:	29400304 	addi	r5,r5,12
  109c2c:	18bfef1e 	bne	r3,r2,109bec <alt_get_fd+0x38>
  109c30:	043ffa04 	movi	r16,-24
  109c34:	00800474 	movhi	r2,17
  109c38:	10bc3b04 	addi	r2,r2,-3860
  109c3c:	11000017 	ldw	r4,0(r2)
  109c40:	010689c0 	call	10689c <OSSemPost>
  109c44:	8005883a 	mov	r2,r16
  109c48:	dfc00217 	ldw	ra,8(sp)
  109c4c:	dc000117 	ldw	r16,4(sp)
  109c50:	dec00304 	addi	sp,sp,12
  109c54:	f800283a 	ret

00109c58 <atexit>:
  109c58:	200b883a 	mov	r5,r4
  109c5c:	000d883a 	mov	r6,zero
  109c60:	0009883a 	mov	r4,zero
  109c64:	000f883a 	mov	r7,zero
  109c68:	0109d181 	jmpi	109d18 <__register_exitproc>

00109c6c <exit>:
  109c6c:	defffe04 	addi	sp,sp,-8
  109c70:	000b883a 	mov	r5,zero
  109c74:	dc000015 	stw	r16,0(sp)
  109c78:	dfc00115 	stw	ra,4(sp)
  109c7c:	2021883a 	mov	r16,r4
  109c80:	0109e500 	call	109e50 <__call_exitprocs>
  109c84:	00800474 	movhi	r2,17
  109c88:	10b54904 	addi	r2,r2,-10972
  109c8c:	11000017 	ldw	r4,0(r2)
  109c90:	20800f17 	ldw	r2,60(r4)
  109c94:	10000126 	beq	r2,zero,109c9c <exit+0x30>
  109c98:	103ee83a 	callr	r2
  109c9c:	8009883a 	mov	r4,r16
  109ca0:	010b7b40 	call	10b7b4 <_exit>

00109ca4 <memcmp>:
  109ca4:	00c000c4 	movi	r3,3
  109ca8:	1980032e 	bgeu	r3,r6,109cb8 <memcmp+0x14>
  109cac:	2144b03a 	or	r2,r4,r5
  109cb0:	10c4703a 	and	r2,r2,r3
  109cb4:	10000f26 	beq	r2,zero,109cf4 <memcmp+0x50>
  109cb8:	31ffffc4 	addi	r7,r6,-1
  109cbc:	3000061e 	bne	r6,zero,109cd8 <memcmp+0x34>
  109cc0:	00000a06 	br	109cec <memcmp+0x48>
  109cc4:	39ffffc4 	addi	r7,r7,-1
  109cc8:	00bfffc4 	movi	r2,-1
  109ccc:	21000044 	addi	r4,r4,1
  109cd0:	29400044 	addi	r5,r5,1
  109cd4:	38800526 	beq	r7,r2,109cec <memcmp+0x48>
  109cd8:	20c00003 	ldbu	r3,0(r4)
  109cdc:	28800003 	ldbu	r2,0(r5)
  109ce0:	18bff826 	beq	r3,r2,109cc4 <memcmp+0x20>
  109ce4:	1885c83a 	sub	r2,r3,r2
  109ce8:	f800283a 	ret
  109cec:	0005883a 	mov	r2,zero
  109cf0:	f800283a 	ret
  109cf4:	180f883a 	mov	r7,r3
  109cf8:	20c00017 	ldw	r3,0(r4)
  109cfc:	28800017 	ldw	r2,0(r5)
  109d00:	18bfed1e 	bne	r3,r2,109cb8 <memcmp+0x14>
  109d04:	31bfff04 	addi	r6,r6,-4
  109d08:	21000104 	addi	r4,r4,4
  109d0c:	29400104 	addi	r5,r5,4
  109d10:	39bff936 	bltu	r7,r6,109cf8 <memcmp+0x54>
  109d14:	003fe806 	br	109cb8 <memcmp+0x14>

00109d18 <__register_exitproc>:
  109d18:	defffa04 	addi	sp,sp,-24
  109d1c:	00800474 	movhi	r2,17
  109d20:	10b54904 	addi	r2,r2,-10972
  109d24:	dc000015 	stw	r16,0(sp)
  109d28:	14000017 	ldw	r16,0(r2)
  109d2c:	dd000415 	stw	r20,16(sp)
  109d30:	2829883a 	mov	r20,r5
  109d34:	81405217 	ldw	r5,328(r16)
  109d38:	dcc00315 	stw	r19,12(sp)
  109d3c:	dc800215 	stw	r18,8(sp)
  109d40:	dc400115 	stw	r17,4(sp)
  109d44:	dfc00515 	stw	ra,20(sp)
  109d48:	2023883a 	mov	r17,r4
  109d4c:	3027883a 	mov	r19,r6
  109d50:	3825883a 	mov	r18,r7
  109d54:	28002526 	beq	r5,zero,109dec <__register_exitproc+0xd4>
  109d58:	29000117 	ldw	r4,4(r5)
  109d5c:	008007c4 	movi	r2,31
  109d60:	11002716 	blt	r2,r4,109e00 <__register_exitproc+0xe8>
  109d64:	8800101e 	bne	r17,zero,109da8 <__register_exitproc+0x90>
  109d68:	2105883a 	add	r2,r4,r4
  109d6c:	1085883a 	add	r2,r2,r2
  109d70:	20c00044 	addi	r3,r4,1
  109d74:	1145883a 	add	r2,r2,r5
  109d78:	0009883a 	mov	r4,zero
  109d7c:	15000215 	stw	r20,8(r2)
  109d80:	28c00115 	stw	r3,4(r5)
  109d84:	2005883a 	mov	r2,r4
  109d88:	dfc00517 	ldw	ra,20(sp)
  109d8c:	dd000417 	ldw	r20,16(sp)
  109d90:	dcc00317 	ldw	r19,12(sp)
  109d94:	dc800217 	ldw	r18,8(sp)
  109d98:	dc400117 	ldw	r17,4(sp)
  109d9c:	dc000017 	ldw	r16,0(sp)
  109da0:	dec00604 	addi	sp,sp,24
  109da4:	f800283a 	ret
  109da8:	29802204 	addi	r6,r5,136
  109dac:	00800044 	movi	r2,1
  109db0:	110e983a 	sll	r7,r2,r4
  109db4:	30c04017 	ldw	r3,256(r6)
  109db8:	2105883a 	add	r2,r4,r4
  109dbc:	1085883a 	add	r2,r2,r2
  109dc0:	1185883a 	add	r2,r2,r6
  109dc4:	19c6b03a 	or	r3,r3,r7
  109dc8:	14802015 	stw	r18,128(r2)
  109dcc:	14c00015 	stw	r19,0(r2)
  109dd0:	00800084 	movi	r2,2
  109dd4:	30c04015 	stw	r3,256(r6)
  109dd8:	88bfe31e 	bne	r17,r2,109d68 <__register_exitproc+0x50>
  109ddc:	30804117 	ldw	r2,260(r6)
  109de0:	11c4b03a 	or	r2,r2,r7
  109de4:	30804115 	stw	r2,260(r6)
  109de8:	003fdf06 	br	109d68 <__register_exitproc+0x50>
  109dec:	008004b4 	movhi	r2,18
  109df0:	10a40804 	addi	r2,r2,-28640
  109df4:	100b883a 	mov	r5,r2
  109df8:	80805215 	stw	r2,328(r16)
  109dfc:	003fd606 	br	109d58 <__register_exitproc+0x40>
  109e00:	00800034 	movhi	r2,0
  109e04:	10800004 	addi	r2,r2,0
  109e08:	1000021e 	bne	r2,zero,109e14 <__register_exitproc+0xfc>
  109e0c:	013fffc4 	movi	r4,-1
  109e10:	003fdc06 	br	109d84 <__register_exitproc+0x6c>
  109e14:	01006404 	movi	r4,400
  109e18:	103ee83a 	callr	r2
  109e1c:	1007883a 	mov	r3,r2
  109e20:	103ffa26 	beq	r2,zero,109e0c <__register_exitproc+0xf4>
  109e24:	80805217 	ldw	r2,328(r16)
  109e28:	180b883a 	mov	r5,r3
  109e2c:	18000115 	stw	zero,4(r3)
  109e30:	18800015 	stw	r2,0(r3)
  109e34:	80c05215 	stw	r3,328(r16)
  109e38:	18006215 	stw	zero,392(r3)
  109e3c:	18006315 	stw	zero,396(r3)
  109e40:	0009883a 	mov	r4,zero
  109e44:	883fc826 	beq	r17,zero,109d68 <__register_exitproc+0x50>
  109e48:	003fd706 	br	109da8 <__register_exitproc+0x90>

00109e4c <register_fini>:
  109e4c:	f800283a 	ret

00109e50 <__call_exitprocs>:
  109e50:	00800474 	movhi	r2,17
  109e54:	10b54904 	addi	r2,r2,-10972
  109e58:	10800017 	ldw	r2,0(r2)
  109e5c:	defff304 	addi	sp,sp,-52
  109e60:	df000b15 	stw	fp,44(sp)
  109e64:	d8800115 	stw	r2,4(sp)
  109e68:	00800034 	movhi	r2,0
  109e6c:	10800004 	addi	r2,r2,0
  109e70:	1005003a 	cmpeq	r2,r2,zero
  109e74:	d8800215 	stw	r2,8(sp)
  109e78:	d8800117 	ldw	r2,4(sp)
  109e7c:	dd400815 	stw	r21,32(sp)
  109e80:	dd000715 	stw	r20,28(sp)
  109e84:	10805204 	addi	r2,r2,328
  109e88:	dfc00c15 	stw	ra,48(sp)
  109e8c:	ddc00a15 	stw	r23,40(sp)
  109e90:	dd800915 	stw	r22,36(sp)
  109e94:	dcc00615 	stw	r19,24(sp)
  109e98:	dc800515 	stw	r18,20(sp)
  109e9c:	dc400415 	stw	r17,16(sp)
  109ea0:	dc000315 	stw	r16,12(sp)
  109ea4:	282b883a 	mov	r21,r5
  109ea8:	2039883a 	mov	fp,r4
  109eac:	d8800015 	stw	r2,0(sp)
  109eb0:	2829003a 	cmpeq	r20,r5,zero
  109eb4:	d8800117 	ldw	r2,4(sp)
  109eb8:	14405217 	ldw	r17,328(r2)
  109ebc:	88001026 	beq	r17,zero,109f00 <__call_exitprocs+0xb0>
  109ec0:	ddc00017 	ldw	r23,0(sp)
  109ec4:	88800117 	ldw	r2,4(r17)
  109ec8:	8c802204 	addi	r18,r17,136
  109ecc:	143fffc4 	addi	r16,r2,-1
  109ed0:	80000916 	blt	r16,zero,109ef8 <__call_exitprocs+0xa8>
  109ed4:	05bfffc4 	movi	r22,-1
  109ed8:	a000151e 	bne	r20,zero,109f30 <__call_exitprocs+0xe0>
  109edc:	8409883a 	add	r4,r16,r16
  109ee0:	2105883a 	add	r2,r4,r4
  109ee4:	1485883a 	add	r2,r2,r18
  109ee8:	10c02017 	ldw	r3,128(r2)
  109eec:	a8c01126 	beq	r21,r3,109f34 <__call_exitprocs+0xe4>
  109ef0:	843fffc4 	addi	r16,r16,-1
  109ef4:	85bff81e 	bne	r16,r22,109ed8 <__call_exitprocs+0x88>
  109ef8:	d8800217 	ldw	r2,8(sp)
  109efc:	10003126 	beq	r2,zero,109fc4 <__call_exitprocs+0x174>
  109f00:	dfc00c17 	ldw	ra,48(sp)
  109f04:	df000b17 	ldw	fp,44(sp)
  109f08:	ddc00a17 	ldw	r23,40(sp)
  109f0c:	dd800917 	ldw	r22,36(sp)
  109f10:	dd400817 	ldw	r21,32(sp)
  109f14:	dd000717 	ldw	r20,28(sp)
  109f18:	dcc00617 	ldw	r19,24(sp)
  109f1c:	dc800517 	ldw	r18,20(sp)
  109f20:	dc400417 	ldw	r17,16(sp)
  109f24:	dc000317 	ldw	r16,12(sp)
  109f28:	dec00d04 	addi	sp,sp,52
  109f2c:	f800283a 	ret
  109f30:	8409883a 	add	r4,r16,r16
  109f34:	88c00117 	ldw	r3,4(r17)
  109f38:	2105883a 	add	r2,r4,r4
  109f3c:	1445883a 	add	r2,r2,r17
  109f40:	18ffffc4 	addi	r3,r3,-1
  109f44:	11800217 	ldw	r6,8(r2)
  109f48:	1c001526 	beq	r3,r16,109fa0 <__call_exitprocs+0x150>
  109f4c:	10000215 	stw	zero,8(r2)
  109f50:	303fe726 	beq	r6,zero,109ef0 <__call_exitprocs+0xa0>
  109f54:	00c00044 	movi	r3,1
  109f58:	1c06983a 	sll	r3,r3,r16
  109f5c:	90804017 	ldw	r2,256(r18)
  109f60:	8cc00117 	ldw	r19,4(r17)
  109f64:	1884703a 	and	r2,r3,r2
  109f68:	10001426 	beq	r2,zero,109fbc <__call_exitprocs+0x16c>
  109f6c:	90804117 	ldw	r2,260(r18)
  109f70:	1884703a 	and	r2,r3,r2
  109f74:	10000c1e 	bne	r2,zero,109fa8 <__call_exitprocs+0x158>
  109f78:	2105883a 	add	r2,r4,r4
  109f7c:	1485883a 	add	r2,r2,r18
  109f80:	11400017 	ldw	r5,0(r2)
  109f84:	e009883a 	mov	r4,fp
  109f88:	303ee83a 	callr	r6
  109f8c:	88800117 	ldw	r2,4(r17)
  109f90:	98bfc81e 	bne	r19,r2,109eb4 <__call_exitprocs+0x64>
  109f94:	b8800017 	ldw	r2,0(r23)
  109f98:	147fd526 	beq	r2,r17,109ef0 <__call_exitprocs+0xa0>
  109f9c:	003fc506 	br	109eb4 <__call_exitprocs+0x64>
  109fa0:	8c000115 	stw	r16,4(r17)
  109fa4:	003fea06 	br	109f50 <__call_exitprocs+0x100>
  109fa8:	2105883a 	add	r2,r4,r4
  109fac:	1485883a 	add	r2,r2,r18
  109fb0:	11000017 	ldw	r4,0(r2)
  109fb4:	303ee83a 	callr	r6
  109fb8:	003ff406 	br	109f8c <__call_exitprocs+0x13c>
  109fbc:	303ee83a 	callr	r6
  109fc0:	003ff206 	br	109f8c <__call_exitprocs+0x13c>
  109fc4:	88800117 	ldw	r2,4(r17)
  109fc8:	1000081e 	bne	r2,zero,109fec <__call_exitprocs+0x19c>
  109fcc:	89000017 	ldw	r4,0(r17)
  109fd0:	20000726 	beq	r4,zero,109ff0 <__call_exitprocs+0x1a0>
  109fd4:	b9000015 	stw	r4,0(r23)
  109fd8:	8809883a 	mov	r4,r17
  109fdc:	00000000 	call	0 <__alt_mem_onchip_memory>
  109fe0:	bc400017 	ldw	r17,0(r23)
  109fe4:	883fb71e 	bne	r17,zero,109ec4 <__call_exitprocs+0x74>
  109fe8:	003fc506 	br	109f00 <__call_exitprocs+0xb0>
  109fec:	89000017 	ldw	r4,0(r17)
  109ff0:	882f883a 	mov	r23,r17
  109ff4:	2023883a 	mov	r17,r4
  109ff8:	883fb21e 	bne	r17,zero,109ec4 <__call_exitprocs+0x74>
  109ffc:	003fc006 	br	109f00 <__call_exitprocs+0xb0>

0010a000 <__fixunsdfsi>:
  10a000:	defffb04 	addi	sp,sp,-20
  10a004:	dc400115 	stw	r17,4(sp)
  10a008:	dc000015 	stw	r16,0(sp)
  10a00c:	04507834 	movhi	r17,16864
  10a010:	0021883a 	mov	r16,zero
  10a014:	800d883a 	mov	r6,r16
  10a018:	880f883a 	mov	r7,r17
  10a01c:	dcc00315 	stw	r19,12(sp)
  10a020:	dc800215 	stw	r18,8(sp)
  10a024:	2827883a 	mov	r19,r5
  10a028:	2025883a 	mov	r18,r4
  10a02c:	dfc00415 	stw	ra,16(sp)
  10a030:	010abc40 	call	10abc4 <__gedf2>
  10a034:	000d883a 	mov	r6,zero
  10a038:	880f883a 	mov	r7,r17
  10a03c:	980b883a 	mov	r5,r19
  10a040:	9009883a 	mov	r4,r18
  10a044:	10000d16 	blt	r2,zero,10a07c <__fixunsdfsi+0x7c>
  10a048:	010a4b40 	call	10a4b4 <__subdf3>
  10a04c:	180b883a 	mov	r5,r3
  10a050:	1009883a 	mov	r4,r2
  10a054:	010ad440 	call	10ad44 <__fixdfsi>
  10a058:	00e00034 	movhi	r3,32768
  10a05c:	10c5883a 	add	r2,r2,r3
  10a060:	dfc00417 	ldw	ra,16(sp)
  10a064:	dcc00317 	ldw	r19,12(sp)
  10a068:	dc800217 	ldw	r18,8(sp)
  10a06c:	dc400117 	ldw	r17,4(sp)
  10a070:	dc000017 	ldw	r16,0(sp)
  10a074:	dec00504 	addi	sp,sp,20
  10a078:	f800283a 	ret
  10a07c:	980b883a 	mov	r5,r19
  10a080:	9009883a 	mov	r4,r18
  10a084:	010ad440 	call	10ad44 <__fixdfsi>
  10a088:	dfc00417 	ldw	ra,16(sp)
  10a08c:	dcc00317 	ldw	r19,12(sp)
  10a090:	dc800217 	ldw	r18,8(sp)
  10a094:	dc400117 	ldw	r17,4(sp)
  10a098:	dc000017 	ldw	r16,0(sp)
  10a09c:	dec00504 	addi	sp,sp,20
  10a0a0:	f800283a 	ret

0010a0a4 <_fpadd_parts>:
  10a0a4:	defff804 	addi	sp,sp,-32
  10a0a8:	dcc00315 	stw	r19,12(sp)
  10a0ac:	2027883a 	mov	r19,r4
  10a0b0:	21000017 	ldw	r4,0(r4)
  10a0b4:	00c00044 	movi	r3,1
  10a0b8:	dd400515 	stw	r21,20(sp)
  10a0bc:	dd000415 	stw	r20,16(sp)
  10a0c0:	ddc00715 	stw	r23,28(sp)
  10a0c4:	dd800615 	stw	r22,24(sp)
  10a0c8:	dc800215 	stw	r18,8(sp)
  10a0cc:	dc400115 	stw	r17,4(sp)
  10a0d0:	dc000015 	stw	r16,0(sp)
  10a0d4:	282b883a 	mov	r21,r5
  10a0d8:	3029883a 	mov	r20,r6
  10a0dc:	1900632e 	bgeu	r3,r4,10a26c <_fpadd_parts+0x1c8>
  10a0e0:	28800017 	ldw	r2,0(r5)
  10a0e4:	1880812e 	bgeu	r3,r2,10a2ec <_fpadd_parts+0x248>
  10a0e8:	00c00104 	movi	r3,4
  10a0ec:	20c0dc26 	beq	r4,r3,10a460 <_fpadd_parts+0x3bc>
  10a0f0:	10c07e26 	beq	r2,r3,10a2ec <_fpadd_parts+0x248>
  10a0f4:	00c00084 	movi	r3,2
  10a0f8:	10c06726 	beq	r2,r3,10a298 <_fpadd_parts+0x1f4>
  10a0fc:	20c07b26 	beq	r4,r3,10a2ec <_fpadd_parts+0x248>
  10a100:	9dc00217 	ldw	r23,8(r19)
  10a104:	28c00217 	ldw	r3,8(r5)
  10a108:	9c400317 	ldw	r17,12(r19)
  10a10c:	2bc00317 	ldw	r15,12(r5)
  10a110:	b8cdc83a 	sub	r6,r23,r3
  10a114:	9c800417 	ldw	r18,16(r19)
  10a118:	2c000417 	ldw	r16,16(r5)
  10a11c:	3009883a 	mov	r4,r6
  10a120:	30009716 	blt	r6,zero,10a380 <_fpadd_parts+0x2dc>
  10a124:	00800fc4 	movi	r2,63
  10a128:	11806b16 	blt	r2,r6,10a2d8 <_fpadd_parts+0x234>
  10a12c:	0100a40e 	bge	zero,r4,10a3c0 <_fpadd_parts+0x31c>
  10a130:	35bff804 	addi	r22,r6,-32
  10a134:	b000bc16 	blt	r22,zero,10a428 <_fpadd_parts+0x384>
  10a138:	8596d83a 	srl	r11,r16,r22
  10a13c:	0019883a 	mov	r12,zero
  10a140:	0013883a 	mov	r9,zero
  10a144:	01000044 	movi	r4,1
  10a148:	0015883a 	mov	r10,zero
  10a14c:	b000be16 	blt	r22,zero,10a448 <_fpadd_parts+0x3a4>
  10a150:	2590983a 	sll	r8,r4,r22
  10a154:	000f883a 	mov	r7,zero
  10a158:	00bfffc4 	movi	r2,-1
  10a15c:	3889883a 	add	r4,r7,r2
  10a160:	408b883a 	add	r5,r8,r2
  10a164:	21cd803a 	cmpltu	r6,r4,r7
  10a168:	314b883a 	add	r5,r6,r5
  10a16c:	7904703a 	and	r2,r15,r4
  10a170:	8146703a 	and	r3,r16,r5
  10a174:	10c4b03a 	or	r2,r2,r3
  10a178:	10000226 	beq	r2,zero,10a184 <_fpadd_parts+0xe0>
  10a17c:	02400044 	movi	r9,1
  10a180:	0015883a 	mov	r10,zero
  10a184:	5a5eb03a 	or	r15,r11,r9
  10a188:	62a0b03a 	or	r16,r12,r10
  10a18c:	99400117 	ldw	r5,4(r19)
  10a190:	a8800117 	ldw	r2,4(r21)
  10a194:	28806e26 	beq	r5,r2,10a350 <_fpadd_parts+0x2ac>
  10a198:	28006626 	beq	r5,zero,10a334 <_fpadd_parts+0x290>
  10a19c:	7c45c83a 	sub	r2,r15,r17
  10a1a0:	7889803a 	cmpltu	r4,r15,r2
  10a1a4:	8487c83a 	sub	r3,r16,r18
  10a1a8:	1909c83a 	sub	r4,r3,r4
  10a1ac:	100d883a 	mov	r6,r2
  10a1b0:	200f883a 	mov	r7,r4
  10a1b4:	38007716 	blt	r7,zero,10a394 <_fpadd_parts+0x2f0>
  10a1b8:	a5c00215 	stw	r23,8(r20)
  10a1bc:	a1c00415 	stw	r7,16(r20)
  10a1c0:	a0000115 	stw	zero,4(r20)
  10a1c4:	a1800315 	stw	r6,12(r20)
  10a1c8:	a2000317 	ldw	r8,12(r20)
  10a1cc:	a2400417 	ldw	r9,16(r20)
  10a1d0:	00bfffc4 	movi	r2,-1
  10a1d4:	408b883a 	add	r5,r8,r2
  10a1d8:	2a09803a 	cmpltu	r4,r5,r8
  10a1dc:	488d883a 	add	r6,r9,r2
  10a1e0:	01c40034 	movhi	r7,4096
  10a1e4:	39ffffc4 	addi	r7,r7,-1
  10a1e8:	218d883a 	add	r6,r4,r6
  10a1ec:	39801736 	bltu	r7,r6,10a24c <_fpadd_parts+0x1a8>
  10a1f0:	31c06526 	beq	r6,r7,10a388 <_fpadd_parts+0x2e4>
  10a1f4:	a3000217 	ldw	r12,8(r20)
  10a1f8:	4209883a 	add	r4,r8,r8
  10a1fc:	00bfffc4 	movi	r2,-1
  10a200:	220f803a 	cmpltu	r7,r4,r8
  10a204:	4a4b883a 	add	r5,r9,r9
  10a208:	394f883a 	add	r7,r7,r5
  10a20c:	2095883a 	add	r10,r4,r2
  10a210:	3897883a 	add	r11,r7,r2
  10a214:	510d803a 	cmpltu	r6,r10,r4
  10a218:	6099883a 	add	r12,r12,r2
  10a21c:	32d7883a 	add	r11,r6,r11
  10a220:	00840034 	movhi	r2,4096
  10a224:	10bfffc4 	addi	r2,r2,-1
  10a228:	2011883a 	mov	r8,r4
  10a22c:	3813883a 	mov	r9,r7
  10a230:	a1000315 	stw	r4,12(r20)
  10a234:	a1c00415 	stw	r7,16(r20)
  10a238:	a3000215 	stw	r12,8(r20)
  10a23c:	12c00336 	bltu	r2,r11,10a24c <_fpadd_parts+0x1a8>
  10a240:	58bfed1e 	bne	r11,r2,10a1f8 <_fpadd_parts+0x154>
  10a244:	00bfff84 	movi	r2,-2
  10a248:	12bfeb2e 	bgeu	r2,r10,10a1f8 <_fpadd_parts+0x154>
  10a24c:	a2800417 	ldw	r10,16(r20)
  10a250:	008000c4 	movi	r2,3
  10a254:	00c80034 	movhi	r3,8192
  10a258:	18ffffc4 	addi	r3,r3,-1
  10a25c:	a2400317 	ldw	r9,12(r20)
  10a260:	a0800015 	stw	r2,0(r20)
  10a264:	1a802336 	bltu	r3,r10,10a2f4 <_fpadd_parts+0x250>
  10a268:	a027883a 	mov	r19,r20
  10a26c:	9805883a 	mov	r2,r19
  10a270:	ddc00717 	ldw	r23,28(sp)
  10a274:	dd800617 	ldw	r22,24(sp)
  10a278:	dd400517 	ldw	r21,20(sp)
  10a27c:	dd000417 	ldw	r20,16(sp)
  10a280:	dcc00317 	ldw	r19,12(sp)
  10a284:	dc800217 	ldw	r18,8(sp)
  10a288:	dc400117 	ldw	r17,4(sp)
  10a28c:	dc000017 	ldw	r16,0(sp)
  10a290:	dec00804 	addi	sp,sp,32
  10a294:	f800283a 	ret
  10a298:	20fff41e 	bne	r4,r3,10a26c <_fpadd_parts+0x1c8>
  10a29c:	31000015 	stw	r4,0(r6)
  10a2a0:	98800117 	ldw	r2,4(r19)
  10a2a4:	30800115 	stw	r2,4(r6)
  10a2a8:	98c00217 	ldw	r3,8(r19)
  10a2ac:	30c00215 	stw	r3,8(r6)
  10a2b0:	98800317 	ldw	r2,12(r19)
  10a2b4:	30800315 	stw	r2,12(r6)
  10a2b8:	98c00417 	ldw	r3,16(r19)
  10a2bc:	30c00415 	stw	r3,16(r6)
  10a2c0:	98800117 	ldw	r2,4(r19)
  10a2c4:	28c00117 	ldw	r3,4(r5)
  10a2c8:	3027883a 	mov	r19,r6
  10a2cc:	10c4703a 	and	r2,r2,r3
  10a2d0:	30800115 	stw	r2,4(r6)
  10a2d4:	003fe506 	br	10a26c <_fpadd_parts+0x1c8>
  10a2d8:	1dc02616 	blt	r3,r23,10a374 <_fpadd_parts+0x2d0>
  10a2dc:	0023883a 	mov	r17,zero
  10a2e0:	182f883a 	mov	r23,r3
  10a2e4:	0025883a 	mov	r18,zero
  10a2e8:	003fa806 	br	10a18c <_fpadd_parts+0xe8>
  10a2ec:	a827883a 	mov	r19,r21
  10a2f0:	003fde06 	br	10a26c <_fpadd_parts+0x1c8>
  10a2f4:	01800044 	movi	r6,1
  10a2f8:	500497fa 	slli	r2,r10,31
  10a2fc:	4808d07a 	srli	r4,r9,1
  10a300:	518ad83a 	srl	r5,r10,r6
  10a304:	a2000217 	ldw	r8,8(r20)
  10a308:	1108b03a 	or	r4,r2,r4
  10a30c:	0007883a 	mov	r3,zero
  10a310:	4984703a 	and	r2,r9,r6
  10a314:	208cb03a 	or	r6,r4,r2
  10a318:	28ceb03a 	or	r7,r5,r3
  10a31c:	42000044 	addi	r8,r8,1
  10a320:	a027883a 	mov	r19,r20
  10a324:	a1c00415 	stw	r7,16(r20)
  10a328:	a2000215 	stw	r8,8(r20)
  10a32c:	a1800315 	stw	r6,12(r20)
  10a330:	003fce06 	br	10a26c <_fpadd_parts+0x1c8>
  10a334:	8bc5c83a 	sub	r2,r17,r15
  10a338:	8889803a 	cmpltu	r4,r17,r2
  10a33c:	9407c83a 	sub	r3,r18,r16
  10a340:	1909c83a 	sub	r4,r3,r4
  10a344:	100d883a 	mov	r6,r2
  10a348:	200f883a 	mov	r7,r4
  10a34c:	003f9906 	br	10a1b4 <_fpadd_parts+0x110>
  10a350:	7c45883a 	add	r2,r15,r17
  10a354:	13c9803a 	cmpltu	r4,r2,r15
  10a358:	8487883a 	add	r3,r16,r18
  10a35c:	20c9883a 	add	r4,r4,r3
  10a360:	a1400115 	stw	r5,4(r20)
  10a364:	a5c00215 	stw	r23,8(r20)
  10a368:	a0800315 	stw	r2,12(r20)
  10a36c:	a1000415 	stw	r4,16(r20)
  10a370:	003fb606 	br	10a24c <_fpadd_parts+0x1a8>
  10a374:	001f883a 	mov	r15,zero
  10a378:	0021883a 	mov	r16,zero
  10a37c:	003f8306 	br	10a18c <_fpadd_parts+0xe8>
  10a380:	018dc83a 	sub	r6,zero,r6
  10a384:	003f6706 	br	10a124 <_fpadd_parts+0x80>
  10a388:	00bfff84 	movi	r2,-2
  10a38c:	117faf36 	bltu	r2,r5,10a24c <_fpadd_parts+0x1a8>
  10a390:	003f9806 	br	10a1f4 <_fpadd_parts+0x150>
  10a394:	0005883a 	mov	r2,zero
  10a398:	1189c83a 	sub	r4,r2,r6
  10a39c:	1105803a 	cmpltu	r2,r2,r4
  10a3a0:	01cbc83a 	sub	r5,zero,r7
  10a3a4:	2885c83a 	sub	r2,r5,r2
  10a3a8:	01800044 	movi	r6,1
  10a3ac:	a1800115 	stw	r6,4(r20)
  10a3b0:	a5c00215 	stw	r23,8(r20)
  10a3b4:	a1000315 	stw	r4,12(r20)
  10a3b8:	a0800415 	stw	r2,16(r20)
  10a3bc:	003f8206 	br	10a1c8 <_fpadd_parts+0x124>
  10a3c0:	203f7226 	beq	r4,zero,10a18c <_fpadd_parts+0xe8>
  10a3c4:	35bff804 	addi	r22,r6,-32
  10a3c8:	b9af883a 	add	r23,r23,r6
  10a3cc:	b0003116 	blt	r22,zero,10a494 <_fpadd_parts+0x3f0>
  10a3d0:	959ad83a 	srl	r13,r18,r22
  10a3d4:	001d883a 	mov	r14,zero
  10a3d8:	000f883a 	mov	r7,zero
  10a3dc:	01000044 	movi	r4,1
  10a3e0:	0011883a 	mov	r8,zero
  10a3e4:	b0002516 	blt	r22,zero,10a47c <_fpadd_parts+0x3d8>
  10a3e8:	2594983a 	sll	r10,r4,r22
  10a3ec:	0013883a 	mov	r9,zero
  10a3f0:	00bfffc4 	movi	r2,-1
  10a3f4:	4889883a 	add	r4,r9,r2
  10a3f8:	508b883a 	add	r5,r10,r2
  10a3fc:	224d803a 	cmpltu	r6,r4,r9
  10a400:	314b883a 	add	r5,r6,r5
  10a404:	8904703a 	and	r2,r17,r4
  10a408:	9146703a 	and	r3,r18,r5
  10a40c:	10c4b03a 	or	r2,r2,r3
  10a410:	10000226 	beq	r2,zero,10a41c <_fpadd_parts+0x378>
  10a414:	01c00044 	movi	r7,1
  10a418:	0011883a 	mov	r8,zero
  10a41c:	69e2b03a 	or	r17,r13,r7
  10a420:	7224b03a 	or	r18,r14,r8
  10a424:	003f5906 	br	10a18c <_fpadd_parts+0xe8>
  10a428:	8407883a 	add	r3,r16,r16
  10a42c:	008007c4 	movi	r2,31
  10a430:	1185c83a 	sub	r2,r2,r6
  10a434:	1886983a 	sll	r3,r3,r2
  10a438:	7996d83a 	srl	r11,r15,r6
  10a43c:	8198d83a 	srl	r12,r16,r6
  10a440:	1ad6b03a 	or	r11,r3,r11
  10a444:	003f3e06 	br	10a140 <_fpadd_parts+0x9c>
  10a448:	2006d07a 	srli	r3,r4,1
  10a44c:	008007c4 	movi	r2,31
  10a450:	1185c83a 	sub	r2,r2,r6
  10a454:	1890d83a 	srl	r8,r3,r2
  10a458:	218e983a 	sll	r7,r4,r6
  10a45c:	003f3e06 	br	10a158 <_fpadd_parts+0xb4>
  10a460:	113f821e 	bne	r2,r4,10a26c <_fpadd_parts+0x1c8>
  10a464:	28c00117 	ldw	r3,4(r5)
  10a468:	98800117 	ldw	r2,4(r19)
  10a46c:	10ff7f26 	beq	r2,r3,10a26c <_fpadd_parts+0x1c8>
  10a470:	04c00474 	movhi	r19,17
  10a474:	9cee7104 	addi	r19,r19,-17980
  10a478:	003f7c06 	br	10a26c <_fpadd_parts+0x1c8>
  10a47c:	2006d07a 	srli	r3,r4,1
  10a480:	008007c4 	movi	r2,31
  10a484:	1185c83a 	sub	r2,r2,r6
  10a488:	1894d83a 	srl	r10,r3,r2
  10a48c:	2192983a 	sll	r9,r4,r6
  10a490:	003fd706 	br	10a3f0 <_fpadd_parts+0x34c>
  10a494:	9487883a 	add	r3,r18,r18
  10a498:	008007c4 	movi	r2,31
  10a49c:	1185c83a 	sub	r2,r2,r6
  10a4a0:	1886983a 	sll	r3,r3,r2
  10a4a4:	899ad83a 	srl	r13,r17,r6
  10a4a8:	919cd83a 	srl	r14,r18,r6
  10a4ac:	1b5ab03a 	or	r13,r3,r13
  10a4b0:	003fc906 	br	10a3d8 <_fpadd_parts+0x334>

0010a4b4 <__subdf3>:
  10a4b4:	deffea04 	addi	sp,sp,-88
  10a4b8:	dcc01415 	stw	r19,80(sp)
  10a4bc:	dcc00404 	addi	r19,sp,16
  10a4c0:	2011883a 	mov	r8,r4
  10a4c4:	2813883a 	mov	r9,r5
  10a4c8:	dc401315 	stw	r17,76(sp)
  10a4cc:	d809883a 	mov	r4,sp
  10a4d0:	980b883a 	mov	r5,r19
  10a4d4:	dc400904 	addi	r17,sp,36
  10a4d8:	dfc01515 	stw	ra,84(sp)
  10a4dc:	da400115 	stw	r9,4(sp)
  10a4e0:	d9c00315 	stw	r7,12(sp)
  10a4e4:	da000015 	stw	r8,0(sp)
  10a4e8:	d9800215 	stw	r6,8(sp)
  10a4ec:	010b5b40 	call	10b5b4 <__unpack_d>
  10a4f0:	d9000204 	addi	r4,sp,8
  10a4f4:	880b883a 	mov	r5,r17
  10a4f8:	010b5b40 	call	10b5b4 <__unpack_d>
  10a4fc:	d8800a17 	ldw	r2,40(sp)
  10a500:	880b883a 	mov	r5,r17
  10a504:	9809883a 	mov	r4,r19
  10a508:	d9800e04 	addi	r6,sp,56
  10a50c:	1080005c 	xori	r2,r2,1
  10a510:	d8800a15 	stw	r2,40(sp)
  10a514:	010a0a40 	call	10a0a4 <_fpadd_parts>
  10a518:	1009883a 	mov	r4,r2
  10a51c:	010b2a00 	call	10b2a0 <__pack_d>
  10a520:	dfc01517 	ldw	ra,84(sp)
  10a524:	dcc01417 	ldw	r19,80(sp)
  10a528:	dc401317 	ldw	r17,76(sp)
  10a52c:	dec01604 	addi	sp,sp,88
  10a530:	f800283a 	ret

0010a534 <__adddf3>:
  10a534:	deffea04 	addi	sp,sp,-88
  10a538:	dcc01415 	stw	r19,80(sp)
  10a53c:	dcc00404 	addi	r19,sp,16
  10a540:	2011883a 	mov	r8,r4
  10a544:	2813883a 	mov	r9,r5
  10a548:	dc401315 	stw	r17,76(sp)
  10a54c:	d809883a 	mov	r4,sp
  10a550:	980b883a 	mov	r5,r19
  10a554:	dc400904 	addi	r17,sp,36
  10a558:	dfc01515 	stw	ra,84(sp)
  10a55c:	da400115 	stw	r9,4(sp)
  10a560:	d9c00315 	stw	r7,12(sp)
  10a564:	da000015 	stw	r8,0(sp)
  10a568:	d9800215 	stw	r6,8(sp)
  10a56c:	010b5b40 	call	10b5b4 <__unpack_d>
  10a570:	d9000204 	addi	r4,sp,8
  10a574:	880b883a 	mov	r5,r17
  10a578:	010b5b40 	call	10b5b4 <__unpack_d>
  10a57c:	d9800e04 	addi	r6,sp,56
  10a580:	9809883a 	mov	r4,r19
  10a584:	880b883a 	mov	r5,r17
  10a588:	010a0a40 	call	10a0a4 <_fpadd_parts>
  10a58c:	1009883a 	mov	r4,r2
  10a590:	010b2a00 	call	10b2a0 <__pack_d>
  10a594:	dfc01517 	ldw	ra,84(sp)
  10a598:	dcc01417 	ldw	r19,80(sp)
  10a59c:	dc401317 	ldw	r17,76(sp)
  10a5a0:	dec01604 	addi	sp,sp,88
  10a5a4:	f800283a 	ret

0010a5a8 <__muldf3>:
  10a5a8:	deffe004 	addi	sp,sp,-128
  10a5ac:	dc401815 	stw	r17,96(sp)
  10a5b0:	dc400404 	addi	r17,sp,16
  10a5b4:	2011883a 	mov	r8,r4
  10a5b8:	2813883a 	mov	r9,r5
  10a5bc:	dc001715 	stw	r16,92(sp)
  10a5c0:	d809883a 	mov	r4,sp
  10a5c4:	880b883a 	mov	r5,r17
  10a5c8:	dc000904 	addi	r16,sp,36
  10a5cc:	dfc01f15 	stw	ra,124(sp)
  10a5d0:	da400115 	stw	r9,4(sp)
  10a5d4:	d9c00315 	stw	r7,12(sp)
  10a5d8:	da000015 	stw	r8,0(sp)
  10a5dc:	d9800215 	stw	r6,8(sp)
  10a5e0:	ddc01e15 	stw	r23,120(sp)
  10a5e4:	dd801d15 	stw	r22,116(sp)
  10a5e8:	dd401c15 	stw	r21,112(sp)
  10a5ec:	dd001b15 	stw	r20,108(sp)
  10a5f0:	dcc01a15 	stw	r19,104(sp)
  10a5f4:	dc801915 	stw	r18,100(sp)
  10a5f8:	010b5b40 	call	10b5b4 <__unpack_d>
  10a5fc:	d9000204 	addi	r4,sp,8
  10a600:	800b883a 	mov	r5,r16
  10a604:	010b5b40 	call	10b5b4 <__unpack_d>
  10a608:	d9000417 	ldw	r4,16(sp)
  10a60c:	00800044 	movi	r2,1
  10a610:	1100102e 	bgeu	r2,r4,10a654 <__muldf3+0xac>
  10a614:	d8c00917 	ldw	r3,36(sp)
  10a618:	10c0062e 	bgeu	r2,r3,10a634 <__muldf3+0x8c>
  10a61c:	00800104 	movi	r2,4
  10a620:	20800a26 	beq	r4,r2,10a64c <__muldf3+0xa4>
  10a624:	1880cc26 	beq	r3,r2,10a958 <__muldf3+0x3b0>
  10a628:	00800084 	movi	r2,2
  10a62c:	20800926 	beq	r4,r2,10a654 <__muldf3+0xac>
  10a630:	1880191e 	bne	r3,r2,10a698 <__muldf3+0xf0>
  10a634:	d8c00a17 	ldw	r3,40(sp)
  10a638:	d8800517 	ldw	r2,20(sp)
  10a63c:	8009883a 	mov	r4,r16
  10a640:	10c4c03a 	cmpne	r2,r2,r3
  10a644:	d8800a15 	stw	r2,40(sp)
  10a648:	00000706 	br	10a668 <__muldf3+0xc0>
  10a64c:	00800084 	movi	r2,2
  10a650:	1880c326 	beq	r3,r2,10a960 <__muldf3+0x3b8>
  10a654:	d8800517 	ldw	r2,20(sp)
  10a658:	d8c00a17 	ldw	r3,40(sp)
  10a65c:	8809883a 	mov	r4,r17
  10a660:	10c4c03a 	cmpne	r2,r2,r3
  10a664:	d8800515 	stw	r2,20(sp)
  10a668:	010b2a00 	call	10b2a0 <__pack_d>
  10a66c:	dfc01f17 	ldw	ra,124(sp)
  10a670:	ddc01e17 	ldw	r23,120(sp)
  10a674:	dd801d17 	ldw	r22,116(sp)
  10a678:	dd401c17 	ldw	r21,112(sp)
  10a67c:	dd001b17 	ldw	r20,108(sp)
  10a680:	dcc01a17 	ldw	r19,104(sp)
  10a684:	dc801917 	ldw	r18,100(sp)
  10a688:	dc401817 	ldw	r17,96(sp)
  10a68c:	dc001717 	ldw	r16,92(sp)
  10a690:	dec02004 	addi	sp,sp,128
  10a694:	f800283a 	ret
  10a698:	dd800717 	ldw	r22,28(sp)
  10a69c:	dc800c17 	ldw	r18,48(sp)
  10a6a0:	002b883a 	mov	r21,zero
  10a6a4:	0023883a 	mov	r17,zero
  10a6a8:	a80b883a 	mov	r5,r21
  10a6ac:	b00d883a 	mov	r6,r22
  10a6b0:	880f883a 	mov	r7,r17
  10a6b4:	ddc00817 	ldw	r23,32(sp)
  10a6b8:	dcc00d17 	ldw	r19,52(sp)
  10a6bc:	9009883a 	mov	r4,r18
  10a6c0:	010b0fc0 	call	10b0fc <__muldi3>
  10a6c4:	001b883a 	mov	r13,zero
  10a6c8:	680f883a 	mov	r7,r13
  10a6cc:	b009883a 	mov	r4,r22
  10a6d0:	000b883a 	mov	r5,zero
  10a6d4:	980d883a 	mov	r6,r19
  10a6d8:	b82d883a 	mov	r22,r23
  10a6dc:	002f883a 	mov	r23,zero
  10a6e0:	db401615 	stw	r13,88(sp)
  10a6e4:	d8801315 	stw	r2,76(sp)
  10a6e8:	d8c01415 	stw	r3,80(sp)
  10a6ec:	dcc01515 	stw	r19,84(sp)
  10a6f0:	010b0fc0 	call	10b0fc <__muldi3>
  10a6f4:	b00d883a 	mov	r6,r22
  10a6f8:	000b883a 	mov	r5,zero
  10a6fc:	9009883a 	mov	r4,r18
  10a700:	b80f883a 	mov	r7,r23
  10a704:	1021883a 	mov	r16,r2
  10a708:	1823883a 	mov	r17,r3
  10a70c:	010b0fc0 	call	10b0fc <__muldi3>
  10a710:	8085883a 	add	r2,r16,r2
  10a714:	140d803a 	cmpltu	r6,r2,r16
  10a718:	88c7883a 	add	r3,r17,r3
  10a71c:	30cd883a 	add	r6,r6,r3
  10a720:	1029883a 	mov	r20,r2
  10a724:	302b883a 	mov	r21,r6
  10a728:	da801317 	ldw	r10,76(sp)
  10a72c:	dac01417 	ldw	r11,80(sp)
  10a730:	db001517 	ldw	r12,84(sp)
  10a734:	db401617 	ldw	r13,88(sp)
  10a738:	3440612e 	bgeu	r6,r17,10a8c0 <__muldf3+0x318>
  10a73c:	0009883a 	mov	r4,zero
  10a740:	5105883a 	add	r2,r10,r4
  10a744:	128d803a 	cmpltu	r6,r2,r10
  10a748:	5d07883a 	add	r3,r11,r20
  10a74c:	30cd883a 	add	r6,r6,r3
  10a750:	0021883a 	mov	r16,zero
  10a754:	04400044 	movi	r17,1
  10a758:	1025883a 	mov	r18,r2
  10a75c:	3027883a 	mov	r19,r6
  10a760:	32c06236 	bltu	r6,r11,10a8ec <__muldf3+0x344>
  10a764:	59807a26 	beq	r11,r6,10a950 <__muldf3+0x3a8>
  10a768:	680b883a 	mov	r5,r13
  10a76c:	b80f883a 	mov	r7,r23
  10a770:	6009883a 	mov	r4,r12
  10a774:	b00d883a 	mov	r6,r22
  10a778:	010b0fc0 	call	10b0fc <__muldi3>
  10a77c:	1009883a 	mov	r4,r2
  10a780:	000f883a 	mov	r7,zero
  10a784:	1545883a 	add	r2,r2,r21
  10a788:	1111803a 	cmpltu	r8,r2,r4
  10a78c:	19c7883a 	add	r3,r3,r7
  10a790:	40c7883a 	add	r3,r8,r3
  10a794:	88cb883a 	add	r5,r17,r3
  10a798:	d8c00617 	ldw	r3,24(sp)
  10a79c:	8089883a 	add	r4,r16,r2
  10a7a0:	d8800b17 	ldw	r2,44(sp)
  10a7a4:	18c00104 	addi	r3,r3,4
  10a7a8:	240d803a 	cmpltu	r6,r4,r16
  10a7ac:	10c7883a 	add	r3,r2,r3
  10a7b0:	2013883a 	mov	r9,r4
  10a7b4:	d8800a17 	ldw	r2,40(sp)
  10a7b8:	d9000517 	ldw	r4,20(sp)
  10a7bc:	314d883a 	add	r6,r6,r5
  10a7c0:	3015883a 	mov	r10,r6
  10a7c4:	2088c03a 	cmpne	r4,r4,r2
  10a7c8:	00880034 	movhi	r2,8192
  10a7cc:	10bfffc4 	addi	r2,r2,-1
  10a7d0:	d9000f15 	stw	r4,60(sp)
  10a7d4:	d8c01015 	stw	r3,64(sp)
  10a7d8:	1180162e 	bgeu	r2,r6,10a834 <__muldf3+0x28c>
  10a7dc:	1811883a 	mov	r8,r3
  10a7e0:	101f883a 	mov	r15,r2
  10a7e4:	980497fa 	slli	r2,r19,31
  10a7e8:	9016d07a 	srli	r11,r18,1
  10a7ec:	500697fa 	slli	r3,r10,31
  10a7f0:	480cd07a 	srli	r6,r9,1
  10a7f4:	500ed07a 	srli	r7,r10,1
  10a7f8:	12d6b03a 	or	r11,r2,r11
  10a7fc:	00800044 	movi	r2,1
  10a800:	198cb03a 	or	r6,r3,r6
  10a804:	4888703a 	and	r4,r9,r2
  10a808:	9818d07a 	srli	r12,r19,1
  10a80c:	001b883a 	mov	r13,zero
  10a810:	03a00034 	movhi	r14,32768
  10a814:	3013883a 	mov	r9,r6
  10a818:	3815883a 	mov	r10,r7
  10a81c:	4091883a 	add	r8,r8,r2
  10a820:	20000226 	beq	r4,zero,10a82c <__muldf3+0x284>
  10a824:	5b64b03a 	or	r18,r11,r13
  10a828:	63a6b03a 	or	r19,r12,r14
  10a82c:	7abfed36 	bltu	r15,r10,10a7e4 <__muldf3+0x23c>
  10a830:	da001015 	stw	r8,64(sp)
  10a834:	00840034 	movhi	r2,4096
  10a838:	10bfffc4 	addi	r2,r2,-1
  10a83c:	12801436 	bltu	r2,r10,10a890 <__muldf3+0x2e8>
  10a840:	da001017 	ldw	r8,64(sp)
  10a844:	101f883a 	mov	r15,r2
  10a848:	4a45883a 	add	r2,r9,r9
  10a84c:	124d803a 	cmpltu	r6,r2,r9
  10a850:	5287883a 	add	r3,r10,r10
  10a854:	9497883a 	add	r11,r18,r18
  10a858:	5c8f803a 	cmpltu	r7,r11,r18
  10a85c:	9cd9883a 	add	r12,r19,r19
  10a860:	01000044 	movi	r4,1
  10a864:	30cd883a 	add	r6,r6,r3
  10a868:	3b0f883a 	add	r7,r7,r12
  10a86c:	423fffc4 	addi	r8,r8,-1
  10a870:	1013883a 	mov	r9,r2
  10a874:	3015883a 	mov	r10,r6
  10a878:	111ab03a 	or	r13,r2,r4
  10a87c:	98003016 	blt	r19,zero,10a940 <__muldf3+0x398>
  10a880:	5825883a 	mov	r18,r11
  10a884:	3827883a 	mov	r19,r7
  10a888:	7abfef2e 	bgeu	r15,r10,10a848 <__muldf3+0x2a0>
  10a88c:	da001015 	stw	r8,64(sp)
  10a890:	00803fc4 	movi	r2,255
  10a894:	488e703a 	and	r7,r9,r2
  10a898:	00802004 	movi	r2,128
  10a89c:	0007883a 	mov	r3,zero
  10a8a0:	0011883a 	mov	r8,zero
  10a8a4:	38801826 	beq	r7,r2,10a908 <__muldf3+0x360>
  10a8a8:	008000c4 	movi	r2,3
  10a8ac:	d9000e04 	addi	r4,sp,56
  10a8b0:	da801215 	stw	r10,72(sp)
  10a8b4:	d8800e15 	stw	r2,56(sp)
  10a8b8:	da401115 	stw	r9,68(sp)
  10a8bc:	003f6a06 	br	10a668 <__muldf3+0xc0>
  10a8c0:	89802126 	beq	r17,r6,10a948 <__muldf3+0x3a0>
  10a8c4:	0009883a 	mov	r4,zero
  10a8c8:	5105883a 	add	r2,r10,r4
  10a8cc:	128d803a 	cmpltu	r6,r2,r10
  10a8d0:	5d07883a 	add	r3,r11,r20
  10a8d4:	30cd883a 	add	r6,r6,r3
  10a8d8:	0021883a 	mov	r16,zero
  10a8dc:	0023883a 	mov	r17,zero
  10a8e0:	1025883a 	mov	r18,r2
  10a8e4:	3027883a 	mov	r19,r6
  10a8e8:	32ff9e2e 	bgeu	r6,r11,10a764 <__muldf3+0x1bc>
  10a8ec:	00800044 	movi	r2,1
  10a8f0:	8089883a 	add	r4,r16,r2
  10a8f4:	240d803a 	cmpltu	r6,r4,r16
  10a8f8:	344d883a 	add	r6,r6,r17
  10a8fc:	2021883a 	mov	r16,r4
  10a900:	3023883a 	mov	r17,r6
  10a904:	003f9806 	br	10a768 <__muldf3+0x1c0>
  10a908:	403fe71e 	bne	r8,zero,10a8a8 <__muldf3+0x300>
  10a90c:	01004004 	movi	r4,256
  10a910:	4904703a 	and	r2,r9,r4
  10a914:	10c4b03a 	or	r2,r2,r3
  10a918:	103fe31e 	bne	r2,zero,10a8a8 <__muldf3+0x300>
  10a91c:	94c4b03a 	or	r2,r18,r19
  10a920:	103fe126 	beq	r2,zero,10a8a8 <__muldf3+0x300>
  10a924:	49c5883a 	add	r2,r9,r7
  10a928:	1251803a 	cmpltu	r8,r2,r9
  10a92c:	4291883a 	add	r8,r8,r10
  10a930:	013fc004 	movi	r4,-256
  10a934:	1112703a 	and	r9,r2,r4
  10a938:	4015883a 	mov	r10,r8
  10a93c:	003fda06 	br	10a8a8 <__muldf3+0x300>
  10a940:	6813883a 	mov	r9,r13
  10a944:	003fce06 	br	10a880 <__muldf3+0x2d8>
  10a948:	143f7c36 	bltu	r2,r16,10a73c <__muldf3+0x194>
  10a94c:	003fdd06 	br	10a8c4 <__muldf3+0x31c>
  10a950:	12bf852e 	bgeu	r2,r10,10a768 <__muldf3+0x1c0>
  10a954:	003fe506 	br	10a8ec <__muldf3+0x344>
  10a958:	00800084 	movi	r2,2
  10a95c:	20bf351e 	bne	r4,r2,10a634 <__muldf3+0x8c>
  10a960:	01000474 	movhi	r4,17
  10a964:	212e7104 	addi	r4,r4,-17980
  10a968:	003f3f06 	br	10a668 <__muldf3+0xc0>

0010a96c <__divdf3>:
  10a96c:	deffed04 	addi	sp,sp,-76
  10a970:	dcc01115 	stw	r19,68(sp)
  10a974:	dcc00404 	addi	r19,sp,16
  10a978:	2011883a 	mov	r8,r4
  10a97c:	2813883a 	mov	r9,r5
  10a980:	dc000e15 	stw	r16,56(sp)
  10a984:	d809883a 	mov	r4,sp
  10a988:	980b883a 	mov	r5,r19
  10a98c:	dc000904 	addi	r16,sp,36
  10a990:	dfc01215 	stw	ra,72(sp)
  10a994:	da400115 	stw	r9,4(sp)
  10a998:	d9c00315 	stw	r7,12(sp)
  10a99c:	da000015 	stw	r8,0(sp)
  10a9a0:	d9800215 	stw	r6,8(sp)
  10a9a4:	dc801015 	stw	r18,64(sp)
  10a9a8:	dc400f15 	stw	r17,60(sp)
  10a9ac:	010b5b40 	call	10b5b4 <__unpack_d>
  10a9b0:	d9000204 	addi	r4,sp,8
  10a9b4:	800b883a 	mov	r5,r16
  10a9b8:	010b5b40 	call	10b5b4 <__unpack_d>
  10a9bc:	d9000417 	ldw	r4,16(sp)
  10a9c0:	00800044 	movi	r2,1
  10a9c4:	11000b2e 	bgeu	r2,r4,10a9f4 <__divdf3+0x88>
  10a9c8:	d9400917 	ldw	r5,36(sp)
  10a9cc:	1140762e 	bgeu	r2,r5,10aba8 <__divdf3+0x23c>
  10a9d0:	d8800517 	ldw	r2,20(sp)
  10a9d4:	d8c00a17 	ldw	r3,40(sp)
  10a9d8:	01800104 	movi	r6,4
  10a9dc:	10c4f03a 	xor	r2,r2,r3
  10a9e0:	d8800515 	stw	r2,20(sp)
  10a9e4:	21800226 	beq	r4,r6,10a9f0 <__divdf3+0x84>
  10a9e8:	00800084 	movi	r2,2
  10a9ec:	2080141e 	bne	r4,r2,10aa40 <__divdf3+0xd4>
  10a9f0:	29000926 	beq	r5,r4,10aa18 <__divdf3+0xac>
  10a9f4:	9809883a 	mov	r4,r19
  10a9f8:	010b2a00 	call	10b2a0 <__pack_d>
  10a9fc:	dfc01217 	ldw	ra,72(sp)
  10aa00:	dcc01117 	ldw	r19,68(sp)
  10aa04:	dc801017 	ldw	r18,64(sp)
  10aa08:	dc400f17 	ldw	r17,60(sp)
  10aa0c:	dc000e17 	ldw	r16,56(sp)
  10aa10:	dec01304 	addi	sp,sp,76
  10aa14:	f800283a 	ret
  10aa18:	01000474 	movhi	r4,17
  10aa1c:	212e7104 	addi	r4,r4,-17980
  10aa20:	010b2a00 	call	10b2a0 <__pack_d>
  10aa24:	dfc01217 	ldw	ra,72(sp)
  10aa28:	dcc01117 	ldw	r19,68(sp)
  10aa2c:	dc801017 	ldw	r18,64(sp)
  10aa30:	dc400f17 	ldw	r17,60(sp)
  10aa34:	dc000e17 	ldw	r16,56(sp)
  10aa38:	dec01304 	addi	sp,sp,76
  10aa3c:	f800283a 	ret
  10aa40:	29805b26 	beq	r5,r6,10abb0 <__divdf3+0x244>
  10aa44:	28802d26 	beq	r5,r2,10aafc <__divdf3+0x190>
  10aa48:	d8c00617 	ldw	r3,24(sp)
  10aa4c:	d8800b17 	ldw	r2,44(sp)
  10aa50:	d9c00817 	ldw	r7,32(sp)
  10aa54:	dc400d17 	ldw	r17,52(sp)
  10aa58:	188bc83a 	sub	r5,r3,r2
  10aa5c:	d9800717 	ldw	r6,28(sp)
  10aa60:	dc000c17 	ldw	r16,48(sp)
  10aa64:	d9400615 	stw	r5,24(sp)
  10aa68:	3c403836 	bltu	r7,r17,10ab4c <__divdf3+0x1e0>
  10aa6c:	89c03626 	beq	r17,r7,10ab48 <__divdf3+0x1dc>
  10aa70:	0015883a 	mov	r10,zero
  10aa74:	001d883a 	mov	r14,zero
  10aa78:	02c40034 	movhi	r11,4096
  10aa7c:	001f883a 	mov	r15,zero
  10aa80:	003f883a 	mov	ra,zero
  10aa84:	04800f44 	movi	r18,61
  10aa88:	00000f06 	br	10aac8 <__divdf3+0x15c>
  10aa8c:	601d883a 	mov	r14,r12
  10aa90:	681f883a 	mov	r15,r13
  10aa94:	400d883a 	mov	r6,r8
  10aa98:	100f883a 	mov	r7,r2
  10aa9c:	3191883a 	add	r8,r6,r6
  10aaa0:	5808d07a 	srli	r4,r11,1
  10aaa4:	4185803a 	cmpltu	r2,r8,r6
  10aaa8:	39d3883a 	add	r9,r7,r7
  10aaac:	28c6b03a 	or	r3,r5,r3
  10aab0:	1245883a 	add	r2,r2,r9
  10aab4:	1815883a 	mov	r10,r3
  10aab8:	2017883a 	mov	r11,r4
  10aabc:	400d883a 	mov	r6,r8
  10aac0:	100f883a 	mov	r7,r2
  10aac4:	fc801726 	beq	ra,r18,10ab24 <__divdf3+0x1b8>
  10aac8:	580a97fa 	slli	r5,r11,31
  10aacc:	5006d07a 	srli	r3,r10,1
  10aad0:	ffc00044 	addi	ra,ra,1
  10aad4:	3c7ff136 	bltu	r7,r17,10aa9c <__divdf3+0x130>
  10aad8:	3411c83a 	sub	r8,r6,r16
  10aadc:	3205803a 	cmpltu	r2,r6,r8
  10aae0:	3c53c83a 	sub	r9,r7,r17
  10aae4:	7298b03a 	or	r12,r14,r10
  10aae8:	7adab03a 	or	r13,r15,r11
  10aaec:	4885c83a 	sub	r2,r9,r2
  10aaf0:	89ffe61e 	bne	r17,r7,10aa8c <__divdf3+0x120>
  10aaf4:	343fe936 	bltu	r6,r16,10aa9c <__divdf3+0x130>
  10aaf8:	003fe406 	br	10aa8c <__divdf3+0x120>
  10aafc:	9809883a 	mov	r4,r19
  10ab00:	d9800415 	stw	r6,16(sp)
  10ab04:	010b2a00 	call	10b2a0 <__pack_d>
  10ab08:	dfc01217 	ldw	ra,72(sp)
  10ab0c:	dcc01117 	ldw	r19,68(sp)
  10ab10:	dc801017 	ldw	r18,64(sp)
  10ab14:	dc400f17 	ldw	r17,60(sp)
  10ab18:	dc000e17 	ldw	r16,56(sp)
  10ab1c:	dec01304 	addi	sp,sp,76
  10ab20:	f800283a 	ret
  10ab24:	00803fc4 	movi	r2,255
  10ab28:	7090703a 	and	r8,r14,r2
  10ab2c:	00802004 	movi	r2,128
  10ab30:	0007883a 	mov	r3,zero
  10ab34:	0013883a 	mov	r9,zero
  10ab38:	40800d26 	beq	r8,r2,10ab70 <__divdf3+0x204>
  10ab3c:	dbc00815 	stw	r15,32(sp)
  10ab40:	db800715 	stw	r14,28(sp)
  10ab44:	003fab06 	br	10a9f4 <__divdf3+0x88>
  10ab48:	343fc92e 	bgeu	r6,r16,10aa70 <__divdf3+0x104>
  10ab4c:	3185883a 	add	r2,r6,r6
  10ab50:	1189803a 	cmpltu	r4,r2,r6
  10ab54:	39c7883a 	add	r3,r7,r7
  10ab58:	20c9883a 	add	r4,r4,r3
  10ab5c:	297fffc4 	addi	r5,r5,-1
  10ab60:	100d883a 	mov	r6,r2
  10ab64:	200f883a 	mov	r7,r4
  10ab68:	d9400615 	stw	r5,24(sp)
  10ab6c:	003fc006 	br	10aa70 <__divdf3+0x104>
  10ab70:	483ff21e 	bne	r9,zero,10ab3c <__divdf3+0x1d0>
  10ab74:	01004004 	movi	r4,256
  10ab78:	7104703a 	and	r2,r14,r4
  10ab7c:	10c4b03a 	or	r2,r2,r3
  10ab80:	103fee1e 	bne	r2,zero,10ab3c <__divdf3+0x1d0>
  10ab84:	31c4b03a 	or	r2,r6,r7
  10ab88:	103fec26 	beq	r2,zero,10ab3c <__divdf3+0x1d0>
  10ab8c:	7205883a 	add	r2,r14,r8
  10ab90:	1391803a 	cmpltu	r8,r2,r14
  10ab94:	43d1883a 	add	r8,r8,r15
  10ab98:	013fc004 	movi	r4,-256
  10ab9c:	111c703a 	and	r14,r2,r4
  10aba0:	401f883a 	mov	r15,r8
  10aba4:	003fe506 	br	10ab3c <__divdf3+0x1d0>
  10aba8:	8009883a 	mov	r4,r16
  10abac:	003f9206 	br	10a9f8 <__divdf3+0x8c>
  10abb0:	9809883a 	mov	r4,r19
  10abb4:	d8000715 	stw	zero,28(sp)
  10abb8:	d8000815 	stw	zero,32(sp)
  10abbc:	d8000615 	stw	zero,24(sp)
  10abc0:	003f8d06 	br	10a9f8 <__divdf3+0x8c>

0010abc4 <__gedf2>:
  10abc4:	deffef04 	addi	sp,sp,-68
  10abc8:	dc400f15 	stw	r17,60(sp)
  10abcc:	dc400404 	addi	r17,sp,16
  10abd0:	2005883a 	mov	r2,r4
  10abd4:	2807883a 	mov	r3,r5
  10abd8:	dc000e15 	stw	r16,56(sp)
  10abdc:	d809883a 	mov	r4,sp
  10abe0:	880b883a 	mov	r5,r17
  10abe4:	dc000904 	addi	r16,sp,36
  10abe8:	d8c00115 	stw	r3,4(sp)
  10abec:	d8800015 	stw	r2,0(sp)
  10abf0:	d9800215 	stw	r6,8(sp)
  10abf4:	dfc01015 	stw	ra,64(sp)
  10abf8:	d9c00315 	stw	r7,12(sp)
  10abfc:	010b5b40 	call	10b5b4 <__unpack_d>
  10ac00:	d9000204 	addi	r4,sp,8
  10ac04:	800b883a 	mov	r5,r16
  10ac08:	010b5b40 	call	10b5b4 <__unpack_d>
  10ac0c:	d8800417 	ldw	r2,16(sp)
  10ac10:	00c00044 	movi	r3,1
  10ac14:	01bfffc4 	movi	r6,-1
  10ac18:	1880062e 	bgeu	r3,r2,10ac34 <__gedf2+0x70>
  10ac1c:	d8800917 	ldw	r2,36(sp)
  10ac20:	8809883a 	mov	r4,r17
  10ac24:	800b883a 	mov	r5,r16
  10ac28:	1880022e 	bgeu	r3,r2,10ac34 <__gedf2+0x70>
  10ac2c:	010b6ec0 	call	10b6ec <__fpcmp_parts_d>
  10ac30:	100d883a 	mov	r6,r2
  10ac34:	3005883a 	mov	r2,r6
  10ac38:	dfc01017 	ldw	ra,64(sp)
  10ac3c:	dc400f17 	ldw	r17,60(sp)
  10ac40:	dc000e17 	ldw	r16,56(sp)
  10ac44:	dec01104 	addi	sp,sp,68
  10ac48:	f800283a 	ret

0010ac4c <__floatsidf>:
  10ac4c:	2006d7fa 	srli	r3,r4,31
  10ac50:	defff604 	addi	sp,sp,-40
  10ac54:	008000c4 	movi	r2,3
  10ac58:	dfc00915 	stw	ra,36(sp)
  10ac5c:	dcc00815 	stw	r19,32(sp)
  10ac60:	dc800715 	stw	r18,28(sp)
  10ac64:	dc400615 	stw	r17,24(sp)
  10ac68:	dc000515 	stw	r16,20(sp)
  10ac6c:	d8800015 	stw	r2,0(sp)
  10ac70:	d8c00115 	stw	r3,4(sp)
  10ac74:	20000f1e 	bne	r4,zero,10acb4 <__floatsidf+0x68>
  10ac78:	00800084 	movi	r2,2
  10ac7c:	d8800015 	stw	r2,0(sp)
  10ac80:	d809883a 	mov	r4,sp
  10ac84:	010b2a00 	call	10b2a0 <__pack_d>
  10ac88:	1009883a 	mov	r4,r2
  10ac8c:	180b883a 	mov	r5,r3
  10ac90:	2005883a 	mov	r2,r4
  10ac94:	2807883a 	mov	r3,r5
  10ac98:	dfc00917 	ldw	ra,36(sp)
  10ac9c:	dcc00817 	ldw	r19,32(sp)
  10aca0:	dc800717 	ldw	r18,28(sp)
  10aca4:	dc400617 	ldw	r17,24(sp)
  10aca8:	dc000517 	ldw	r16,20(sp)
  10acac:	dec00a04 	addi	sp,sp,40
  10acb0:	f800283a 	ret
  10acb4:	00800f04 	movi	r2,60
  10acb8:	1807003a 	cmpeq	r3,r3,zero
  10acbc:	d8800215 	stw	r2,8(sp)
  10acc0:	18001126 	beq	r3,zero,10ad08 <__floatsidf+0xbc>
  10acc4:	0027883a 	mov	r19,zero
  10acc8:	2025883a 	mov	r18,r4
  10accc:	d9000315 	stw	r4,12(sp)
  10acd0:	dcc00415 	stw	r19,16(sp)
  10acd4:	010b2200 	call	10b220 <__clzsi2>
  10acd8:	11000744 	addi	r4,r2,29
  10acdc:	013fe80e 	bge	zero,r4,10ac80 <__floatsidf+0x34>
  10ace0:	10bfff44 	addi	r2,r2,-3
  10ace4:	10000c16 	blt	r2,zero,10ad18 <__floatsidf+0xcc>
  10ace8:	90a2983a 	sll	r17,r18,r2
  10acec:	0021883a 	mov	r16,zero
  10acf0:	d8800217 	ldw	r2,8(sp)
  10acf4:	dc400415 	stw	r17,16(sp)
  10acf8:	dc000315 	stw	r16,12(sp)
  10acfc:	1105c83a 	sub	r2,r2,r4
  10ad00:	d8800215 	stw	r2,8(sp)
  10ad04:	003fde06 	br	10ac80 <__floatsidf+0x34>
  10ad08:	00a00034 	movhi	r2,32768
  10ad0c:	20800a26 	beq	r4,r2,10ad38 <__floatsidf+0xec>
  10ad10:	0109c83a 	sub	r4,zero,r4
  10ad14:	003feb06 	br	10acc4 <__floatsidf+0x78>
  10ad18:	9006d07a 	srli	r3,r18,1
  10ad1c:	008007c4 	movi	r2,31
  10ad20:	1105c83a 	sub	r2,r2,r4
  10ad24:	1886d83a 	srl	r3,r3,r2
  10ad28:	9922983a 	sll	r17,r19,r4
  10ad2c:	9120983a 	sll	r16,r18,r4
  10ad30:	1c62b03a 	or	r17,r3,r17
  10ad34:	003fee06 	br	10acf0 <__floatsidf+0xa4>
  10ad38:	0009883a 	mov	r4,zero
  10ad3c:	01707834 	movhi	r5,49632
  10ad40:	003fd306 	br	10ac90 <__floatsidf+0x44>

0010ad44 <__fixdfsi>:
  10ad44:	defff804 	addi	sp,sp,-32
  10ad48:	2005883a 	mov	r2,r4
  10ad4c:	2807883a 	mov	r3,r5
  10ad50:	d809883a 	mov	r4,sp
  10ad54:	d9400204 	addi	r5,sp,8
  10ad58:	d8c00115 	stw	r3,4(sp)
  10ad5c:	d8800015 	stw	r2,0(sp)
  10ad60:	dfc00715 	stw	ra,28(sp)
  10ad64:	010b5b40 	call	10b5b4 <__unpack_d>
  10ad68:	d8c00217 	ldw	r3,8(sp)
  10ad6c:	00800084 	movi	r2,2
  10ad70:	1880051e 	bne	r3,r2,10ad88 <__fixdfsi+0x44>
  10ad74:	0007883a 	mov	r3,zero
  10ad78:	1805883a 	mov	r2,r3
  10ad7c:	dfc00717 	ldw	ra,28(sp)
  10ad80:	dec00804 	addi	sp,sp,32
  10ad84:	f800283a 	ret
  10ad88:	00800044 	movi	r2,1
  10ad8c:	10fff92e 	bgeu	r2,r3,10ad74 <__fixdfsi+0x30>
  10ad90:	00800104 	movi	r2,4
  10ad94:	18800426 	beq	r3,r2,10ada8 <__fixdfsi+0x64>
  10ad98:	d8c00417 	ldw	r3,16(sp)
  10ad9c:	183ff516 	blt	r3,zero,10ad74 <__fixdfsi+0x30>
  10ada0:	00800784 	movi	r2,30
  10ada4:	10c0080e 	bge	r2,r3,10adc8 <__fixdfsi+0x84>
  10ada8:	d8800317 	ldw	r2,12(sp)
  10adac:	1000121e 	bne	r2,zero,10adf8 <__fixdfsi+0xb4>
  10adb0:	00e00034 	movhi	r3,32768
  10adb4:	18ffffc4 	addi	r3,r3,-1
  10adb8:	1805883a 	mov	r2,r3
  10adbc:	dfc00717 	ldw	ra,28(sp)
  10adc0:	dec00804 	addi	sp,sp,32
  10adc4:	f800283a 	ret
  10adc8:	00800f04 	movi	r2,60
  10adcc:	10d1c83a 	sub	r8,r2,r3
  10add0:	40bff804 	addi	r2,r8,-32
  10add4:	d9800517 	ldw	r6,20(sp)
  10add8:	d9c00617 	ldw	r7,24(sp)
  10addc:	10000816 	blt	r2,zero,10ae00 <__fixdfsi+0xbc>
  10ade0:	3888d83a 	srl	r4,r7,r2
  10ade4:	d8800317 	ldw	r2,12(sp)
  10ade8:	2007883a 	mov	r3,r4
  10adec:	103fe226 	beq	r2,zero,10ad78 <__fixdfsi+0x34>
  10adf0:	0107c83a 	sub	r3,zero,r4
  10adf4:	003fe006 	br	10ad78 <__fixdfsi+0x34>
  10adf8:	00e00034 	movhi	r3,32768
  10adfc:	003fde06 	br	10ad78 <__fixdfsi+0x34>
  10ae00:	39c7883a 	add	r3,r7,r7
  10ae04:	008007c4 	movi	r2,31
  10ae08:	1205c83a 	sub	r2,r2,r8
  10ae0c:	1886983a 	sll	r3,r3,r2
  10ae10:	3208d83a 	srl	r4,r6,r8
  10ae14:	1908b03a 	or	r4,r3,r4
  10ae18:	003ff206 	br	10ade4 <__fixdfsi+0xa0>

0010ae1c <__floatunsidf>:
  10ae1c:	defff204 	addi	sp,sp,-56
  10ae20:	dfc00d15 	stw	ra,52(sp)
  10ae24:	ddc00c15 	stw	r23,48(sp)
  10ae28:	dd800b15 	stw	r22,44(sp)
  10ae2c:	dd400a15 	stw	r21,40(sp)
  10ae30:	dd000915 	stw	r20,36(sp)
  10ae34:	dcc00815 	stw	r19,32(sp)
  10ae38:	dc800715 	stw	r18,28(sp)
  10ae3c:	dc400615 	stw	r17,24(sp)
  10ae40:	dc000515 	stw	r16,20(sp)
  10ae44:	d8000115 	stw	zero,4(sp)
  10ae48:	20000f1e 	bne	r4,zero,10ae88 <__floatunsidf+0x6c>
  10ae4c:	00800084 	movi	r2,2
  10ae50:	d8800015 	stw	r2,0(sp)
  10ae54:	d809883a 	mov	r4,sp
  10ae58:	010b2a00 	call	10b2a0 <__pack_d>
  10ae5c:	dfc00d17 	ldw	ra,52(sp)
  10ae60:	ddc00c17 	ldw	r23,48(sp)
  10ae64:	dd800b17 	ldw	r22,44(sp)
  10ae68:	dd400a17 	ldw	r21,40(sp)
  10ae6c:	dd000917 	ldw	r20,36(sp)
  10ae70:	dcc00817 	ldw	r19,32(sp)
  10ae74:	dc800717 	ldw	r18,28(sp)
  10ae78:	dc400617 	ldw	r17,24(sp)
  10ae7c:	dc000517 	ldw	r16,20(sp)
  10ae80:	dec00e04 	addi	sp,sp,56
  10ae84:	f800283a 	ret
  10ae88:	008000c4 	movi	r2,3
  10ae8c:	00c00f04 	movi	r3,60
  10ae90:	002f883a 	mov	r23,zero
  10ae94:	202d883a 	mov	r22,r4
  10ae98:	d8800015 	stw	r2,0(sp)
  10ae9c:	d8c00215 	stw	r3,8(sp)
  10aea0:	d9000315 	stw	r4,12(sp)
  10aea4:	ddc00415 	stw	r23,16(sp)
  10aea8:	010b2200 	call	10b220 <__clzsi2>
  10aeac:	12400744 	addi	r9,r2,29
  10aeb0:	48000b16 	blt	r9,zero,10aee0 <__floatunsidf+0xc4>
  10aeb4:	483fe726 	beq	r9,zero,10ae54 <__floatunsidf+0x38>
  10aeb8:	10bfff44 	addi	r2,r2,-3
  10aebc:	10002e16 	blt	r2,zero,10af78 <__floatunsidf+0x15c>
  10aec0:	b0a2983a 	sll	r17,r22,r2
  10aec4:	0021883a 	mov	r16,zero
  10aec8:	d8800217 	ldw	r2,8(sp)
  10aecc:	dc400415 	stw	r17,16(sp)
  10aed0:	dc000315 	stw	r16,12(sp)
  10aed4:	1245c83a 	sub	r2,r2,r9
  10aed8:	d8800215 	stw	r2,8(sp)
  10aedc:	003fdd06 	br	10ae54 <__floatunsidf+0x38>
  10aee0:	0255c83a 	sub	r10,zero,r9
  10aee4:	51bff804 	addi	r6,r10,-32
  10aee8:	30001b16 	blt	r6,zero,10af58 <__floatunsidf+0x13c>
  10aeec:	b9a8d83a 	srl	r20,r23,r6
  10aef0:	002b883a 	mov	r21,zero
  10aef4:	000f883a 	mov	r7,zero
  10aef8:	01000044 	movi	r4,1
  10aefc:	0011883a 	mov	r8,zero
  10af00:	30002516 	blt	r6,zero,10af98 <__floatunsidf+0x17c>
  10af04:	21a6983a 	sll	r19,r4,r6
  10af08:	0025883a 	mov	r18,zero
  10af0c:	00bfffc4 	movi	r2,-1
  10af10:	9089883a 	add	r4,r18,r2
  10af14:	988b883a 	add	r5,r19,r2
  10af18:	248d803a 	cmpltu	r6,r4,r18
  10af1c:	314b883a 	add	r5,r6,r5
  10af20:	b104703a 	and	r2,r22,r4
  10af24:	b946703a 	and	r3,r23,r5
  10af28:	10c4b03a 	or	r2,r2,r3
  10af2c:	10000226 	beq	r2,zero,10af38 <__floatunsidf+0x11c>
  10af30:	01c00044 	movi	r7,1
  10af34:	0011883a 	mov	r8,zero
  10af38:	d9000217 	ldw	r4,8(sp)
  10af3c:	a1c4b03a 	or	r2,r20,r7
  10af40:	aa06b03a 	or	r3,r21,r8
  10af44:	2249c83a 	sub	r4,r4,r9
  10af48:	d8c00415 	stw	r3,16(sp)
  10af4c:	d9000215 	stw	r4,8(sp)
  10af50:	d8800315 	stw	r2,12(sp)
  10af54:	003fbf06 	br	10ae54 <__floatunsidf+0x38>
  10af58:	bdc7883a 	add	r3,r23,r23
  10af5c:	008007c4 	movi	r2,31
  10af60:	1285c83a 	sub	r2,r2,r10
  10af64:	1886983a 	sll	r3,r3,r2
  10af68:	b2a8d83a 	srl	r20,r22,r10
  10af6c:	baaad83a 	srl	r21,r23,r10
  10af70:	1d28b03a 	or	r20,r3,r20
  10af74:	003fdf06 	br	10aef4 <__floatunsidf+0xd8>
  10af78:	b006d07a 	srli	r3,r22,1
  10af7c:	008007c4 	movi	r2,31
  10af80:	1245c83a 	sub	r2,r2,r9
  10af84:	1886d83a 	srl	r3,r3,r2
  10af88:	ba62983a 	sll	r17,r23,r9
  10af8c:	b260983a 	sll	r16,r22,r9
  10af90:	1c62b03a 	or	r17,r3,r17
  10af94:	003fcc06 	br	10aec8 <__floatunsidf+0xac>
  10af98:	2006d07a 	srli	r3,r4,1
  10af9c:	008007c4 	movi	r2,31
  10afa0:	1285c83a 	sub	r2,r2,r10
  10afa4:	18a6d83a 	srl	r19,r3,r2
  10afa8:	22a4983a 	sll	r18,r4,r10
  10afac:	003fd706 	br	10af0c <__floatunsidf+0xf0>

0010afb0 <udivmodsi4>:
  10afb0:	29001b2e 	bgeu	r5,r4,10b020 <udivmodsi4+0x70>
  10afb4:	28001a16 	blt	r5,zero,10b020 <udivmodsi4+0x70>
  10afb8:	00800044 	movi	r2,1
  10afbc:	0007883a 	mov	r3,zero
  10afc0:	01c007c4 	movi	r7,31
  10afc4:	00000306 	br	10afd4 <udivmodsi4+0x24>
  10afc8:	19c01326 	beq	r3,r7,10b018 <udivmodsi4+0x68>
  10afcc:	18c00044 	addi	r3,r3,1
  10afd0:	28000416 	blt	r5,zero,10afe4 <udivmodsi4+0x34>
  10afd4:	294b883a 	add	r5,r5,r5
  10afd8:	1085883a 	add	r2,r2,r2
  10afdc:	293ffa36 	bltu	r5,r4,10afc8 <udivmodsi4+0x18>
  10afe0:	10000d26 	beq	r2,zero,10b018 <udivmodsi4+0x68>
  10afe4:	0007883a 	mov	r3,zero
  10afe8:	21400236 	bltu	r4,r5,10aff4 <udivmodsi4+0x44>
  10afec:	2149c83a 	sub	r4,r4,r5
  10aff0:	1886b03a 	or	r3,r3,r2
  10aff4:	1004d07a 	srli	r2,r2,1
  10aff8:	280ad07a 	srli	r5,r5,1
  10affc:	103ffa1e 	bne	r2,zero,10afe8 <udivmodsi4+0x38>
  10b000:	30000226 	beq	r6,zero,10b00c <udivmodsi4+0x5c>
  10b004:	2005883a 	mov	r2,r4
  10b008:	f800283a 	ret
  10b00c:	1809883a 	mov	r4,r3
  10b010:	2005883a 	mov	r2,r4
  10b014:	f800283a 	ret
  10b018:	0007883a 	mov	r3,zero
  10b01c:	003ff806 	br	10b000 <udivmodsi4+0x50>
  10b020:	00800044 	movi	r2,1
  10b024:	0007883a 	mov	r3,zero
  10b028:	003fef06 	br	10afe8 <udivmodsi4+0x38>

0010b02c <__divsi3>:
  10b02c:	defffe04 	addi	sp,sp,-8
  10b030:	dc000015 	stw	r16,0(sp)
  10b034:	dfc00115 	stw	ra,4(sp)
  10b038:	0021883a 	mov	r16,zero
  10b03c:	20000c16 	blt	r4,zero,10b070 <__divsi3+0x44>
  10b040:	000d883a 	mov	r6,zero
  10b044:	28000e16 	blt	r5,zero,10b080 <__divsi3+0x54>
  10b048:	010afb00 	call	10afb0 <udivmodsi4>
  10b04c:	1007883a 	mov	r3,r2
  10b050:	8005003a 	cmpeq	r2,r16,zero
  10b054:	1000011e 	bne	r2,zero,10b05c <__divsi3+0x30>
  10b058:	00c7c83a 	sub	r3,zero,r3
  10b05c:	1805883a 	mov	r2,r3
  10b060:	dfc00117 	ldw	ra,4(sp)
  10b064:	dc000017 	ldw	r16,0(sp)
  10b068:	dec00204 	addi	sp,sp,8
  10b06c:	f800283a 	ret
  10b070:	0109c83a 	sub	r4,zero,r4
  10b074:	04000044 	movi	r16,1
  10b078:	000d883a 	mov	r6,zero
  10b07c:	283ff20e 	bge	r5,zero,10b048 <__divsi3+0x1c>
  10b080:	014bc83a 	sub	r5,zero,r5
  10b084:	8021003a 	cmpeq	r16,r16,zero
  10b088:	003fef06 	br	10b048 <__divsi3+0x1c>

0010b08c <__modsi3>:
  10b08c:	deffff04 	addi	sp,sp,-4
  10b090:	dfc00015 	stw	ra,0(sp)
  10b094:	01800044 	movi	r6,1
  10b098:	2807883a 	mov	r3,r5
  10b09c:	20000416 	blt	r4,zero,10b0b0 <__modsi3+0x24>
  10b0a0:	28000c16 	blt	r5,zero,10b0d4 <__modsi3+0x48>
  10b0a4:	dfc00017 	ldw	ra,0(sp)
  10b0a8:	dec00104 	addi	sp,sp,4
  10b0ac:	010afb01 	jmpi	10afb0 <udivmodsi4>
  10b0b0:	0109c83a 	sub	r4,zero,r4
  10b0b4:	28000b16 	blt	r5,zero,10b0e4 <__modsi3+0x58>
  10b0b8:	180b883a 	mov	r5,r3
  10b0bc:	01800044 	movi	r6,1
  10b0c0:	010afb00 	call	10afb0 <udivmodsi4>
  10b0c4:	0085c83a 	sub	r2,zero,r2
  10b0c8:	dfc00017 	ldw	ra,0(sp)
  10b0cc:	dec00104 	addi	sp,sp,4
  10b0d0:	f800283a 	ret
  10b0d4:	014bc83a 	sub	r5,zero,r5
  10b0d8:	dfc00017 	ldw	ra,0(sp)
  10b0dc:	dec00104 	addi	sp,sp,4
  10b0e0:	010afb01 	jmpi	10afb0 <udivmodsi4>
  10b0e4:	0147c83a 	sub	r3,zero,r5
  10b0e8:	003ff306 	br	10b0b8 <__modsi3+0x2c>

0010b0ec <__udivsi3>:
  10b0ec:	000d883a 	mov	r6,zero
  10b0f0:	010afb01 	jmpi	10afb0 <udivmodsi4>

0010b0f4 <__umodsi3>:
  10b0f4:	01800044 	movi	r6,1
  10b0f8:	010afb01 	jmpi	10afb0 <udivmodsi4>

0010b0fc <__muldi3>:
  10b0fc:	defff204 	addi	sp,sp,-56
  10b100:	df000c15 	stw	fp,48(sp)
  10b104:	3038d43a 	srli	fp,r6,16
  10b108:	dd000815 	stw	r20,32(sp)
  10b10c:	dc400515 	stw	r17,20(sp)
  10b110:	2028d43a 	srli	r20,r4,16
  10b114:	247fffcc 	andi	r17,r4,65535
  10b118:	dc000415 	stw	r16,16(sp)
  10b11c:	343fffcc 	andi	r16,r6,65535
  10b120:	dcc00715 	stw	r19,28(sp)
  10b124:	d9000015 	stw	r4,0(sp)
  10b128:	2827883a 	mov	r19,r5
  10b12c:	8809883a 	mov	r4,r17
  10b130:	d9400115 	stw	r5,4(sp)
  10b134:	800b883a 	mov	r5,r16
  10b138:	d9800215 	stw	r6,8(sp)
  10b13c:	dfc00d15 	stw	ra,52(sp)
  10b140:	d9c00315 	stw	r7,12(sp)
  10b144:	dd800a15 	stw	r22,40(sp)
  10b148:	dd400915 	stw	r21,36(sp)
  10b14c:	302d883a 	mov	r22,r6
  10b150:	ddc00b15 	stw	r23,44(sp)
  10b154:	dc800615 	stw	r18,24(sp)
  10b158:	01030a40 	call	1030a4 <__mulsi3>
  10b15c:	8809883a 	mov	r4,r17
  10b160:	e00b883a 	mov	r5,fp
  10b164:	102b883a 	mov	r21,r2
  10b168:	01030a40 	call	1030a4 <__mulsi3>
  10b16c:	800b883a 	mov	r5,r16
  10b170:	a009883a 	mov	r4,r20
  10b174:	1023883a 	mov	r17,r2
  10b178:	01030a40 	call	1030a4 <__mulsi3>
  10b17c:	a009883a 	mov	r4,r20
  10b180:	e00b883a 	mov	r5,fp
  10b184:	1021883a 	mov	r16,r2
  10b188:	01030a40 	call	1030a4 <__mulsi3>
  10b18c:	a8ffffcc 	andi	r3,r21,65535
  10b190:	a82ad43a 	srli	r21,r21,16
  10b194:	8c23883a 	add	r17,r17,r16
  10b198:	1011883a 	mov	r8,r2
  10b19c:	ac6b883a 	add	r21,r21,r17
  10b1a0:	a804943a 	slli	r2,r21,16
  10b1a4:	b009883a 	mov	r4,r22
  10b1a8:	980b883a 	mov	r5,r19
  10b1ac:	10c7883a 	add	r3,r2,r3
  10b1b0:	a812d43a 	srli	r9,r21,16
  10b1b4:	180d883a 	mov	r6,r3
  10b1b8:	ac00022e 	bgeu	r21,r16,10b1c4 <__muldi3+0xc8>
  10b1bc:	00800074 	movhi	r2,1
  10b1c0:	4091883a 	add	r8,r8,r2
  10b1c4:	4267883a 	add	r19,r8,r9
  10b1c8:	302d883a 	mov	r22,r6
  10b1cc:	01030a40 	call	1030a4 <__mulsi3>
  10b1d0:	d9400317 	ldw	r5,12(sp)
  10b1d4:	d9000017 	ldw	r4,0(sp)
  10b1d8:	1023883a 	mov	r17,r2
  10b1dc:	01030a40 	call	1030a4 <__mulsi3>
  10b1e0:	14cb883a 	add	r5,r2,r19
  10b1e4:	894b883a 	add	r5,r17,r5
  10b1e8:	b005883a 	mov	r2,r22
  10b1ec:	2807883a 	mov	r3,r5
  10b1f0:	dfc00d17 	ldw	ra,52(sp)
  10b1f4:	df000c17 	ldw	fp,48(sp)
  10b1f8:	ddc00b17 	ldw	r23,44(sp)
  10b1fc:	dd800a17 	ldw	r22,40(sp)
  10b200:	dd400917 	ldw	r21,36(sp)
  10b204:	dd000817 	ldw	r20,32(sp)
  10b208:	dcc00717 	ldw	r19,28(sp)
  10b20c:	dc800617 	ldw	r18,24(sp)
  10b210:	dc400517 	ldw	r17,20(sp)
  10b214:	dc000417 	ldw	r16,16(sp)
  10b218:	dec00e04 	addi	sp,sp,56
  10b21c:	f800283a 	ret

0010b220 <__clzsi2>:
  10b220:	00bfffd4 	movui	r2,65535
  10b224:	11000e36 	bltu	r2,r4,10b260 <__clzsi2+0x40>
  10b228:	00803fc4 	movi	r2,255
  10b22c:	01400204 	movi	r5,8
  10b230:	0007883a 	mov	r3,zero
  10b234:	11001036 	bltu	r2,r4,10b278 <__clzsi2+0x58>
  10b238:	000b883a 	mov	r5,zero
  10b23c:	20c6d83a 	srl	r3,r4,r3
  10b240:	00800474 	movhi	r2,17
  10b244:	10ae7604 	addi	r2,r2,-17960
  10b248:	1887883a 	add	r3,r3,r2
  10b24c:	18800003 	ldbu	r2,0(r3)
  10b250:	00c00804 	movi	r3,32
  10b254:	2885883a 	add	r2,r5,r2
  10b258:	1885c83a 	sub	r2,r3,r2
  10b25c:	f800283a 	ret
  10b260:	01400404 	movi	r5,16
  10b264:	00804034 	movhi	r2,256
  10b268:	10bfffc4 	addi	r2,r2,-1
  10b26c:	2807883a 	mov	r3,r5
  10b270:	113ff22e 	bgeu	r2,r4,10b23c <__clzsi2+0x1c>
  10b274:	01400604 	movi	r5,24
  10b278:	2807883a 	mov	r3,r5
  10b27c:	20c6d83a 	srl	r3,r4,r3
  10b280:	00800474 	movhi	r2,17
  10b284:	10ae7604 	addi	r2,r2,-17960
  10b288:	1887883a 	add	r3,r3,r2
  10b28c:	18800003 	ldbu	r2,0(r3)
  10b290:	00c00804 	movi	r3,32
  10b294:	2885883a 	add	r2,r5,r2
  10b298:	1885c83a 	sub	r2,r3,r2
  10b29c:	f800283a 	ret

0010b2a0 <__pack_d>:
  10b2a0:	20c00017 	ldw	r3,0(r4)
  10b2a4:	defffd04 	addi	sp,sp,-12
  10b2a8:	dc000015 	stw	r16,0(sp)
  10b2ac:	dc800215 	stw	r18,8(sp)
  10b2b0:	dc400115 	stw	r17,4(sp)
  10b2b4:	00800044 	movi	r2,1
  10b2b8:	22000317 	ldw	r8,12(r4)
  10b2bc:	001f883a 	mov	r15,zero
  10b2c0:	22400417 	ldw	r9,16(r4)
  10b2c4:	24000117 	ldw	r16,4(r4)
  10b2c8:	10c0552e 	bgeu	r2,r3,10b420 <__pack_d+0x180>
  10b2cc:	00800104 	movi	r2,4
  10b2d0:	18804f26 	beq	r3,r2,10b410 <__pack_d+0x170>
  10b2d4:	00800084 	movi	r2,2
  10b2d8:	18800226 	beq	r3,r2,10b2e4 <__pack_d+0x44>
  10b2dc:	4244b03a 	or	r2,r8,r9
  10b2e0:	10001a1e 	bne	r2,zero,10b34c <__pack_d+0xac>
  10b2e4:	000d883a 	mov	r6,zero
  10b2e8:	000f883a 	mov	r7,zero
  10b2ec:	0011883a 	mov	r8,zero
  10b2f0:	00800434 	movhi	r2,16
  10b2f4:	10bfffc4 	addi	r2,r2,-1
  10b2f8:	301d883a 	mov	r14,r6
  10b2fc:	3884703a 	and	r2,r7,r2
  10b300:	400a953a 	slli	r5,r8,20
  10b304:	79bffc2c 	andhi	r6,r15,65520
  10b308:	308cb03a 	or	r6,r6,r2
  10b30c:	00e00434 	movhi	r3,32784
  10b310:	18ffffc4 	addi	r3,r3,-1
  10b314:	800497fa 	slli	r2,r16,31
  10b318:	30c6703a 	and	r3,r6,r3
  10b31c:	1946b03a 	or	r3,r3,r5
  10b320:	01600034 	movhi	r5,32768
  10b324:	297fffc4 	addi	r5,r5,-1
  10b328:	194a703a 	and	r5,r3,r5
  10b32c:	288ab03a 	or	r5,r5,r2
  10b330:	2807883a 	mov	r3,r5
  10b334:	7005883a 	mov	r2,r14
  10b338:	dc800217 	ldw	r18,8(sp)
  10b33c:	dc400117 	ldw	r17,4(sp)
  10b340:	dc000017 	ldw	r16,0(sp)
  10b344:	dec00304 	addi	sp,sp,12
  10b348:	f800283a 	ret
  10b34c:	21000217 	ldw	r4,8(r4)
  10b350:	00bf0084 	movi	r2,-1022
  10b354:	20803f16 	blt	r4,r2,10b454 <__pack_d+0x1b4>
  10b358:	0080ffc4 	movi	r2,1023
  10b35c:	11002c16 	blt	r2,r4,10b410 <__pack_d+0x170>
  10b360:	00803fc4 	movi	r2,255
  10b364:	408c703a 	and	r6,r8,r2
  10b368:	00802004 	movi	r2,128
  10b36c:	0007883a 	mov	r3,zero
  10b370:	000f883a 	mov	r7,zero
  10b374:	2280ffc4 	addi	r10,r4,1023
  10b378:	30801e26 	beq	r6,r2,10b3f4 <__pack_d+0x154>
  10b37c:	00801fc4 	movi	r2,127
  10b380:	4089883a 	add	r4,r8,r2
  10b384:	220d803a 	cmpltu	r6,r4,r8
  10b388:	324d883a 	add	r6,r6,r9
  10b38c:	2011883a 	mov	r8,r4
  10b390:	3013883a 	mov	r9,r6
  10b394:	00880034 	movhi	r2,8192
  10b398:	10bfffc4 	addi	r2,r2,-1
  10b39c:	12400d36 	bltu	r2,r9,10b3d4 <__pack_d+0x134>
  10b3a0:	4804963a 	slli	r2,r9,24
  10b3a4:	400cd23a 	srli	r6,r8,8
  10b3a8:	480ed23a 	srli	r7,r9,8
  10b3ac:	013fffc4 	movi	r4,-1
  10b3b0:	118cb03a 	or	r6,r2,r6
  10b3b4:	01400434 	movhi	r5,16
  10b3b8:	297fffc4 	addi	r5,r5,-1
  10b3bc:	3104703a 	and	r2,r6,r4
  10b3c0:	3946703a 	and	r3,r7,r5
  10b3c4:	5201ffcc 	andi	r8,r10,2047
  10b3c8:	100d883a 	mov	r6,r2
  10b3cc:	180f883a 	mov	r7,r3
  10b3d0:	003fc706 	br	10b2f0 <__pack_d+0x50>
  10b3d4:	480897fa 	slli	r4,r9,31
  10b3d8:	4004d07a 	srli	r2,r8,1
  10b3dc:	4806d07a 	srli	r3,r9,1
  10b3e0:	52800044 	addi	r10,r10,1
  10b3e4:	2084b03a 	or	r2,r4,r2
  10b3e8:	1011883a 	mov	r8,r2
  10b3ec:	1813883a 	mov	r9,r3
  10b3f0:	003feb06 	br	10b3a0 <__pack_d+0x100>
  10b3f4:	383fe11e 	bne	r7,zero,10b37c <__pack_d+0xdc>
  10b3f8:	01004004 	movi	r4,256
  10b3fc:	4104703a 	and	r2,r8,r4
  10b400:	10c4b03a 	or	r2,r2,r3
  10b404:	103fe326 	beq	r2,zero,10b394 <__pack_d+0xf4>
  10b408:	3005883a 	mov	r2,r6
  10b40c:	003fdc06 	br	10b380 <__pack_d+0xe0>
  10b410:	000d883a 	mov	r6,zero
  10b414:	000f883a 	mov	r7,zero
  10b418:	0201ffc4 	movi	r8,2047
  10b41c:	003fb406 	br	10b2f0 <__pack_d+0x50>
  10b420:	0005883a 	mov	r2,zero
  10b424:	00c00234 	movhi	r3,8
  10b428:	408cb03a 	or	r6,r8,r2
  10b42c:	48ceb03a 	or	r7,r9,r3
  10b430:	013fffc4 	movi	r4,-1
  10b434:	01400434 	movhi	r5,16
  10b438:	297fffc4 	addi	r5,r5,-1
  10b43c:	3104703a 	and	r2,r6,r4
  10b440:	3946703a 	and	r3,r7,r5
  10b444:	100d883a 	mov	r6,r2
  10b448:	180f883a 	mov	r7,r3
  10b44c:	0201ffc4 	movi	r8,2047
  10b450:	003fa706 	br	10b2f0 <__pack_d+0x50>
  10b454:	1109c83a 	sub	r4,r2,r4
  10b458:	00800e04 	movi	r2,56
  10b45c:	11004316 	blt	r2,r4,10b56c <__pack_d+0x2cc>
  10b460:	21fff804 	addi	r7,r4,-32
  10b464:	38004516 	blt	r7,zero,10b57c <__pack_d+0x2dc>
  10b468:	49d8d83a 	srl	r12,r9,r7
  10b46c:	001b883a 	mov	r13,zero
  10b470:	0023883a 	mov	r17,zero
  10b474:	01400044 	movi	r5,1
  10b478:	0025883a 	mov	r18,zero
  10b47c:	38004716 	blt	r7,zero,10b59c <__pack_d+0x2fc>
  10b480:	29d6983a 	sll	r11,r5,r7
  10b484:	0015883a 	mov	r10,zero
  10b488:	00bfffc4 	movi	r2,-1
  10b48c:	5089883a 	add	r4,r10,r2
  10b490:	588b883a 	add	r5,r11,r2
  10b494:	228d803a 	cmpltu	r6,r4,r10
  10b498:	314b883a 	add	r5,r6,r5
  10b49c:	4104703a 	and	r2,r8,r4
  10b4a0:	4946703a 	and	r3,r9,r5
  10b4a4:	10c4b03a 	or	r2,r2,r3
  10b4a8:	10000226 	beq	r2,zero,10b4b4 <__pack_d+0x214>
  10b4ac:	04400044 	movi	r17,1
  10b4b0:	0025883a 	mov	r18,zero
  10b4b4:	00803fc4 	movi	r2,255
  10b4b8:	644eb03a 	or	r7,r12,r17
  10b4bc:	3892703a 	and	r9,r7,r2
  10b4c0:	00802004 	movi	r2,128
  10b4c4:	6c90b03a 	or	r8,r13,r18
  10b4c8:	0015883a 	mov	r10,zero
  10b4cc:	48801626 	beq	r9,r2,10b528 <__pack_d+0x288>
  10b4d0:	01001fc4 	movi	r4,127
  10b4d4:	3905883a 	add	r2,r7,r4
  10b4d8:	11cd803a 	cmpltu	r6,r2,r7
  10b4dc:	320d883a 	add	r6,r6,r8
  10b4e0:	100f883a 	mov	r7,r2
  10b4e4:	00840034 	movhi	r2,4096
  10b4e8:	10bfffc4 	addi	r2,r2,-1
  10b4ec:	3011883a 	mov	r8,r6
  10b4f0:	0007883a 	mov	r3,zero
  10b4f4:	11801b36 	bltu	r2,r6,10b564 <__pack_d+0x2c4>
  10b4f8:	4004963a 	slli	r2,r8,24
  10b4fc:	3808d23a 	srli	r4,r7,8
  10b500:	400ad23a 	srli	r5,r8,8
  10b504:	1813883a 	mov	r9,r3
  10b508:	1108b03a 	or	r4,r2,r4
  10b50c:	00bfffc4 	movi	r2,-1
  10b510:	00c00434 	movhi	r3,16
  10b514:	18ffffc4 	addi	r3,r3,-1
  10b518:	208c703a 	and	r6,r4,r2
  10b51c:	28ce703a 	and	r7,r5,r3
  10b520:	4a01ffcc 	andi	r8,r9,2047
  10b524:	003f7206 	br	10b2f0 <__pack_d+0x50>
  10b528:	503fe91e 	bne	r10,zero,10b4d0 <__pack_d+0x230>
  10b52c:	01004004 	movi	r4,256
  10b530:	3904703a 	and	r2,r7,r4
  10b534:	0007883a 	mov	r3,zero
  10b538:	10c4b03a 	or	r2,r2,r3
  10b53c:	10000626 	beq	r2,zero,10b558 <__pack_d+0x2b8>
  10b540:	3a45883a 	add	r2,r7,r9
  10b544:	11cd803a 	cmpltu	r6,r2,r7
  10b548:	320d883a 	add	r6,r6,r8
  10b54c:	100f883a 	mov	r7,r2
  10b550:	3011883a 	mov	r8,r6
  10b554:	0007883a 	mov	r3,zero
  10b558:	00840034 	movhi	r2,4096
  10b55c:	10bfffc4 	addi	r2,r2,-1
  10b560:	123fe52e 	bgeu	r2,r8,10b4f8 <__pack_d+0x258>
  10b564:	00c00044 	movi	r3,1
  10b568:	003fe306 	br	10b4f8 <__pack_d+0x258>
  10b56c:	0009883a 	mov	r4,zero
  10b570:	0013883a 	mov	r9,zero
  10b574:	000b883a 	mov	r5,zero
  10b578:	003fe406 	br	10b50c <__pack_d+0x26c>
  10b57c:	4a47883a 	add	r3,r9,r9
  10b580:	008007c4 	movi	r2,31
  10b584:	1105c83a 	sub	r2,r2,r4
  10b588:	1886983a 	sll	r3,r3,r2
  10b58c:	4118d83a 	srl	r12,r8,r4
  10b590:	491ad83a 	srl	r13,r9,r4
  10b594:	1b18b03a 	or	r12,r3,r12
  10b598:	003fb506 	br	10b470 <__pack_d+0x1d0>
  10b59c:	2806d07a 	srli	r3,r5,1
  10b5a0:	008007c4 	movi	r2,31
  10b5a4:	1105c83a 	sub	r2,r2,r4
  10b5a8:	1896d83a 	srl	r11,r3,r2
  10b5ac:	2914983a 	sll	r10,r5,r4
  10b5b0:	003fb506 	br	10b488 <__pack_d+0x1e8>

0010b5b4 <__unpack_d>:
  10b5b4:	20c00117 	ldw	r3,4(r4)
  10b5b8:	22400017 	ldw	r9,0(r4)
  10b5bc:	00800434 	movhi	r2,16
  10b5c0:	10bfffc4 	addi	r2,r2,-1
  10b5c4:	1808d53a 	srli	r4,r3,20
  10b5c8:	180cd7fa 	srli	r6,r3,31
  10b5cc:	1894703a 	and	r10,r3,r2
  10b5d0:	2201ffcc 	andi	r8,r4,2047
  10b5d4:	281b883a 	mov	r13,r5
  10b5d8:	4817883a 	mov	r11,r9
  10b5dc:	29800115 	stw	r6,4(r5)
  10b5e0:	5019883a 	mov	r12,r10
  10b5e4:	40001e1e 	bne	r8,zero,10b660 <__unpack_d+0xac>
  10b5e8:	4a84b03a 	or	r2,r9,r10
  10b5ec:	10001926 	beq	r2,zero,10b654 <__unpack_d+0xa0>
  10b5f0:	4804d63a 	srli	r2,r9,24
  10b5f4:	500c923a 	slli	r6,r10,8
  10b5f8:	013f0084 	movi	r4,-1022
  10b5fc:	00c40034 	movhi	r3,4096
  10b600:	18ffffc4 	addi	r3,r3,-1
  10b604:	118cb03a 	or	r6,r2,r6
  10b608:	008000c4 	movi	r2,3
  10b60c:	480a923a 	slli	r5,r9,8
  10b610:	68800015 	stw	r2,0(r13)
  10b614:	69000215 	stw	r4,8(r13)
  10b618:	19800b36 	bltu	r3,r6,10b648 <__unpack_d+0x94>
  10b61c:	200f883a 	mov	r7,r4
  10b620:	1811883a 	mov	r8,r3
  10b624:	2945883a 	add	r2,r5,r5
  10b628:	1149803a 	cmpltu	r4,r2,r5
  10b62c:	3187883a 	add	r3,r6,r6
  10b630:	20c9883a 	add	r4,r4,r3
  10b634:	100b883a 	mov	r5,r2
  10b638:	200d883a 	mov	r6,r4
  10b63c:	39ffffc4 	addi	r7,r7,-1
  10b640:	413ff82e 	bgeu	r8,r4,10b624 <__unpack_d+0x70>
  10b644:	69c00215 	stw	r7,8(r13)
  10b648:	69800415 	stw	r6,16(r13)
  10b64c:	69400315 	stw	r5,12(r13)
  10b650:	f800283a 	ret
  10b654:	00800084 	movi	r2,2
  10b658:	28800015 	stw	r2,0(r5)
  10b65c:	f800283a 	ret
  10b660:	0081ffc4 	movi	r2,2047
  10b664:	40800f26 	beq	r8,r2,10b6a4 <__unpack_d+0xf0>
  10b668:	480cd63a 	srli	r6,r9,24
  10b66c:	5006923a 	slli	r3,r10,8
  10b670:	4804923a 	slli	r2,r9,8
  10b674:	0009883a 	mov	r4,zero
  10b678:	30c6b03a 	or	r3,r6,r3
  10b67c:	01440034 	movhi	r5,4096
  10b680:	110cb03a 	or	r6,r2,r4
  10b684:	423f0044 	addi	r8,r8,-1023
  10b688:	194eb03a 	or	r7,r3,r5
  10b68c:	008000c4 	movi	r2,3
  10b690:	69c00415 	stw	r7,16(r13)
  10b694:	6a000215 	stw	r8,8(r13)
  10b698:	68800015 	stw	r2,0(r13)
  10b69c:	69800315 	stw	r6,12(r13)
  10b6a0:	f800283a 	ret
  10b6a4:	4a84b03a 	or	r2,r9,r10
  10b6a8:	1000031e 	bne	r2,zero,10b6b8 <__unpack_d+0x104>
  10b6ac:	00800104 	movi	r2,4
  10b6b0:	28800015 	stw	r2,0(r5)
  10b6b4:	f800283a 	ret
  10b6b8:	0009883a 	mov	r4,zero
  10b6bc:	01400234 	movhi	r5,8
  10b6c0:	4904703a 	and	r2,r9,r4
  10b6c4:	5146703a 	and	r3,r10,r5
  10b6c8:	10c4b03a 	or	r2,r2,r3
  10b6cc:	10000526 	beq	r2,zero,10b6e4 <__unpack_d+0x130>
  10b6d0:	00800044 	movi	r2,1
  10b6d4:	68800015 	stw	r2,0(r13)
  10b6d8:	6b000415 	stw	r12,16(r13)
  10b6dc:	6ac00315 	stw	r11,12(r13)
  10b6e0:	f800283a 	ret
  10b6e4:	68000015 	stw	zero,0(r13)
  10b6e8:	003ffb06 	br	10b6d8 <__unpack_d+0x124>

0010b6ec <__fpcmp_parts_d>:
  10b6ec:	21800017 	ldw	r6,0(r4)
  10b6f0:	00c00044 	movi	r3,1
  10b6f4:	19800a2e 	bgeu	r3,r6,10b720 <__fpcmp_parts_d+0x34>
  10b6f8:	28800017 	ldw	r2,0(r5)
  10b6fc:	1880082e 	bgeu	r3,r2,10b720 <__fpcmp_parts_d+0x34>
  10b700:	00c00104 	movi	r3,4
  10b704:	30c02626 	beq	r6,r3,10b7a0 <__fpcmp_parts_d+0xb4>
  10b708:	10c02226 	beq	r2,r3,10b794 <__fpcmp_parts_d+0xa8>
  10b70c:	00c00084 	movi	r3,2
  10b710:	30c00526 	beq	r6,r3,10b728 <__fpcmp_parts_d+0x3c>
  10b714:	10c0071e 	bne	r2,r3,10b734 <__fpcmp_parts_d+0x48>
  10b718:	20800117 	ldw	r2,4(r4)
  10b71c:	1000091e 	bne	r2,zero,10b744 <__fpcmp_parts_d+0x58>
  10b720:	00800044 	movi	r2,1
  10b724:	f800283a 	ret
  10b728:	10c01a1e 	bne	r2,r3,10b794 <__fpcmp_parts_d+0xa8>
  10b72c:	0005883a 	mov	r2,zero
  10b730:	f800283a 	ret
  10b734:	22000117 	ldw	r8,4(r4)
  10b738:	28800117 	ldw	r2,4(r5)
  10b73c:	40800326 	beq	r8,r2,10b74c <__fpcmp_parts_d+0x60>
  10b740:	403ff726 	beq	r8,zero,10b720 <__fpcmp_parts_d+0x34>
  10b744:	00bfffc4 	movi	r2,-1
  10b748:	f800283a 	ret
  10b74c:	20c00217 	ldw	r3,8(r4)
  10b750:	28800217 	ldw	r2,8(r5)
  10b754:	10fffa16 	blt	r2,r3,10b740 <__fpcmp_parts_d+0x54>
  10b758:	18800916 	blt	r3,r2,10b780 <__fpcmp_parts_d+0x94>
  10b75c:	21c00417 	ldw	r7,16(r4)
  10b760:	28c00417 	ldw	r3,16(r5)
  10b764:	21800317 	ldw	r6,12(r4)
  10b768:	28800317 	ldw	r2,12(r5)
  10b76c:	19fff436 	bltu	r3,r7,10b740 <__fpcmp_parts_d+0x54>
  10b770:	38c00526 	beq	r7,r3,10b788 <__fpcmp_parts_d+0x9c>
  10b774:	38c00236 	bltu	r7,r3,10b780 <__fpcmp_parts_d+0x94>
  10b778:	19ffec1e 	bne	r3,r7,10b72c <__fpcmp_parts_d+0x40>
  10b77c:	30bfeb2e 	bgeu	r6,r2,10b72c <__fpcmp_parts_d+0x40>
  10b780:	403fe71e 	bne	r8,zero,10b720 <__fpcmp_parts_d+0x34>
  10b784:	003fef06 	br	10b744 <__fpcmp_parts_d+0x58>
  10b788:	11bffa2e 	bgeu	r2,r6,10b774 <__fpcmp_parts_d+0x88>
  10b78c:	403fe426 	beq	r8,zero,10b720 <__fpcmp_parts_d+0x34>
  10b790:	003fec06 	br	10b744 <__fpcmp_parts_d+0x58>
  10b794:	28800117 	ldw	r2,4(r5)
  10b798:	103fe11e 	bne	r2,zero,10b720 <__fpcmp_parts_d+0x34>
  10b79c:	003fe906 	br	10b744 <__fpcmp_parts_d+0x58>
  10b7a0:	11bfdd1e 	bne	r2,r6,10b718 <__fpcmp_parts_d+0x2c>
  10b7a4:	28c00117 	ldw	r3,4(r5)
  10b7a8:	20800117 	ldw	r2,4(r4)
  10b7ac:	1885c83a 	sub	r2,r3,r2
  10b7b0:	f800283a 	ret

0010b7b4 <_exit>:
  10b7b4:	00800474 	movhi	r2,17
  10b7b8:	10bc4604 	addi	r2,r2,-3816
  10b7bc:	10000005 	stb	zero,0(r2)
  10b7c0:	20000226 	beq	r4,zero,10b7cc <_exit+0x18>
  10b7c4:	002af070 	cmpltui	zero,zero,43969
  10b7c8:	00000106 	br	10b7d0 <_exit+0x1c>
  10b7cc:	002af0b0 	cmpltui	zero,zero,43970
  10b7d0:	003fff06 	br	10b7d0 <_exit+0x1c>
  10b7d4:	00109e4c 	andi	zero,zero,17017
